
 Start         Length     Name                   Class
 0001:00000000 000681E8H .text                   CODE
 0002:00000000 00001224H .data                   DATA
 0002:00001224 00000BE5H .bss                    BSS


Detailed map of segments

 0001:00000000 0000523F C=CODE     S=.text    G=(none)   M=System   ACBP=A9
 0001:00005240 00000140 C=CODE     S=.text    G=(none)   M=SysInit  ACBP=A9
 0001:00005380 000000D4 C=CODE     S=.text    G=(none)   M=Types    ACBP=A9
 0001:00005454 00000CD0 C=CODE     S=.text    G=(none)   M=Windows  ACBP=A9
 0001:00006124 00000038 C=CODE     S=.text    G=(none)   M=Messages ACBP=A9
 0001:0000615C 00000320 C=CODE     S=.text    G=(none)   M=SysConst ACBP=A9
 0001:0000647C 00007488 C=CODE     S=.text    G=(none)   M=SysUtils ACBP=A9
 0001:0000D904 00000887 C=CODE     S=.text    G=(none)   M=VarUtils ACBP=A9
 0001:0000E18C 00002A42 C=CODE     S=.text    G=(none)   M=Variants ACBP=A9
 0001:00010BD0 00000120 C=CODE     S=.text    G=(none)   M=RTLConsts ACBP=A9
 0001:00010CF0 00000908 C=CODE     S=.text    G=(none)   M=TypInfo  ACBP=A9
 0001:000115F8 00000038 C=CODE     S=.text    G=(none)   M=ActiveX  ACBP=A9
 0001:00011630 0000B476 C=CODE     S=.text    G=(none)   M=Classes  ACBP=A9
 0001:0001CAA8 00000298 C=CODE     S=.text    G=(none)   M=Consts   ACBP=A9
 0001:0001CD40 000086C3 C=CODE     S=.text    G=(none)   M=Graphics ACBP=A9
 0001:00025404 00000090 C=CODE     S=.text    G=(none)   M=Math     ACBP=A9
 0001:00025494 00000378 C=CODE     S=.text    G=(none)   M=Contnrs  ACBP=A9
 0001:0002580C 00000110 C=CODE     S=.text    G=(none)   M=CommCtrl ACBP=A9
 0001:0002591C 0000087F C=CODE     S=.text    G=(none)   M=MultiMon ACBP=A9
 0001:0002619C 00000038 C=CODE     S=.text    G=(none)   M=Imm      ACBP=A9
 0001:000261D4 00001210 C=CODE     S=.text    G=(none)   M=HelpIntfs ACBP=A9
 0001:000273E4 00000038 C=CODE     S=.text    G=(none)   M=WinSpool ACBP=A9
 0001:0002741C 00000048 C=CODE     S=.text    G=(none)   M=Printers ACBP=A9
 0001:00027464 0000036B C=CODE     S=.text    G=(none)   M=FlatSB   ACBP=A9
 0001:000277D0 00000204 C=CODE     S=.text    G=(none)   M=SyncObjs ACBP=A9
 0001:000279D4 00000A63 C=CODE     S=.text    G=(none)   M=UxTheme  ACBP=A9
 0001:00028438 00000038 C=CODE     S=.text    G=(none)   M=RichEdit ACBP=A9
 0001:00028470 00000038 C=CODE     S=.text    G=(none)   M=ToolWin  ACBP=A9
 0001:000284A8 00000038 C=CODE     S=.text    G=(none)   M=ShellAPI ACBP=A9
 0001:000284E0 00000038 C=CODE     S=.text    G=(none)   M=RegStr   ACBP=A9
 0001:00028518 00000038 C=CODE     S=.text    G=(none)   M=WinInet  ACBP=A9
 0001:00028550 00000038 C=CODE     S=.text    G=(none)   M=UrlMon   ACBP=A9
 0001:00028588 00000038 C=CODE     S=.text    G=(none)   M=ShlObj   ACBP=A9
 0001:000285C0 00000038 C=CODE     S=.text    G=(none)   M=CommDlg  ACBP=A9
 0001:000285F8 00000038 C=CODE     S=.text    G=(none)   M=Dlgs     ACBP=A9
 0001:00028630 00000749 C=CODE     S=.text    G=(none)   M=Dialogs  ACBP=A9
 0001:00028D7C 00000702 C=CODE     S=.text    G=(none)   M=ExtCtrls ACBP=A9
 0001:00029480 00000038 C=CODE     S=.text    G=(none)   M=ComStrs  ACBP=A9
 0001:000294B8 00000098 C=CODE     S=.text    G=(none)   M=Clipbrd  ACBP=A9
 0001:00029550 00000038 C=CODE     S=.text    G=(none)   M=StrUtils ACBP=A9
 0001:00029588 00000101 C=CODE     S=.text    G=(none)   M=Buttons  ACBP=A9
 0001:0002968C 00000038 C=CODE     S=.text    G=(none)   M=ExtDlgs  ACBP=A9
 0001:000296C4 00000068 C=CODE     S=.text    G=(none)   M=IniFiles ACBP=A9
 0001:0002972C 00000068 C=CODE     S=.text    G=(none)   M=Registry ACBP=A9
 0001:00029794 00000070 C=CODE     S=.text    G=(none)   M=Mapi     ACBP=A9
 0001:00029804 0000005C C=CODE     S=.text    G=(none)   M=ExtActns ACBP=A9
 0001:00029860 00000038 C=CODE     S=.text    G=(none)   M=ListActns ACBP=A9
 0001:00029898 000001C0 C=CODE     S=.text    G=(none)   M=ComCtrls ACBP=A9
 0001:00029A58 00000BE8 C=CODE     S=.text    G=(none)   M=Themes   ACBP=A9
 0001:0002A640 00003414 C=CODE     S=.text    G=(none)   M=StdCtrls ACBP=A9
 0001:0002DA54 0000017C C=CODE     S=.text    G=(none)   M=StdActns ACBP=A9
 0001:0002DBD0 00000EAF C=CODE     S=.text    G=(none)   M=WinHelpViewer ACBP=A9
 0001:0002EA80 00014A8B C=CODE     S=.text    G=(none)   M=Controls ACBP=A9
 0001:0004350C 0000190A C=CODE     S=.text    G=(none)   M=ActnList ACBP=A9
 0001:00044E18 00001AF0 C=CODE     S=.text    G=(none)   M=ImgList  ACBP=A9
 0001:00046908 000079FD C=CODE     S=.text    G=(none)   M=Menus    ACBP=A9
 0001:0004E308 0000EA60 C=CODE     S=.text    G=(none)   M=Forms    ACBP=A9
 0001:0005CD68 00000068 C=CODE     S=.text    G=(none)   M=PPSDK    ACBP=A9
 0001:0005CDD0 00000040 C=CODE     S=.text    G=(none)   M=WinSock  ACBP=A9
 0001:0005CE10 0000A064 C=CODE     S=.text    G=(none)   M=superobject ACBP=A9
 0001:00066E74 0000110C C=CODE     S=.text    G=(none)   M=PPDemo_Unt ACBP=A9
 0001:00067F80 00000265 C=CODE     S=.text    G=(none)   M=D7_PP    ACBP=A9
 0002:00000000 000000A4 C=DATA     S=.data    G=DGROUP   M=System   ACBP=A9
 0002:000000A4 00000020 C=DATA     S=.data    G=DGROUP   M=SysInit  ACBP=A9
 0002:000000C4 00000254 C=DATA     S=.data    G=DGROUP   M=SysUtils ACBP=A9
 0002:00000318 00000008 C=DATA     S=.data    G=DGROUP   M=VarUtils ACBP=A9
 0002:00000320 0000008E C=DATA     S=.data    G=DGROUP   M=Variants ACBP=A9
 0002:000003B0 0000000C C=DATA     S=.data    G=DGROUP   M=TypInfo  ACBP=A9
 0002:000003BC 00000064 C=DATA     S=.data    G=DGROUP   M=Classes  ACBP=A9
 0002:00000420 00000304 C=DATA     S=.data    G=DGROUP   M=Graphics ACBP=A9
 0002:00000724 00000004 C=DATA     S=.data    G=DGROUP   M=Printers ACBP=A9
 0002:00000728 00000074 C=DATA     S=.data    G=DGROUP   M=Dialogs  ACBP=A9
 0002:0000079C 00000178 C=DATA     S=.data    G=DGROUP   M=ExtCtrls ACBP=A9
 0002:00000914 0000002C C=DATA     S=.data    G=DGROUP   M=Buttons  ACBP=A9
 0002:00000940 00000008 C=DATA     S=.data    G=DGROUP   M=IniFiles ACBP=A9
 0002:00000948 00000008 C=DATA     S=.data    G=DGROUP   M=Registry ACBP=A9
 0002:00000950 00000008 C=DATA     S=.data    G=DGROUP   M=Mapi     ACBP=A9
 0002:00000958 00000018 C=DATA     S=.data    G=DGROUP   M=ComCtrls ACBP=A9
 0002:00000970 00000068 C=DATA     S=.data    G=DGROUP   M=Themes   ACBP=A9
 0002:000009D8 00000070 C=DATA     S=.data    G=DGROUP   M=StdCtrls ACBP=A9
 0002:00000A48 0000013C C=DATA     S=.data    G=DGROUP   M=Controls ACBP=A9
 0002:00000B84 00000020 C=DATA     S=.data    G=DGROUP   M=ImgList  ACBP=A9
 0002:00000BA4 000000EC C=DATA     S=.data    G=DGROUP   M=Menus    ACBP=A9
 0002:00000C90 0000011C C=DATA     S=.data    G=DGROUP   M=Forms    ACBP=A9
 0002:00000DAC 00000078 C=DATA     S=.data    G=DGROUP   M=superobject ACBP=A9
 0002:00002000 00000660 C=BSS      S=.bss     G=DGROUP   M=System   ACBP=A9
 0002:00002660 00000010 C=BSS      S=.bss     G=DGROUP   M=SysInit  ACBP=A9
 0002:00002670 00000004 C=BSS      S=.bss     G=DGROUP   M=Types    ACBP=A9
 0002:00002674 00000004 C=BSS      S=.bss     G=DGROUP   M=Windows  ACBP=A9
 0002:00002678 00000004 C=BSS      S=.bss     G=DGROUP   M=Messages ACBP=A9
 0002:0000267C 00000004 C=BSS      S=.bss     G=DGROUP   M=SysConst ACBP=A9
 0002:00002680 00000120 C=BSS      S=.bss     G=DGROUP   M=SysUtils ACBP=A9
 0002:000027A0 0000005C C=BSS      S=.bss     G=DGROUP   M=VarUtils ACBP=A9
 0002:000027FC 00000040 C=BSS      S=.bss     G=DGROUP   M=Variants ACBP=A9
 0002:0000283C 00000004 C=BSS      S=.bss     G=DGROUP   M=RTLConsts ACBP=A9
 0002:00002840 00000004 C=BSS      S=.bss     G=DGROUP   M=TypInfo  ACBP=A9
 0002:00002844 00000004 C=BSS      S=.bss     G=DGROUP   M=ActiveX  ACBP=A9
 0002:00002848 00000040 C=BSS      S=.bss     G=DGROUP   M=Classes  ACBP=A9
 0002:00002888 00000004 C=BSS      S=.bss     G=DGROUP   M=Consts   ACBP=A9
 0002:0000288C 00000060 C=BSS      S=.bss     G=DGROUP   M=Graphics ACBP=A9
 0002:000028EC 00000004 C=BSS      S=.bss     G=DGROUP   M=Math     ACBP=A9
 0002:000028F0 00000004 C=BSS      S=.bss     G=DGROUP   M=Contnrs  ACBP=A9
 0002:000028F4 00000004 C=BSS      S=.bss     G=DGROUP   M=CommCtrl ACBP=A9
 0002:000028F8 00000031 C=BSS      S=.bss     G=DGROUP   M=MultiMon ACBP=A9
 0002:0000292C 00000004 C=BSS      S=.bss     G=DGROUP   M=Imm      ACBP=A9
 0002:00002930 00000008 C=BSS      S=.bss     G=DGROUP   M=HelpIntfs ACBP=A9
 0002:00002938 00000004 C=BSS      S=.bss     G=DGROUP   M=WinSpool ACBP=A9
 0002:0000293C 00000004 C=BSS      S=.bss     G=DGROUP   M=Printers ACBP=A9
 0002:00002940 00000034 C=BSS      S=.bss     G=DGROUP   M=FlatSB   ACBP=A9
 0002:00002974 00000004 C=BSS      S=.bss     G=DGROUP   M=SyncObjs ACBP=A9
 0002:00002978 000000CC C=BSS      S=.bss     G=DGROUP   M=UxTheme  ACBP=A9
 0002:00002A44 00000004 C=BSS      S=.bss     G=DGROUP   M=RichEdit ACBP=A9
 0002:00002A48 00000004 C=BSS      S=.bss     G=DGROUP   M=ToolWin  ACBP=A9
 0002:00002A4C 00000004 C=BSS      S=.bss     G=DGROUP   M=ShellAPI ACBP=A9
 0002:00002A50 00000004 C=BSS      S=.bss     G=DGROUP   M=RegStr   ACBP=A9
 0002:00002A54 00000004 C=BSS      S=.bss     G=DGROUP   M=WinInet  ACBP=A9
 0002:00002A58 00000004 C=BSS      S=.bss     G=DGROUP   M=UrlMon   ACBP=A9
 0002:00002A5C 00000004 C=BSS      S=.bss     G=DGROUP   M=ShlObj   ACBP=A9
 0002:00002A60 00000004 C=BSS      S=.bss     G=DGROUP   M=CommDlg  ACBP=A9
 0002:00002A64 00000004 C=BSS      S=.bss     G=DGROUP   M=Dlgs     ACBP=A9
 0002:00002A68 0000000C C=BSS      S=.bss     G=DGROUP   M=Dialogs  ACBP=A9
 0002:00002A74 00000004 C=BSS      S=.bss     G=DGROUP   M=ExtCtrls ACBP=A9
 0002:00002A78 00000004 C=BSS      S=.bss     G=DGROUP   M=ComStrs  ACBP=A9
 0002:00002A7C 0000000C C=BSS      S=.bss     G=DGROUP   M=Clipbrd  ACBP=A9
 0002:00002A88 00000004 C=BSS      S=.bss     G=DGROUP   M=StrUtils ACBP=A9
 0002:00002A8C 00000030 C=BSS      S=.bss     G=DGROUP   M=Buttons  ACBP=A9
 0002:00002ABC 00000004 C=BSS      S=.bss     G=DGROUP   M=ExtDlgs  ACBP=A9
 0002:00002AC0 00000004 C=BSS      S=.bss     G=DGROUP   M=IniFiles ACBP=A9
 0002:00002AC4 00000004 C=BSS      S=.bss     G=DGROUP   M=Registry ACBP=A9
 0002:00002AC8 00000004 C=BSS      S=.bss     G=DGROUP   M=Mapi     ACBP=A9
 0002:00002ACC 00000009 C=BSS      S=.bss     G=DGROUP   M=ExtActns ACBP=A9
 0002:00002AD8 00000004 C=BSS      S=.bss     G=DGROUP   M=ListActns ACBP=A9
 0002:00002ADC 00000010 C=BSS      S=.bss     G=DGROUP   M=ComCtrls ACBP=A9
 0002:00002AEC 00000008 C=BSS      S=.bss     G=DGROUP   M=Themes   ACBP=A9
 0002:00002AF4 00000004 C=BSS      S=.bss     G=DGROUP   M=StdCtrls ACBP=A9
 0002:00002AF8 00000004 C=BSS      S=.bss     G=DGROUP   M=StdActns ACBP=A9
 0002:00002AFC 00000014 C=BSS      S=.bss     G=DGROUP   M=WinHelpViewer ACBP=A9
 0002:00002B10 00000080 C=BSS      S=.bss     G=DGROUP   M=Controls ACBP=A9
 0002:00002B90 00000004 C=BSS      S=.bss     G=DGROUP   M=ActnList ACBP=A9
 0002:00002B94 0000000C C=BSS      S=.bss     G=DGROUP   M=ImgList  ACBP=A9
 0002:00002BA0 00000010 C=BSS      S=.bss     G=DGROUP   M=Menus    ACBP=A9
 0002:00002BB0 00000020 C=BSS      S=.bss     G=DGROUP   M=Forms    ACBP=A9
 0002:00002BD0 00000004 C=BSS      S=.bss     G=DGROUP   M=PPSDK    ACBP=A9
 0002:00002BD4 00000004 C=BSS      S=.bss     G=DGROUP   M=WinSock  ACBP=A9
 0002:00002BD8 00000004 C=BSS      S=.bss     G=DGROUP   M=superobject ACBP=A9
 0002:00002BDC 00000008 C=BSS      S=.bss     G=DGROUP   M=PPDemo_Unt ACBP=A9


  Address         Publics by Name

 0002:00002B04       .1
 0002:00002AC8       .1
 0002:00002678       .1
 0002:0000267C       .1
 0002:00002A88       .1
 0002:00002A78       .1
 0002:00002A64       .1
 0002:00002BD4       .1
 0002:00002A60       .1
 0002:00002BD0       .1
 0002:00002A5C       .1
 0002:0000283C       .1
 0002:00002A58       .1
 0002:00002670       .1
 0002:00002A54       .1
 0002:00002A50       .1
 0002:00002668       .1
 0002:00002A4C       .1
 0002:00002888       .1
 0002:00002A44       .1
 0002:00002A34       .1
 0002:00002960       .1
 0002:000028F4       .1
 0002:0000292C       .1
 0002:00002918       .1
 0002:00002A68       .11
 0002:00002A74       .12
 0002:00002890       .12
 0002:00002BE0       .2
 0002:000028EC       .2
 0002:00002A80       .2
 0002:00002930       .2
 0002:00002AEC       .2
 0002:000028F0       .21
 0002:00002B94       .3
 0002:00002674       .3
 0002:00002ABC       .3
 0002:0000293C       .3
 0002:00002938       .3
 0002:00002844       .3
 0002:00002790       .35
 0002:00002ADC       .36
 0002:00002A8C       .4
 0002:00002A48       .4
 0002:00002BB8       .41
 0002:00002AF4       .42
 0002:00002854       .45
 0002:000027F8       .5
 0002:000025B8       .5
 0002:00002AC4       .5
 0002:00002840       .6
 0002:00002974       .6
 0002:00002B18       .72
 0002:00002ACC       .72
 0002:00002AF8       .73
 0002:00002AC0       .8
 0002:00002B90       .8
 0002:00002AD8       .8
 0002:0000281C       .81
 0002:00002BD8       .81
 0002:00002BA8       .9
 0001:00001A88       @AbstractError
 0001:000026AC       @AfterConstruction
 0001:000024F8       @AsClass
 0001:00001BF0       @AStrCmp
 0001:000026BC       @BeforeDestruction
 0001:00002544       @CallDynaInst
 0001:00002654       @ClassCreate
 0001:000026A4       @ClassDestroy
 0001:00001AF8       @Close
 0001:00001864       @Copy
 0001:00003DF0       @CopyArray
 0001:00003CD4       @CopyRecord
 0001:00003EE4       @DispCallByIDError
 0001:0000EC2C       @DispInvokeError
 0001:00002B38       @DoneExcept
 0001:00004518       @DynArrayAsg
 0001:000044DC       @DynArrayClear
 0001:0000431C       @DynArrayHigh
 0001:00004314       @DynArrayLength
 0001:000044D0       @DynArraySetLength
 0001:00002C20       @ExceptionHandler
 0001:00001C60       @FillChar
 0001:00003CB0       @Finalize
 0001:00003BC4       @FinalizeArray
 0001:00003B78       @FinalizeRecord
 0001:00002284       @FpuInit
 0001:000021C0       @FpuMaskInit
 0001:000016EC       @FreeMem
 0001:000016CC       @GetMem
 0001:000052B8       @GetTls
 0001:00003068       @Halt
 0001:00002F90       @Halt0
 0001:000027D0       @HandleAnyException
 0001:00002A84       @HandleFinally
 0001:000028FC       @HandleOnException
 0001:00005304       @InitExe
 0001:00003AE4       @InitializeArray
 0001:00003AB4       @InitializeRecord
 0001:00002E54       @InitImports
 0001:00002E2C       @InitResStringImports
 0001:00002E08       @InitResStrings
 0001:00004BFC       @IntfAddRef
 0001:00004BCC       @IntfCast
 0001:00004B88       @IntfClear
 0001:00004BA0       @IntfCopy
 0001:000024D4       @IsClass
 0001:00002190       @isNECWindows
 0001:00003530       @LStrAddRef
 0001:000030A4       @LStrArrayClr
 0001:000030D4       @LStrAsg
 0001:00003348       @LStrCat
 0001:0000338C       @LStrCat3
 0001:00003400       @LStrCatN
 0001:00003080       @LStrClr
 0001:0000348C       @LStrCmp
 0001:000035A0       @LStrCopy
 0001:000035E0       @LStrDelete
 0001:000032F0       @LStrFromArray
 0001:00003268       @LStrFromChar
 0001:00003278       @LStrFromPChar
 0001:00003170       @LStrFromPCharLen
 0001:000032A8       @LStrFromPWChar
 0001:000031DC       @LStrFromPWCharLen
 0001:000032E4       @LStrFromString
 0001:00003308       @LStrFromWStr
 0001:00003628       @LStrInsert
 0001:00003118       @LStrLAsg
 0001:00003340       @LStrLen
 0001:00003684       @LStrPos
 0001:000036CC       @LStrSetLength
 0001:00003540       @LStrToPChar
 0001:0000331C       @LStrToString
 0001:00003144       @NewAnsiString
 0001:00003738       @NewWideString
 0001:00001EA4       @Pow10
 0001:00001B6C       @PStrCmp
 0001:00001B50       @PStrNCpy
 0001:00002AE4       @RaiseAgain
 0001:00002ABC       @RaiseExcept
 0001:0000170C       @ReallocMem
 0001:00001A7C       @ROUND
 0001:00003074       @RunError
 0001:00001D84       @SetEq
 0001:00001A54       @SetLength
 0001:00002DC8       @StartExe
 0001:000040C8       @Str0Int64
 0001:00004008       @StrInt64
 0001:000002AC       @strlen
 0001:00002B68       @TryFinallyExit
 0001:00003598       @UniqueStringA
 0001:00001D98       @ValExt
 0001:000040E4       @ValInt64
 0001:00001C80       @ValLong
 0001:00010324       @VarAddRef
 0001:0000EF18       @VarClear
 0001:0000EF2C       @VarClr
 0001:00003BAC       @VarClr
 0001:0000F240       @VarCopy
 0001:00003CBC       @VarCopy
 0001:0001025C       @VarFromBool
 0001:000102AC       @VarFromCurr
 0001:000101F4       @VarFromInt
 0001:00010230       @VarFromInt64
 0001:000102C0       @VarFromLStr
 0001:00010284       @VarFromReal
 0001:00010298       @VarFromTDateTime
 0001:000102EC       @VarFromWStr
 0001:0000EC80       @VarNull
 0001:0000F56C       @VarToLStr
 0001:0000FC94       @VarToWStr
 0001:00003A94       @WStrAddRef
 0001:00003778       @WStrArrayClr
 0001:0000379C       @WStrAsg
 0001:000038D8       @WStrCat
 0001:00003938       @WStrCatN
 0001:00003760       @WStrClr
 0001:00003980       @WStrCmp
 0001:00003A04       @WStrCopy
 0001:000038AC       @WStrFromLStr
 0001:000037C0       @WStrFromPCharLen
 0001:00003870       @WStrFromPWChar
 0001:0000384C       @WStrFromPWCharLen
 0001:000038CC       @WStrLen
 0001:00003A50       @WStrSetLength
 0001:000038BC       @WStrToPWChar
 0001:00001D60       @_CLenToPasStr
 0001:00001D54       @_CToPasStr
 0001:00001834       @_IOTest
 0001:00003F10       @_lldiv
 0001:00003F8C       @_llmod
 0001:00003EEC       @_llmul
 0001:000317B4       AbsMin
 0001:0000B800       AbstractErrorHandler
 0002:00002028       AbstractErrorProc
 0002:00000148       AccessMode
 0001:0000179C       AcquireExceptionObject
 0001:00013C64       ActivateClassGroup
 0001:00005900       ActivateKeyboardLayout
 0002:00002B4C       ActiveDrag
 0001:00011628       ActiveX
 0001:00044DE8       ActnList
 0001:000003D8       AddBlockAfter
 0002:000003BC       AddDataModule
 0001:000070F0       AddExitProc
 0001:00017AC4       AddFinished
 0001:0004881C       AddIn
 0001:00004A1C       AddModuleUnloadProc
 0001:00004A2C       AddModuleUnloadProc
 0001:00017B00       AddNotFinished
 0001:00018714       AddSubComponentsToLoaded
 0001:00020BC8       AdjustColor
 0001:00007448       AdjustLineBreaks
 0001:00050B40       Adjustment
 0001:00005908       AdjustWindowRectEx
 0002:00000A10       Alignments
 0002:00000C68       Alignments
 0002:00000C78       Alignments
 0001:0003878C       AlignWork
 0001:000595F0       AlignWork
 0001:0001C870       AllocateHWnd
 0001:00007084       AllocMem
 0002:000025B0       AllocMemCount
 0002:000025B4       AllocMemSize
 0001:000251EC       AllocPatternBitmap
 0001:00005260       AllocTlsBuffer
 0002:00000A54       AnchorAlign
 0002:00000A48       AnimateWindowProc
 0002:00000B50       AnimationStyle
 0001:000072E0       AnsiCompareStr
 0001:0000732C       AnsiCompareText
 0001:00007C2C       AnsiLastChar
 0001:00005910       AnsiLower
 0001:0000C308       AnsiPos
 0001:0004E108       AnsiSameCaption
 0001:00007378       AnsiSameText
 0001:0000739C       AnsiStrLIComp
 0001:0000C354       AnsiStrPos
 0001:0000C42C       AnsiStrRScan
 0001:0000C47C       AnsiStrScan
 0001:00004FFC       AnsiToUtf8
 0001:000093C0       AppendChars
 0001:000097E0       AppendFormat
 0001:00009444       AppendNumber
 0001:00009420       AppendString
 0002:00002BB0       Application
 0002:000003CC       ApplicationHandleException
 0002:000003D4       ApplicationShowException
 0002:00000DA4       AppVisible
 0001:0000B7C8       AssertErrorHandler
 0002:00002020       AssertErrorProc
 0001:00010FCC       AssignLongStr
 0001:00011434       AssignVariant
 0002:00002608       avail
 0001:00007DB0       BackfillGetDiskFreeSpaceEx
 0001:00035100       BackgroundClipped
 0001:0000DBDC       BackupVarBoolFromStr
 0001:0000DD58       BackupVarBStrFromBool
 0001:0000DC60       BackupVarBStrFromCy
 0001:0000DCDC       BackupVarBStrFromDate
 0001:0000DB68       BackupVarCyFromStr
 0001:0000DAF4       BackupVarDateFromStr
 0001:0000D998       BackupVarI4FromStr
 0001:0000D924       BackupVariantChangeTypeEx
 0001:0000DA0C       BackupVarR4FromStr
 0001:0000DA80       BackupVarR8FromStr
 0001:00014090       BeginGlobalLoading
 0001:00005918       BeginPaint
 0001:00020BF0       BetterSize
 0001:000497B4       BiDiDraw
 0001:00005750       BitBlt
 0002:00000914       BitBtnCaptions
 0002:00002A90       BitBtnGlyphs
 0002:000006D8       BitmapCanvasList
 0002:000028A8       BitmapImageLock
 0001:0000D970       BiUnimplemented
 0002:000003F4       BlockCode
 0002:000025E0       blockDescBlockList
 0002:000025E4       blockDescFreeList
 0002:000003B0       BooleanIdents
 0002:0000032C       BooleanToStringRule
 0001:00007A4C       BoolToStr
 0001:0000F2F4       BoolToWStrViaOS
 0002:000009D8       BorderStyles
 0001:00012CCC       Bounds
 0001:000053DC       Bounds
 0002:00000C10       Breaks
 0002:000028E0       BrushManager
 0001:0004C93C       BuildImage
 0002:00000770       ButtonCaptions
 0002:00000744       ButtonNames
 0002:00000C8C       Buttons
 0001:00029664       Buttons
 0002:00000A40       ButtonStyles
 0001:00020264       BytesPerScanline
 0001:00020690       ByteSwapColors
 0001:0000BFEC       ByteToCharIndex
 0001:0000BFB0       ByteToCharLen
 0001:0000BF4C       ByteType
 0001:0000BEA0       ByteTypeTest
 0002:00002B98       CachedComCtrlVer
 0001:0001C738       CalcJmpOffset
 0001:00042610       CalcSplitterPos
 0001:00005920       CallNextHookEx
 0001:0000CC08       CallTerminateProcs
 0001:00005928       CallWindowProc
 0001:00032A80       CancelDrag
 0002:000028E4       CanvasList
 0002:00002B60       CanvasList
 0002:00000730       Captions
 0002:00000B0C       CaptureControl
 0002:00000BB0       cBooleanToItemAutoFlag
 0002:00002A7E       CF_COMPONENT
 0002:00002A7C       CF_PICTURE
 0002:00002814       ChangeAnyProc
 0002:000009F0       CharCases
 0001:000031A0       CharFromWChar
 0001:0000C264       CharLength
 0001:0000022C       CharNext
 0001:00005930       CharNext
 0001:0001E630       CharsetToIdent
 0001:0000C128       CharToByteIndex
 0001:0000C1A0       CharToByteLen
 0001:00005938       CharToOemA
 0001:000212AC       CheckBool
 0001:00063158       CheckEnum
 0001:0000274C       CheckJmp
 0001:000632E4       CheckLength
 0001:00005940       CheckMenuItem
 0001:0006356C       CheckRange
 0002:00000C00       Checks
 0001:00018760       CheckSubComponents
 0001:0001ADE4       CheckSynchronize
 0001:00050410       CheckTaskWindow
 0001:00032704       CheckUndock
 0001:0000BD74       CheckWin32Version
 0002:00000330       CInvalidCustomVariantType
 0002:00000BB4       cItemAutoFlagToBoolean
 0002:00000BAC       cItemAutoFlagToMenu
 0001:0001CA14       Classes
 0001:00013A00       ClassNotFound
 0002:00002810       ClearAnyProc
 0001:0001DE10       ClearColor
 0001:00010660       ClearVariantTypeList
 0001:00005948       ClientToScreen
 0001:0003EFB4       ClientToWindow
 0002:000006D0       ClipboardFormats
 0001:000294F4       Clipbrd
 0001:00005538       CloseHandle
 0002:0000297C       CloseThemeData
 0002:0000203C       CmdLine
 0002:00002038       CmdShow
 0002:00000BA8       cMenuAutoFlagToItem
 0001:0000D984       CmpUnimplemented
 0002:00000450       Colors
 0001:0001E3C8       ColorToIdent
 0002:0000079C       ColorToPretyName
 0001:0001E398       ColorToRGB
 0002:00002AE8       ComCtlVersion
 0001:00029A4C       ComCtrls
 0002:00002BAC       CommandPool
 0001:00025914       CommCtrl
 0001:000285F0       CommDlg
 0001:000006B8       Commit
 0002:00002624       committedRoot
 0001:00047B80       CompareFront
 0001:00007248       CompareMem
 0001:00007218       CompareStr
 0001:00005540       CompareString
 0001:00007268       CompareText
 0001:00007950       CompareWith
 0001:00018870       ComponentCreated
 0001:000294B0       ComStrs
 0001:0001CD38       Consts
 0001:00025804       Contnrs
 0002:00002B1E       ControlAtom
 0002:00002B24       ControlAtomString
 0001:00056520       ControlHasHelp
 0001:0004347C       Controls
 0001:0000B148       ConvertAddr
 0001:00009544       ConvertEraString
 0001:00007034       ConvertError
 0001:00007054       ConvertErrorFmt
 0001:000096C8       ConvertYearString
 0001:00004324       CopyArray
 0001:00021FA4       CopyBitmap
 0001:0002268C       CopyBitmapAsMask
 0001:00022614       CopyPalette
 0002:00000974       Copyright
 0001:0004B6AC       CopyToBest
 0001:0000C070       CountChars
 0002:000028C0       CounterLock
 0002:00000334       CRangeToType
 0001:0000B700       CreateAssertException
 0001:0000B8FC       CreateAVObject
 0001:00005758       CreateBitmap
 0001:00005760       CreateBrushIndirect
 0001:00005768       CreateCompatibleBitmap
 0001:00005770       CreateCompatibleDC
 0001:00018904       CreateComponent
 0001:00005780       CreateDIBitmap
 0001:00005778       CreateDIBSection
 0001:00005548       CreateEvent
 0001:00005550       CreateFile
 0001:00005788       CreateFontIndirect
 0001:00005790       CreateHalftonePalette
 0001:00005950       CreateIcon
 0001:0000B5EC       CreateInOutError
 0001:00005958       CreateMenu
 0001:00005798       CreatePalette
 0001:000057A0       CreatePenIndirect
 0001:00005960       CreatePopupMenu
 0001:000057A8       CreateSolidBrush
 0001:000206E8       CreateSystemPalette
 0001:00005558       CreateThread
 0001:00005F78       CreateWindow
 0001:00005F14       CreateWindowEx
 0002:00000A4C       CreationControl
 0002:00000728       CreationControl
 0002:0000039C       CRelationshipToBoolean
 0002:00000318       CResult
 0002:00000140       cSimpleBoolStrs
 0002:00000348       CText
 0002:00000B48       Ctl3DStyles
 0002:0000261C       curAlloc
 0002:00002688       CurrencyDecimals
 0002:00002684       CurrencyFormat
 0002:00002680       CurrencyString
 0001:000093A0       CurrentYear
 0001:0005DB78       CurrToJson
 0001:00008DA0       CurrToStr
 0001:0000F284       CurrToWStrViaOS
 0002:00000D28       CursorMap
 0002:00000A5C       Cursors
 0001:00030DB8       CursorToIdent
 0002:00000D18       cUseAlpha
 0002:00000D20       cUseColorKey
 0001:00007698       CvtInt
 0001:00007704       CvtInt64
 0002:00000180       CWNear
 0001:000681A0       D7_PP
 0002:00002689       DateSeparator
 0001:0000A054       DateTimeToStr
 0001:00009FE8       DateTimeToString
 0001:00008E90       DateTimeToTimeStamp
 0001:0000F2BC       DateToWStrViaOS
 0001:00009328       DayOfWeek
 0002:0000017C       DCon10
 0002:0000044C       DDBsOnly
 0001:0001C92C       DeallocateHWnd
 0002:00000028       DebugHook
 0002:00002687       DecimalSeparator
 0001:000092F8       DecodeDate
 0001:0000917C       DecodeDateFully
 0001:00008F98       DecodeTime
 0001:0000074C       Decommit
 0001:00000D68       DecommitFree
 0002:000025F8       decommittedRoot
 0001:0005A4B0       Default
 0001:000537C8       Default
 0002:00000020       Default8087CW
 0002:00000A50       DefaultDockTreeClass
 0002:000025BC       DefaultUserCodePage
 0002:000006A0       DefBrushData
 0002:00000420       DefFontData
 0001:00005968       DefFrameProc
 0002:0000020C       DefLongDayNames
 0002:000001C0       DefLongMonthNames
 0001:00005970       DefMDIChildProc
 0002:00000680       DefPenData
 0002:000001F0       DefShortDayNames
 0002:00000190       DefShortMonthNames
 0001:00005978       DefWindowProc
 0001:00004570       DelayLoadResourceModule
 0001:00000408       DeleteBlock
 0001:00005560       DeleteCriticalSection
 0001:00000378       DeleteCriticalSection
 0001:000057B0       DeleteDC
 0001:00000BB0       DeleteFree
 0001:00005980       DeleteMenu
 0001:000057B8       DeleteObject
 0001:00021A44       DeselectBitmap
 0001:00005988       DestroyCursor
 0001:00005990       DestroyIcon
 0001:00029588       DestroyLocals
 0001:00005998       DestroyMenu
 0001:000059A0       DestroyWindow
 0001:0002E6AC       DialogEnumerationTester
 0001:00028D38       Dialogs
 0002:000006DC       DIBPalSizes
 0002:00000094       dig
 0001:000501FC       DisableTaskWindows
 0001:000059A8       DispatchMessage
 0001:00057B28       DispatchShortCut
 0002:00002000       DispCallByIDProc
 0001:00007018       DivMod
 0001:00028628       Dlgs
 0001:000385F0       DoAlign
 0001:00059474       DoAlign
 0001:0003DA78       DoCalcConstraints
 0002:00002B54       DockSiteList
 0001:0004C5B0       DoClick
 0001:0003A2F4       DoControlMsg
 0001:0005018C       DoDisableWindow
 0001:00031F28       DoDragOver
 0001:0005E14C       DoEscape
 0001:000070AC       DoExitProc
 0001:0004011C       DoFindControlZone
 0001:00050308       DoFindWindow
 0001:00040934       DoFindZone
 0001:000401C0       DoForEach
 0001:000421A8       DoGetNextLimit
 0001:0005E46C       DoMinimalEscape
 0001:00050150       DoneApplication
 0001:000431BC       DoneControls
 0001:0000BC70       DoneExceptions
 0001:000558CC       DoNestedActivation
 0001:0001AD94       DoneThreadSynchronization
 0001:00059270       DoPosition
 0001:000381A0       DoPosition
 0001:000414DC       DoPrune
 0001:00041B84       DoSaveZone
 0001:00041DC0       DoSetNewBounds
 0002:000003B8       DotSep
 0001:00046104       DoWrite
 0001:00015310       DoWrite
 0001:00021554       DoWrite
 0001:00039644       DoWriteDesignSize
 0001:00036708       DoWriteIsControl
 0002:00002B38       DragCapture
 0002:00002B2C       DragControl
 0001:00032784       DragDone
 0001:00031EBC       DragFindTarget
 0001:00031E78       DragFindWindow
 0002:00002B50       DragImageList
 0001:00032378       DragInit
 0001:00032520       DragInitControl
 0002:00002B34       DragInternalObject
 0001:00031D98       DragMessage
 0002:00002B30       DragObject
 0002:00002B5C       DragSave
 0002:00002B44       DragSaveCursor
 0002:00002B3C       DragStartPos
 0002:00002B48       DragThreshold
 0001:00032048       DragTo
 0001:0005A4EC       DrawAppIcon
 0001:00040FA8       DrawCloseButton
 0001:000059B0       DrawEdge
 0001:000059B8       DrawFrameControl
 0001:00041000       DrawGrabberLine
 0001:000059C0       DrawIcon
 0001:000059C8       DrawIconEx
 0002:00000B84       DrawingStyles
 0001:000059D0       DrawMenuBar
 0001:0004DE9C       DrawMenuItem
 0001:000059D8       DrawText
 0002:00002980       DrawThemeBackground
 0002:000029A4       DrawThemeEdge
 0002:000029A8       DrawThemeIcon
 0002:00002A2C       DrawThemeParentBackground
 0002:00002984       DrawThemeText
 0001:000200BC       DupBits
 0001:0000433C       DynArrayClear
 0001:00004344       DynArraySetLength
 0002:00000C70       EdgeStyle
 0002:00000B38       EdgeStyles
 0001:0000B5B0       EHeapException.FreeInstance
 0002:00000A0C       Empty
 0002:000027FC       EmptyParam
 0002:000000C4       EmptyStr
 0002:000000C8       EmptyWideStr
 0001:000059E0       EnableMenuItem
 0002:00000C08       Enables
 0001:000059E8       EnableScrollBar
 0001:000502B4       EnableTaskWindows
 0002:00002A14       EnableThemeDialogTexture
 0002:00002A30       EnableTheming
 0001:000059F0       EnableWindow
 0001:00009140       EncodeDate
 0001:00008F54       EncodeTime
 0001:00014140       EndGlobalLoading
 0001:000059F8       EndPaint
 0002:00000E1C       ENDSTR_A
 0002:00000E20       ENDSTR_B
 0001:00005568       EnterCriticalSection
 0001:00000368       EnterCriticalSection
 0001:00005570       EnumCalendarInfoA
 0002:00002914       EnumDisplayMonitors
 0001:0000AD08       EnumEraNames
 0001:0000AD54       EnumEraYearOffsets
 0001:00053ED8       EnumMonitorsProc
 0001:00005A00       EnumThreadWindows
 0001:00017EF0       EnumValue
 0001:00005A08       EnumWindows
 0001:00005A10       EqualRect
 0002:00002750       EraNames
 0001:0000A3A4       EraToYear
 0002:0000276C       EraYearOffsets
 0002:0000006C       errCaption
 0001:00017520       Error
 0001:00001828       Error
 0001:00047888       Error
 0001:000134D0       Error
 0002:00000004       ErrorAddr
 0001:000017DC       ErrorAt
 0001:0000B690       ErrorHandler
 0002:00000228       ErrorMap
 0002:00002008       ErrorProc
 0002:000023E4       ErrOutput
 0002:00000DB0       ESC_BS
 0002:00000DB8       ESC_CR
 0002:00000DC0       ESC_FF
 0002:00000DB4       ESC_LF
 0002:00000DC4       ESC_QUOT
 0002:00000DC8       ESC_SL
 0002:00000DCC       ESC_SR
 0002:00000DBC       ESC_TAB
 0002:00000DD0       ESC_ZERO
 0001:0000177C       ExceptAddr
 0002:0000200C       ExceptClsProc
 0001:0000BBC0       ExceptHandler
 0001:0000B3EC       Exception.Create
 0001:0000B434       Exception.CreateFmt
 0001:0000B4C4       Exception.CreateRes
 0001:0000B50C       Exception.CreateResFmt
 0002:0000201C       ExceptionClass
 0001:0000B158       ExceptionErrorMessage
 0002:00000260       ExceptMap
 0001:0000175C       ExceptObject
 0002:00002010       ExceptObjProc
 0002:00002004       ExceptProc
 0001:000057C0       ExcludeClipRect
 0002:00000000       ExitCode
 0001:00002ED4       ExitDll
 0002:00002044       ExitProc
 0001:00000234       ExitProcess
 0002:00002024       ExitProcessProc
 0002:0000013C       ExitProcList
 0001:00007D6C       ExpandFileName
 0001:00029854       ExtActns
 0001:00029450       ExtCtrls
 0001:000296BC       ExtDlgs
 0001:00007D28       ExtractFileName
 0001:00007CE8       ExtractFilePath
 0002:0000278C       FalseBoolStrs
 0002:00002A84       FClipboard
 0002:00000170       FCon1E18
 0001:00007C18       FileClose
 0001:00007B18       FileCreate
 0001:00007B4C       FileCreate
 0002:000006D4       FileFormats
 0002:00000008       FileMode
 0001:00007AA8       FileOpen
 0001:00007B6C       FileRead
 0002:000003E4       FilerSignature
 0001:00007BDC       FileSeek
 0001:00007BA4       FileWrite
 0001:00000C98       FillAfterGap
 0001:00000C44       FillBeforeGap
 0001:00000D30       FillerSizeAfterGap
 0001:00000CC0       FillerSizeBeforeGap
 0001:00005A18       FillRect
 0001:0004E210       Finalization
 0001:00066E3C       Finalization
 0001:0002778C       Finalization
 0001:00028470       Finalization
 0001:0001C964       Finalization
 0001:0001CD08       Finalization
 0001:0002741C       Finalization
 0001:00028438       Finalization
 0001:0005CCC8       Finalization
 0001:000283C4       Finalization
 0001:000115F8       Finalization
 0001:000115A0       Finalization
 0001:000257D4       Finalization
 0001:0000E148       Finalization
 0001:000284A8       Finalization
 0001:0005CD98       Finalization
 0001:0002545C       Finalization
 0001:0002E9AC       Finalization
 0001:00005348       Finalization
 0001:0005CDD8       Finalization
 0001:00006444       Finalization
 0001:00006124       Finalization
 0001:00044DB8       Finalization
 0001:000060EC       Finalization
 0001:0002DB98       Finalization
 0001:00005118       Finalization
 0001:0002DA1C       Finalization
 0001:0002A5F0       Finalization
 0001:000299D4       Finalization
 0001:000468D0       Finalization
 0001:00043414       Finalization
 0001:000284E0       Finalization
 0001:00025234       Finalization
 0001:00029860       Finalization
 0001:00028518       Finalization
 0001:00028550       Finalization
 0001:00028588       Finalization
 0001:00029804       Finalization
 0001:000297A8       Finalization
 0001:00029744       Finalization
 0001:000273E4       Finalization
 0001:0000D704       Finalization
 0001:0000541C       Finalization
 0001:00010CB8       Finalization
 0001:000258E4       Finalization
 0001:00026158       Finalization
 0001:00067F80       Finalization
 0001:00067F48       Finalization
 0001:000296DC       Finalization
 0001:0002619C       Finalization
 0001:0002968C       Finalization
 0001:0002962C       Finalization
 0001:00027398       Finalization
 0001:00010AAC       Finalization
 0001:00029550       Finalization
 0001:000294B8       Finalization
 0001:0002799C       Finalization
 0001:00029480       Finalization
 0001:00029408       Finalization
 0001:00028CDC       Finalization
 0001:000285F8       Finalization
 0001:000285C0       Finalization
 0001:00004334       FinalizeArray
 0001:00002D08       FinalizeUnits
 0001:0004C290       Find
 0001:000045E0       FindBS
 0001:00013AC8       FindClass
 0001:00004568       FindClassHInstance
 0001:00000244       FindClose
 0001:00000C14       FindCommitted
 0001:00030B60       FindControl
 0001:00040BAC       FindControlAtPos
 0001:000109BC       FindCustomVariantType
 0001:00010904       FindCustomVariantType
 0001:00062878       FindDataType
 0001:00032AE8       FindDragTarget
 0001:00018AB8       FindExistingComponent
 0001:0000024C       FindFirstFile
 0001:00013F5C       FindGlobalComponent
 0001:00050470       FindGlobalComponent
 0002:00002860       FindGlobalComponentProcs
 0001:00004540       FindHInstance
 0001:00013DAC       FindIdentToInt
 0001:00062B00       FindInheritedField
 0001:00062730       FindInheritedProperty
 0002:00002A70       FindMsg
 0001:000179BC       FindNestedComponent
 0001:00047838       FindPopupControl
 0001:0000DDF8       FindProc
 0001:00005578       FindResource
 0001:000045B8       FindResourceHInstance
 0001:0005C3E8       FindScanline
 0001:00050380       FindTopMostWindow
 0001:00019A54       FindUniqueName
 0001:00032A98       FindVCLWindow
 0001:00005A20       FindWindow
 0001:0002E710       FindWinHelp
 0001:00021F34       FixupBitFields
 0002:00000C80       Flags
 0002:0000279C       FLanguages
 0001:000277BC       FlatSB
 0002:00002940       FlatSB_EnableScrollBar
 0002:0000294C       FlatSB_GetScrollInfo
 0002:00002950       FlatSB_GetScrollPos
 0002:00002948       FlatSB_GetScrollRange
 0002:00002958       FlatSB_SetScrollInfo
 0002:00002954       FlatSB_SetScrollPos
 0001:00027464       FlatSB_SetScrollProp
 0002:0000295C       FlatSB_SetScrollRange
 0002:00002944       FlatSB_ShowScrollBar
 0001:00008A30       FloatToDecimal
 0001:0005DAD8       FloatToJson
 0001:00008D70       FloatToStr
 0001:0000875C       FloatToText
 0001:00001AEC       Flush
 0002:00000184       FMSecsPerDay
 0001:0000863C       FmtStr
 0002:00000C9C       FocusCount
 0002:00000C98       FocusMessages
 0002:000005F0       FontCharsets
 0002:000028D8       FontManager
 0001:0005043C       ForegroundTask
 0001:00008614       Format
 0002:0000018C       Format
 0001:000081E8       FormatBuf
 0001:000081D4       FormatClearStr
 0001:0000A070       FormatDateTime
 0001:00008134       FormatError
 0002:00000168       FormatErrorStrs
 0001:00005580       FormatMessage
 0001:0000819C       FormatVarToStr
 0001:0005CD24       Forms
 0001:00001E9C       FPower10
 0002:00000724       FPrinter
 0001:00005A28       FrameRect
 0001:0000D2A4       FreeAndNil
 0001:00000980       FreeCommitted
 0001:00000EA0       FreeCurAlloc
 0001:00032BF4       FreeDeviceContext
 0001:00032CB0       FreeDeviceContexts
 0001:0001C688       FreeIntConstList
 0001:00005588       FreeLibrary
 0001:00000254       FreeLibrary
 0001:00021998       FreeMemoryContexts
 0001:0001C83C       FreeObjectInstance
 0001:000055A8       FreeResource
 0001:00000600       FreeSpace
 0001:0000CC44       FreeTerminateProcs
 0001:000279D4       FreeThemeLibrary
 0002:00002AE4       FRichEditModule
 0001:00020098       GDICheck
 0001:0001FFEC       GDIError
 0001:00001A74       Get8087CW
 0001:000055B0       GetACP
 0001:00005A30       GetActiveWindow
 0001:000599F4       GetAnimation
 0001:000057C8       GetBitmapBits
 0001:00000380       GetBlockDesc
 0001:000057D0       GetBrushOrgEx
 0001:00005A38       GetCapture
 0001:00030EB0       GetCaptureControl
 0001:00013A70       GetClass
 0001:00005A40       GetClassInfo
 0001:00005A48       GetClassName
 0001:00005A50       GetClientRect
 0001:000057D8       GetClipBox
 0001:0000031C       GetCmdShow
 0001:00044FA8       GetColor
 0001:00029938       GetComCtlVersion
 0001:0000025C       GetCommandLine
 0001:000007CC       GetCommitted
 0001:0000085C       GetCommittedAt
 0001:00039D8C       GetControlAtPos
 0001:00009494       GetCount
 0001:000055B8       GetCPInfo
 0001:000057E0       GetCurrentPositionEx
 0001:000055C0       GetCurrentProcessId
 0002:00002A24       GetCurrentThemeName
 0001:0000030C       GetCurrentThreadId
 0001:000055C8       GetCurrentThreadId
 0001:00005E08       GetCurrentTime
 0001:00005A58       GetCursor
 0001:0005C3FC       GetCursorHeightMargin
 0001:00005A60       GetCursorPos
 0001:000094CC       GetDate
 0001:000055D0       GetDateFormat
 0001:0000A270       GetDateOrder
 0001:000647F8       GetDblCompResult
 0001:00005A68       GetDC
 0001:00005A70       GetDCEx
 0001:000057E8       GetDCOrgEx
 0001:00024DA4       GetDefFontCharSet
 0001:00005A78       GetDesktopWindow
 0001:00005800       GetDeviceCaps
 0001:00021278       GetDIB
 0001:000057F0       GetDIBColorTable
 0001:000057F8       GetDIBits
 0001:00021194       GetDIBSizes
 0001:00020228       GetDInColors
 0001:000055D8       GetDiskFreeSpaceA
 0002:00000138       GetDiskFreeSpaceEx
 0001:000422B8       GetDockAlign
 0001:00031BC4       GetDockSiteAtPos
 0001:00031F78       GetDropCtl
 0001:00002514       GetDynaMethod
 0001:00010D28       GetEnumNameValue
 0001:00010D74       GetEnumValue
 0001:0000ADE0       GetEraNamesAndYearOffsets
 0001:0000A340       GetEraYearOffset
 0001:0000B8D0       GetExceptionClass
 0001:0000BAE0       GetExceptionObject
 0001:000139F4       GetFieldClassTable
 0001:0000BDB0       GetFileVersion
 0001:00005738       GetFileVersionInfo
 0001:00005740       GetFileVersionInfoSize
 0001:00005A80       GetFocus
 0001:0001E680       GetFontData
 0001:00005A88       GetForegroundWindow
 0001:0000C79C       GetFormatSettings
 0001:000055E0       GetFullPathName
 0001:0001DA74       GetHashCode
 0001:00056570       GetHelpInfo
 0001:00026620       GetHelpSystem
 0001:0005978C       GetHint
 0001:000597DC       GetHintControl
 0001:0004E074       GetHotkey
 0001:00005A90       GetIconInfo
 0001:00062E98       getInheritedBool
 0001:00062F60       GetInheritedFieldList
 0001:000647C0       GetIntCompResult
 0001:00005AA8       GetKeyboardLayout
 0001:00005AB0       GetKeyboardLayoutList
 0001:00005AB8       GetKeyboardState
 0001:00002188       GetKeyboardType
 0001:00005A98       GetKeyNameText
 0001:00005AA0       GetKeyState
 0001:00005AC0       GetLastActivePopup
 0001:0003FD3C       GetLastChildZone
 0001:000055E8       GetLastError
 0001:0000AB54       GetLocaleChar
 0001:000055F8       GetLocaleInfo
 0001:00000264       GetLocaleInfo
 0001:0000AAF8       GetLocaleStr
 0001:000055F0       GetLocalTime
 0001:00030E5C       GetLongHint
 0001:00005AC8       GetMenu
 0001:000564CC       GetMenuHelpContext
 0001:00005AD0       GetMenuItemCount
 0001:00005AD8       GetMenuItemID
 0001:00005AE0       GetMenuItemInfo
 0001:0004A27C       GetMenuSize
 0001:00005AE8       GetMenuState
 0001:00005AF0       GetMenuString
 0001:0000026C       GetModuleFileName
 0001:00005600       GetModuleFileName
 0001:00000274       GetModuleHandle
 0001:00005608       GetModuleHandle
 0001:00005240       GetModuleHandle
 0002:00002908       GetMonitorInfo
 0002:0000290C       GetMonitorInfoA
 0002:00002910       GetMonitorInfoW
 0001:0000ABD4       GetMonthDayNames
 0001:00062968       GetNames
 0001:00005AF8       GetNextWindow
 0001:00005808       GetObject
 0001:00010E6C       GetOrdProp
 0001:00005810       GetPaletteEntries
 0001:00001908       GetParamStr
 0001:00005B00       GetParent
 0001:000506A0       GetParentForm
 0001:00005818       GetPixel
 0001:00005610       GetProcAddress
 0001:0000027C       GetProcAddress
 0001:00005B08       GetProp
 0001:00010DFC       GetPropInfo
 0001:00050C78       GetRealScrollPosition
 0001:00044F6C       GetRGBColor
 0001:00005B10       GetScrollInfo
 0001:00005B18       GetScrollPos
 0001:00005B20       GetScrollRange
 0001:00030E08       GetShortHint
 0001:00000524       GetSpace
 0001:00000588       GetSpaceAt
 0001:00047900       GetSpecialName
 0001:00000284       GetStartupInfo
 0001:00005618       GetStdHandle
 0001:00000204       GetStdHandle
 0001:00005820       GetStockObject
 0001:00005620       GetStringTypeEx
 0001:00005B28       GetSubMenu
 0001:00005B30       GetSysColor
 0001:00005B38       GetSysColorBrush
 0001:00005628       GetSystemInfo
 0001:00005B40       GetSystemMenu
 0002:000028F8       GetSystemMetrics
 0001:00005B48       GetSystemMetrics
 0001:00005828       GetSystemPaletteEntries
 0001:00005830       GetTextExtentPoint32
 0001:00005838       GetTextMetrics
 0002:00002A1C       GetThemeAppProperties
 0002:00002988       GetThemeBackgroundContentRect
 0002:0000298C       GetThemeBackgroundExtent
 0002:0000299C       GetThemeBackgroundRegion
 0002:000029C0       GetThemeBool
 0002:000029B4       GetThemeColor
 0002:00002A28       GetThemeDocumentationProperty
 0002:000029C8       GetThemeEnumValue
 0002:000029E8       GetThemeFilename
 0002:000029D0       GetThemeFont
 0002:000029C4       GetThemeInt
 0002:000029DC       GetThemeIntList
 0002:000029D8       GetThemeMargins
 0002:000029B8       GetThemeMetric
 0002:00002990       GetThemePartSize
 0002:000029CC       GetThemePosition
 0002:000029E0       GetThemePropertyOrigin
 0002:000029D4       GetThemeRect
 0002:000029BC       GetThemeString
 0002:000029F4       GetThemeSysBool
 0002:000029EC       GetThemeSysColor
 0002:000029F0       GetThemeSysColorBrush
 0002:000029FC       GetThemeSysFont
 0002:00002A04       GetThemeSysInt
 0002:000029F8       GetThemeSysSize
 0002:00002A00       GetThemeSysString
 0002:00002994       GetThemeTextExtent
 0002:00002998       GetThemeTextMetrics
 0001:00005630       GetThreadLocale
 0001:0000028C       GetThreadLocale
 0001:00005638       GetTickCount
 0001:00009504       GetTime
 0001:0000526C       GetTlsSize
 0001:0005A0DC       GetTopMostWindows
 0001:00031000       GetTopParent
 0001:00005B50       GetTopWindow
 0001:00010D1C       GetTypeData
 0001:00005640       GetVersion
 0001:00000314       GetVersion
 0001:00005648       GetVersionEx
 0001:00005B58       GetWindow
 0001:00005B60       GetWindowDC
 0001:00005B68       GetWindowLong
 0001:00005840       GetWindowOrgEx
 0001:00005B70       GetWindowPlacement
 0001:00005B78       GetWindowRect
 0001:00005B80       GetWindowText
 0002:00002A10       GetWindowTheme
 0001:00005B90       GetWindowThreadProcessId
 0001:00005B88       GetWindowThreadProcessId
 0001:00005650       GlobalAddAtom
 0001:00005658       GlobalAlloc
 0001:00005E34       GlobalAllocPtr
 0001:00005660       GlobalDeleteAtom
 0001:00005668       GlobalFindAtom
 0002:00002864       GlobalFixupList
 0001:00017B54       GlobalFixupReferences
 0001:00005670       GlobalFree
 0001:00005E60       GlobalFreePtr
 0001:00005680       GlobalHandle
 0001:00005678       GlobalLock
 0002:00002848       GlobalNameSpace
 0001:00005688       GlobalReAlloc
 0001:00005E44       GlobalReAllocPtr
 0001:00005690       GlobalUnlock
 0001:00025308       Graphics
 0001:00013C0C       GroupDescendentsWith
 0001:00056818       HandleEdge
 0001:00019264       HandleException
 0002:00000024       HeapAllocFlags
 0002:000025C4       heapErrorCode
 0002:000025C8       heapLock
 0001:000273D8       HelpIntfs
 0002:00002934       HelpManager
 0002:00002A6C       HelpMsg
 0002:00002B08       HelpViewer
 0002:00002B0C       HelpViewerIntf
 0001:0005F22C       hexdigit
 0002:00000134       HexDisplayPrefix
 0002:000009FC       HideSelections
 0001:00042340       HideZone
 0002:00002664       HInstance
 0002:00002BC4       HintDoneEvent
 0001:000598D8       HintGetMsgHook
 0002:00002BC8       HintHook
 0001:00059878       HintMouseThread
 0002:00002BCC       HintThread
 0002:00002BC0       HintThreadID
 0001:00059824       HintTimerProc
 0002:00000C90       HintWindowClass
 0002:000029A0       HitTestThemeBackground
 0001:0005991C       HookHintHooks
 0001:00005FD8       HwndMSWheel
 0002:00000C24       IBreaks
 0002:00000C30       IChecks
 0002:00000C38       IDefaults
 0001:0001E658       IdentToCharset
 0001:0001E3F0       IdentToColor
 0001:00030DE0       IdentToCursor
 0001:00013E3C       IdentToInt
 0002:00000C40       IEnables
 0001:0004B668       IfHotkeyAvailable
 0002:00002B9C       ImageListWriteExProc
 0001:00025824       ImageList_Add
 0001:00025844       ImageList_AddIcon
 0001:00025884       ImageList_BeginDrag
 0001:0002580C       ImageList_Create
 0001:00025814       ImageList_Destroy
 0001:00025894       ImageList_DragEnter
 0001:0002589C       ImageList_DragLeave
 0001:000258A4       ImageList_DragMove
 0001:000258B4       ImageList_DragShowNolock
 0001:0002586C       ImageList_Draw
 0001:00025874       ImageList_DrawEx
 0001:0002588C       ImageList_EndDrag
 0001:0002583C       ImageList_GetBkColor
 0001:000258BC       ImageList_GetDragImage
 0001:000258D4       ImageList_GetIconSize
 0001:0002581C       ImageList_GetImageCount
 0001:000258C4       ImageList_Read
 0001:0002587C       ImageList_Remove
 0001:0002582C       ImageList_ReplaceIcon
 0001:00025834       ImageList_SetBkColor
 0001:000258AC       ImageList_SetDragCursorImage
 0001:000258DC       ImageList_SetIconSize
 0001:000258CC       ImageList_Write
 0002:00000B94       Images
 0001:00046900       ImgList
 0001:000261CC       Imm
 0002:00000B78       IMM32DLL
 0001:00043190       Imm32IsIME
 0002:00000188       IMSecsPerDay
 0001:0000EF34       InBounds
 0001:0000EC94       InBounds
 0001:0000EF64       Increment
 0001:0000ECC4       Increment
 0001:00005B98       InflateRect
 0001:00062C7C       InheritedFieldExist
 0001:00029724       IniFiles
 0001:00000A0C       InitAllocator
 0001:0002591C       InitAnApi
 0002:00002920       InitApis
 0001:000141AC       InitComponent
 0002:00002634       InitContext
 0001:00043244       InitControls
 0001:00024DFC       InitDefFontData
 0001:0000CC78       InitDriveSpacePtr
 0001:0000BBE8       InitExceptions
 0001:000274D0       InitFlatSB
 0001:00028B8C       InitGlobals
 0001:00020FE8       InitializeBitmapInfoHeader
 0001:00005698       InitializeCriticalSection
 0001:00000360       InitializeCriticalSection
 0002:000025C0       initialized
 0001:000274A0       InitializeFlatSB
 0001:000052F8       InitializeModule
 0001:0000DE3C       InitializeVarUtils
 0001:00042DF0       InitIMM32
 0001:00014260       InitInheritedComponent
 0001:0000C54C       InitLeadBytes
 0001:000260E8       InitMultiMonStubs
 0001:0000BCF4       InitPlatformId
 0002:00002040       InitProc
 0001:0005CC08       InitProcs
 0001:00024D64       InitScreenLogPixels
 0001:0000C5F0       InitSysLocale
 0001:00027B94       InitThemeLibrary
 0001:0001AD5C       InitThreadSynchronization
 0001:00005274       InitThreadTLS
 0001:00002D68       InitUnits
 0001:00030A64       InitWndProc
 0002:00000B18       InnerStyles
 0002:0000204C       Input
 0001:000591DC       InsertBefore
 0001:000380D8       InsertBefore
 0001:00000E18       InsertFree
 0001:0004B73C       InsertHotkeyFarEastFormat
 0001:00005BA0       InsertMenu
 0001:00005BA8       InsertMenuItem
 0002:00002880       InstBlockList
 0002:00002884       InstFreeList
 0002:00002858       IntConstList
 0001:00000304       InterlockedDecrement
 0001:00005590       InterlockedDecrement
 0001:0000CCE8       InterlockedDecrement
 0001:0000CCF4       InterlockedExchange
 0001:00005598       InterlockedExchange
 0001:0000CCFC       InterlockedExchangeAdd
 0001:0000CCDC       InterlockedIncrement
 0001:000055A0       InterlockedIncrement
 0001:000002FC       InterlockedIncrement
 0001:0001D9F0       InternalDeletePalette
 0001:00001AA4       InternalFlush
 0001:00000C74       InternalFreeMem
 0001:000211B8       InternalGetDIB
 0001:0002111C       InternalGetDIBSizes
 0001:00013FEC       InternalReadComponentRes
 0002:00002AF0       InternalServices
 0001:0000354C       InternalUniqueString
 0001:00005848       IntersectClipRect
 0001:00005BB0       IntersectRect
 0001:000077F8       IntToHex
 0001:00013E9C       IntToIdent
 0001:000077D0       IntToStr
 0001:000076E4       IntToStr
 0001:00005BB8       InvalidateRect
 0001:0001FF80       InvalidBitmap
 0001:0001FF60       InvalidGraphic
 0001:0001FF8C       InvalidIcon
 0001:0001FF40       InvalidOperation
 0001:00012CF8       InvalidPoint
 0002:00002798       InvalidPointer
 0001:000023CC       InvokeImplGetter
 0001:000018A8       IOResult
 0002:00000C60       IOwnerDraw
 0002:00000C48       IRadios
 0002:00000C58       IRTL
 0001:00050628       IsAccel
 0001:0004CD3C       IsAccelChar
 0002:00002A0C       IsAppThemed
 0001:00031920       IsBeforeTargetWindow
 0001:00005BC0       IsChild
 0002:00002048       IsConsole
 0001:00031E00       IsDelphiHandle
 0001:00005BC8       IsDialogMessage
 0001:0005F284       IsEndDelimiter
 0002:00000C50       ISeparators
 0001:00005BD0       IsIconic
 0001:0004CDD0       IsInitialChar
 0001:00008FF8       IsLeapYear
 0002:00002034       IsLibrary
 0002:00002049       IsMultiThread
 0001:0003F564       IsOrientationSet
 0001:00005BD8       IsRectEmpty
 0001:00031B78       IsSiteChildOfClient
 0002:00002A08       IsThemeActive
 0002:000029B0       IsThemeBackgroundPartiallyTransparent
 0002:00002A18       IsThemeDialogTextureEnabled
 0002:000029AC       IsThemePartDefined
 0001:00013FB4       IsUniqueGlobalComponentName
 0002:0000284C       IsUniqueGlobalComponentNameProc
 0001:0000761C       IsValidIdent
 0001:0000C5CC       IsWesternGroup
 0001:00005BE0       IsWindow
 0001:00005BE8       IsWindowEnabled
 0001:00005BF0       IsWindowVisible
 0001:00005BF8       IsZoomed
 0001:00047D3C       Iterate
 0001:00047DA8       IterateMenus
 0002:0000002C       JITEnable
 0001:000505BC       KeyboardStateToShiftState
 0001:00050574       KeyDataToShiftState
 0001:00050518       KeysToShiftState
 0001:00005C00       KillTimer
 0001:00007C78       LastDelimiter
 0001:000050A4       LCIDToCodePage
 0001:0000C4D4       LCIDToCodePage
 0002:00000114       LeadBytes
 0001:00000370       LeaveCriticalSection
 0001:000056A0       LeaveCriticalSection
 0002:00000034       LibModuleList
 0001:00005850       LineTo
 0001:00029890       ListActns
 0001:00032B44       ListAdd
 0001:00032B7C       ListRemove
 0002:0000274E       ListSeparator
 0001:00005C08       LoadBitmap
 0001:00005C10       LoadCursor
 0001:00005C18       LoadIcon
 0001:00005C20       LoadKeyboardLayout
 0001:000056A8       LoadLibrary
 0001:00000294       LoadLibraryEx
 0001:000056B0       LoadResource
 0001:000047AC       LoadResourceModule
 0001:0000504C       LoadResString
 0001:00005C28       LoadString
 0001:0000029C       LoadString
 0001:00000340       LocalAlloc
 0001:00005248       LocalAlloc
 0001:00000348       LocalFree
 0001:0000AB90       LocalGetLocaleStr
 0002:00002A40       Lock
 0001:000056B8       LockResource
 0002:00002690       LongDateFormat
 0002:00002724       LongDayNames
 0002:000026D8       LongMonthNames
 0002:000026A4       LongTimeFormat
 0001:000071AC       LowerCase
 0001:00005730       lstrcpy
 0001:000002A4       lstrcpyn
 0002:00002820       LVarTypes
 0002:00002824       LVarTypeSync
 0002:0000202C       MainInstance
 0002:00002030       MainThreadID
 0001:000003D0       MakeEmpty
 0001:00002E78       MakeErrorMessage
 0002:00000B64       MakeLast
 0001:00005DE0       MakeLong
 0001:0001C75C       MakeObjectInstance
 0001:00005E74       MakeROP4
 0001:00005EE4       MakeWParam
 0001:0000B81C       MapException
 0001:000297F8       Mapi
 0002:00000950       MAPIDLL
 0002:00000954       MAPIModule
 0001:00002B80       MapToRunError
 0001:00005C30       MapVirtualKey
 0001:00005C38       MapWindowPoints
 0002:00000B9C       Mask
 0001:00005858       MaskBlt
 0001:0002548C       Math
 0001:00025430       Max
 0001:00065584       max
 0001:00053814       MaximizedChildren
 0002:0000003C       MemoryManager
 0002:00000BB8       MenuKeyCaps
 0001:0004E280       Menus
 0001:00000420       MergeBlockAfter
 0001:00000EEC       MergeCommit
 0001:00005C40       MessageBox
 0001:0000023C       MessageBox
 0001:00006154       Messages
 0001:00025404       Min
 0001:0005F258       min
 0001:00014B50       Min
 0001:00037884       MinVar
 0002:00002928       MMAvailable
 0002:00000B7C       ModeMap
 0001:00055CF0       ModifySystemMenu
 0002:000000AC       Module
 0002:00002661       ModuleIsCpp
 0002:00002660       ModuleIsLib
 0001:0001C704       ModuleUnload
 0002:00000038       ModuleUnloadList
 0002:00002904       MonitorFromPoint
 0002:00002900       MonitorFromRect
 0002:000028FC       MonitorFromWindow
 0002:000000E4       MonthDays
 0002:00002B10       Mouse
 0001:000018C8       Move
 0001:00005860       MoveToEx
 0001:00032BB8       MoveWindowOrg
 0001:000056C0       MulDiv
 0001:000002B4       MultiByteToWideChar
 0001:0005C5E8       MultiLineWidth
 0001:00026188       MultiMon
 0002:00002685       NegCurrFormat
 0001:00000F78       NewCommit
 0001:00000FA4       NewCommitAt
 0002:00002B14       NewStyleControls
 0001:0000C2B4       NextCharIndex
 0001:0003F530       NextVisibleZone
 0002:000003E8       NilMethod
 0002:00000030       NoErrMsg
 0001:00048EA4       NormalDraw
 0001:00002738       NotifyAnyExcept
 0001:0000270C       NotifyExcept
 0001:0000276C       NotifyExceptFinally
 0001:000140F8       NotifyGlobalLoading
 0001:00004AAC       NotifyModuleUnload
 0001:000026E8       NotifyNonDelphiException
 0001:00002724       NotifyOnExcept
 0001:000026CC       NotifyReRaise
 0001:00002794       NotifyTerminate
 0001:000027B0       NotifyUnhandled
 0001:00009358       Now
 0001:0004C57C       NthParentOf
 0001:00010AA4       Null
 0002:00000324       NullAsStringValue
 0002:00000320       NullStrictConvert
 0001:0005DE04       ObjectFindClose
 0001:0005DCAC       ObjectFindFirst
 0001:0005DD74       ObjectFindNext
 0001:00030B18       ObjectFromHWnd
 0001:0005DC84       ObjectGetType
 0001:0005DC50       ObjectIsType
 0002:00000A04       OEMConverts
 0001:00005C48       OemToAnsi
 0001:00005C50       OffsetRect
 0002:00002978       OpenThemeData
 0002:00000B5C       OrientArray
 0002:00000B28       OuterStyles
 0002:00002794       OutOfMemory
 0001:0001FF98       OutOfResources
 0002:00002218       Output
 0002:00000328       PackVarCreation
 0002:000006E4       Pal16
 0001:0001DE9C       PaletteChanged
 0001:000208BC       PaletteFromDIBColorTable
 0001:0002099C       PaletteToDIBColorTable
 0002:000006E0       PalSize
 0001:000019F4       ParamStr
 0001:0003FB0C       ParentNotLast
 0002:000009E0       Passwords
 0001:00005868       PatBlt
 0002:000028E8       PatternManager
 0001:00005C58       PeekMessage
 0002:000028DC       PenManager
 0002:000006B0       PenModes
 0002:00000690       PenStyles
 0001:00012C54       Point
 0001:000053B8       Point
 0001:00013188       PointerInModule
 0001:0003960C       PointsEqual
 0001:00005EBC       PointToSmallPoint
 0002:00002BA0       PopupList
 0001:00005C60       PostMessage
 0001:00005C68       PostQuitMessage
 0002:00002BDC       PPDemo_Frm
 0001:00067F78       PPDemo_Unt
 0001:0005CDC8       PPSDK
 0001:00027458       Printers
 0001:000637BC       process
 0001:000578C8       ProcessExecute
 0001:000508F0       ProcessHorz
 0001:000579F8       ProcessUpdate
 0001:00050974       ProcessVert
 0001:00017EBC       PropertyNotFound
 0001:00019364       PropPathError
 0002:00000CC0       Props
 0001:00017EAC       PropValueError
 0001:00005C70       PtInRect
 0002:000000A8       PtrToNil
 0001:00008718       PutExponent
 0001:0005CD88       PYunAPIDestroy
 0001:00067058       PYunAPIEventCallback
 0001:0005CD68       PYunAPIHookEvent
 0001:0005CD70       PYunAPIHookRequest
 0001:0005CD90       PYunAPIReply
 0001:00067144       PYunAPIRequestCallback
 0001:0005CD78       PYunAPISetOpt
 0001:0005CD80       PYunAPIStart
 0002:00002B58       QualifyingSites
 0001:0000B7B8       RaiseAssertException
 0001:0000020C       RaiseException
 0001:00016AE4       RaiseException
 0002:00002014       RaiseExceptionProc
 0001:0000CB38       RaiseLastOSError
 0001:00040CF8       ReadControlName
 0001:0001A704       ReadCustomVariant
 0001:00017E8C       ReadError
 0001:000056C8       ReadFile
 0001:00020C9C       ReadIcon
 0002:000009E8       ReadOnlys
 0001:00005870       RealizePalette
 0001:00018898       Recover
 0001:00005380       Rect
 0001:00012CA0       Rect
 0001:00005878       RectVisible
 0001:00005C78       RedrawWindow
 0002:00002818       RefAnyProc
 0002:00002A3C       ReferenceCount
 0001:000002BC       RegCloseKey
 0001:00005520       RegCloseKey
 0002:0000285C       RegGroups
 0001:00005C80       RegisterClass
 0001:00013AF4       RegisterClass
 0001:00005C88       RegisterClipboardFormat
 0001:00031D28       RegisterDockSite
 0001:00013EF8       RegisterFindGlobalComponentProc
 0001:00013D74       RegisterIntegerConsts
 0001:00004B08       RegisterModule
 0001:00026598       RegisterViewer
 0001:00005C90       RegisterWindowMessage
 0001:0002978C       Registry
 0001:00005528       RegOpenKeyEx
 0001:000002C4       RegOpenKeyEx
 0001:00005530       RegQueryValueEx
 0001:000002CC       RegQueryValueEx
 0001:00028510       RegStr
 0001:00005C98       ReleaseCapture
 0001:00005CA0       ReleaseDC
 0002:00000048       reMap
 0002:00002618       remBytes
 0001:00000490       RemoveBlock
 0002:000003C4       RemoveDataModule
 0001:00017D3C       RemoveFixupReferences
 0001:00017DF8       RemoveFixups
 0001:00018194       RemoveGlobalFixup
 0001:00005CA8       RemoveMenu
 0001:00004A4C       RemoveModuleUnloadProc
 0001:00004A24       RemoveModuleUnloadProc
 0001:00005CB0       RemoveProp
 0001:000056D0       ResetEvent
 0001:0001ADB0       ResetSyncEvent
 0001:0000142C       ResizeInPlace
 0001:00005880       RestoreDC
 0001:000500D0       RestoreFocusState
 0001:00015494       ReturnAddr
 0001:0004787C       ReturnAddr
 0001:0001445C       ReturnAddr
 0001:000205E4       RGBQuadToTriple
 0001:00020570       RGBTripleToQuad
 0001:00028468       RichEdit
 0002:00002B28       RM_GetObjectInstance
 0002:00002BBC       RM_TaskbarCreated
 0002:00002614       rover
 0002:00000958       RTFConversionFormat
 0001:00010CE8       RTLConsts
 0001:00000214       RtlUnwind
 0002:00002018       RTLUnwindProc
 0002:00000074       runErrMsg
 0001:000017D0       RunErrorAt
 0001:0000DDD8       SafeArrayCreate
 0001:0000DDE0       SafeArrayGetLBound
 0001:0000DDE8       SafeArrayGetUBound
 0001:0000DDF0       SafeArrayPtrOfIndex
 0001:0000D3AC       SafeLoadLibrary
 0001:000072BC       SameText
 0001:00005888       SaveDC
 0001:000500BC       SaveFocusState
 0001:0000A094       ScanBlanks
 0001:0000A220       ScanChar
 0001:0000A40C       ScanDate
 0001:0000A0D4       ScanNumber
 0001:0000A188       ScanString
 0001:0000A7A0       ScanTime
 0001:0000A2D8       ScanToNumber
 0002:00002BB4       Screen
 0002:00002894       ScreenLogPixels
 0001:00005CB8       ScreenToClient
 0002:00000A28       ScrollBar
 0001:00050AFC       ScrollBarVisible
 0001:00005CC0       ScrollWindow
 0001:00000FD8       SearchSmallBlocks
 0001:00005890       SelectObject
 0001:00005898       SelectPalette
 0001:0005CDD0       send
 0001:00030BD0       SendAppMessage
 0001:000503D4       SendFocusMessage
 0001:00005CC8       SendMessage
 0002:00000C1C       Separators
 0001:00001A64       Set8087CW
 0001:00005CD0       SetActiveWindow
 0001:00059A2C       SetAnimation
 0001:000058A0       SetBkColor
 0001:000058A8       SetBkMode
 0001:000058B0       SetBrushOrgEx
 0001:00005CD8       SetCapture
 0001:00030EEC       SetCaptureControl
 0001:00005CE0       SetClassLong
 0001:00010630       SetClearVarToEmptyParam
 0001:00018A18       SetCompName
 0001:00005CE8       SetCursor
 0001:000058B8       SetDIBColorTable
 0001:000056D8       SetEndOfFile
 0001:000056E0       SetErrorMode
 0001:000056E8       SetEvent
 0001:00002CC0       SetExceptionHandler
 0001:000056F0       SetFilePointer
 0001:000111E4       SetFloatProp
 0001:00005CF0       SetFocus
 0001:00005CF8       SetForegroundWindow
 0001:00043094       SetImeMode
 0001:00001854       SetInOutRes
 0001:000114C8       SetInt64Prop
 0001:00011504       SetInterfaceProp
 0001:0001967C       SetInterfaceReference
 0001:0001958C       SetIntIdent
 0002:00000C94       SetLayeredWindowAttributes
 0001:00010FE8       SetLongStrProp
 0001:00005D00       SetMenu
 0001:00005D08       SetMenuItemInfo
 0001:00011490       SetMethodProp
 0001:000195D8       SetObjectIdent
 0001:00010EE0       SetOrdProp
 0001:00005D10       SetParent
 0001:000058C0       SetPixel
 0001:00005D18       SetProp
 0001:00005D20       SetRect
 0001:000058C8       SetROP2
 0001:00005D28       SetScrollInfo
 0001:00005D30       SetScrollPos
 0001:00005D38       SetScrollRange
 0001:00010F3C       SetShortStrProp
 0001:00010F90       SetShortStrPropAsLongStr
 0001:000058D0       SetStretchBltMode
 0001:00011088       SetStrProp
 0001:000187E8       SetSubComponentState
 0001:000058D8       SetTextColor
 0002:00002A20       SetThemeAppProperties
 0001:000056F8       SetThreadLocale
 0001:00005D40       SetTimer
 0001:00010618       SetVarAsError
 0001:00011450       SetVariantProp
 0001:00019620       SetVariantReference
 0001:000058E0       SetViewportOrgEx
 0001:0005C010       SetVisible
 0001:000110E0       SetWideStrProp
 0001:00011028       SetWideStrPropAsLongStr
 0001:00005D48       SetWindowLong
 0001:000058E8       SetWindowOrgEx
 0001:00005D50       SetWindowPlacement
 0001:00005D58       SetWindowPos
 0001:00005D68       SetWindowsHookEx
 0001:00005D60       SetWindowText
 0002:000029E4       SetWindowTheme
 0002:00000154       ShareMode
 0001:000284D8       ShellAPI
 0002:00002AE0       ShellModule
 0001:000285B8       ShlObj
 0001:000478B0       ShortCut
 0002:00002BA4       ShortCutItems
 0001:00047960       ShortCutToText
 0002:0000268C       ShortDateFormat
 0002:00002708       ShortDayNames
 0002:000026A8       ShortMonthNames
 0002:000026A0       ShortTimeFormat
 0002:00000D00       ShowCommands
 0002:00000D0C       ShowCommands
 0002:00000CF4       ShowCommands
 0001:00005D70       ShowCursor
 0001:0000B310       ShowException
 0002:00000B10       ShowFlags
 0002:00000DA8       ShowFlags
 0001:000500E4       ShowMDIClientEdge
 0001:00005D78       ShowOwnedPopups
 0001:00005D80       ShowScrollBar
 0001:00005D88       ShowWindow
 0001:00059A5C       ShowWinNoAnimate
 0001:000423DC       ShowZone
 0002:00000B70       SizeCursors
 0001:00005700       SizeofResource
 0001:0001A194       SkipBinary
 0001:0001A1C8       SkipCollection
 0001:0001A168       SkipList
 0001:00005708       Sleep
 0001:0000CB30       Sleep
 0001:00012C78       SmallPoint
 0001:00005E98       SmallPointToPoint
 0002:00002620       smallTab
 0001:0005DC14       SO
 0002:000025E8       spaceRoot
 0001:00013BBC       StartClassGroup
 0001:0002DBC8       StdActns
 0001:0002DA4C       StdCtrls
 0001:0001C718       StdWndProc
 0002:0000289C       StockBrush
 0002:000028A0       StockFont
 0002:000028A4       StockIcon
 0002:00002898       StockPen
 0001:0000807C       StrAlloc
 0001:000080A8       StrBufSize
 0001:0000BF80       StrByteType
 0001:0000C214       StrCharLength
 0001:00007F48       StrComp
 0001:0005DA38       StrComp
 0001:00007E88       StrCopy
 0001:00008110       StrDispose
 0001:00045FB4       StreamsEqual
 0001:00007E48       StrEnd
 0001:000058F0       StretchBlt
 0001:00008560       StrFmt
 0001:00007F6C       StrIComp
 0001:000168E8       StringListCompareStrings
 0001:0004DFA0       StripHotkey
 0001:0005D9BC       StrLComp
 0001:00007EB0       StrLCopy
 0001:00007E30       StrLen
 0001:0005DA98       StrLen
 0001:000085BC       StrLFmt
 0001:00007FAC       StrLIComp
 0001:00007E5C       StrMove
 0001:000080D0       StrNew
 0001:0000C248       StrNextChar
 0001:00007EE4       StrPCopy
 0001:00007F18       StrPLCopy
 0001:00008028       StrPos
 0001:00007FF0       StrScan
 0001:00007820       StrToInt
 0001:00007860       StrToIntDef
 0001:00029580       StrUtils
 0002:00000CE8       Styles
 0001:00066E6C       superobject
 0002:00000DAC       super_hex_chars
 0001:0000D2C8       Supports
 0001:0000D304       Supports
 0002:00002850       SyncEvent
 0002:000003F0       SyncList
 0001:000279CC       SyncObjs
 0001:000002E4       SysAllocStringLen
 0001:00006474       SysConst
 0002:00000CB8       SysConsts
 0002:00000CB0       SysConsts
 0001:0000AA94       SysErrorMessage
 0001:00001288       SysFreeMem
 0001:000002F4       SysFreeString
 0001:000010F8       SysGetMem
 0001:00005378       SysInit
 0002:00002740       SysLocale
 0001:00001608       SysReallocMem
 0001:000002EC       SysReAllocStringLen
 0001:0000516C       System
 0002:0000288C       SystemPalette16
 0001:00020814       SystemPaletteOverride
 0001:00005D90       SystemParametersInfo
 0001:0000D884       SysUtils
 0001:0004420C       TActionLink.IsCaptionLinked
 0001:00044230       TActionLink.IsCheckedLinked
 0001:00044254       TActionLink.IsEnabledLinked
 0001:00044278       TActionLink.IsGroupIndexLinked
 0001:0004429C       TActionLink.IsHelpContextLinked
 0001:000442C0       TActionLink.IsHelpLinked
 0001:000442E4       TActionLink.IsHintLinked
 0001:00044308       TActionLink.IsImageIndexLinked
 0001:0004432C       TActionLink.IsShortCutLinked
 0001:00044350       TActionLink.IsVisibleLinked
 0001:00044374       TActionLink.SetAutoCheck
 0001:00044384       TActionLink.SetCaption
 0001:00044394       TActionLink.SetChecked
 0001:000443A4       TActionLink.SetEnabled
 0001:000443B4       TActionLink.SetGroupIndex
 0001:000443C4       TActionLink.SetHelpContext
 0001:000443D4       TActionLink.SetHelpKeyword
 0001:000443E4       TActionLink.SetHelpType
 0001:000443F4       TActionLink.SetHint
 0001:00044404       TActionLink.SetImageIndex
 0001:00044414       TActionLink.SetShortCut
 0001:00044428       TActionLink.SetVisible
 0001:0005C6C0       TApplication.ActivateHint
 0001:0005AEE4       TApplication.BringToFront
 0001:0005C3B0       TApplication.CancelHint
 0001:0005A3C0       TApplication.CheckIniChange
 0001:0005A038       TApplication.ControlDestroyed
 0001:00059AAC       TApplication.Create
 0001:0005B458       TApplication.CreateForm
 0001:00059E5C       TApplication.CreateHandle
 0001:00059CFC       TApplication.Destroy
 0001:0005CAE4       TApplication.DispatchAction
 0001:0005BC4C       TApplication.DoActionIdle
 0001:0005BCC8       TApplication.DoMouseIdle
 0001:0005A15C       TApplication.DoNormalizeTopMosts
 0001:0005CB90       TApplication.ExecuteAction
 0001:0005CA94       TApplication.GetCurrentHelpFile
 0001:0005BBB4       TApplication.GetExeName
 0001:0005AC7C       TApplication.GetIconHandle
 0001:0005AF40       TApplication.GetTitle
 0001:0005B604       TApplication.HandleException
 0001:0005B2E8       TApplication.HandleMessage
 0001:0005BB8C       TApplication.HelpCommand
 0001:0005BB14       TApplication.HelpContext
 0001:0005BA9C       TApplication.HelpKeyword
 0001:0005C358       TApplication.HideHint
 0001:0005C1DC       TApplication.HintMouseMessage
 0001:0005C314       TApplication.HintTimerExpired
 0001:0005B310       TApplication.HookMainWindow
 0001:0005CC84       TApplication.HookSynchronizeWakeup
 0001:0005BEE8       TApplication.IconChanged
 0001:0005BD74       TApplication.Idle
 0001:0005B438       TApplication.Initialize
 0001:0005B8E8       TApplication.InvokeHelp
 0001:0005AF9C       TApplication.IsDlgMsg
 0001:0005B15C       TApplication.IsHintMsg
 0001:0005B048       TApplication.IsKeyMsg
 0001:0005AFDC       TApplication.IsMDIMsg
 0001:0005B1A0       TApplication.IsShortCut
 0001:0005B6A4       TApplication.MessageBox
 0001:0005ACB4       TApplication.Minimize
 0001:0005A26C       TApplication.ModalFinished
 0001:0005A22C       TApplication.ModalStarted
 0001:0005A2C0       TApplication.NormalizeAllTopMosts
 0001:0005A2AC       TApplication.NormalizeTopMosts
 0001:0005BE98       TApplication.NotifyForms
 0001:0005B220       TApplication.ProcessMessage
 0001:0005ADA0       TApplication.Restore
 0001:0005A2D4       TApplication.RestoreTopMosts
 0001:0005B4EC       TApplication.Run
 0001:0005BF64       TApplication.SetHint
 0001:0005BBD0       TApplication.SetShowHint
 0001:0005A430       TApplication.SettingChange
 0001:0005B80C       TApplication.ShowException
 0001:0005C14C       TApplication.StartHintTimer
 0001:0005C1A4       TApplication.StopHintTimer
 0001:0005B5E8       TApplication.Terminate
 0001:0005B388       TApplication.UnhookMainWindow
 0001:0005CCA0       TApplication.UnhookSynchronizeWakeup
 0001:0005CBCC       TApplication.UpdateAction
 0001:0005C070       TApplication.UpdateVisible
 0001:0005A390       TApplication.UseRightToLeftAlignment
 0001:0005A360       TApplication.UseRightToLeftReading
 0001:0005C110       TApplication.ValidateHelpSystem
 0001:0005CC60       TApplication.WakeMainThread
 0001:0005A538       TApplication.WndProc
 0002:00000CA0       TaskActiveWindow
 0002:00000CA8       TaskFirstTopMost
 0002:00000CA4       TaskFirstWindow
 0002:00000CAC       TaskWindowList
 0001:000314DC       TBaseDragControlObject.Assign
 0001:00031498       TBaseDragControlObject.Create
 0001:00031518       TBaseDragControlObject.EndDrag
 0001:00031548       TBaseDragControlObject.Finished
 0001:0001BFB8       TBasicAction.Change
 0001:0001BD90       TBasicAction.Create
 0001:0001BDEC       TBasicAction.Destroy
 0001:0001BED8       TBasicAction.Execute
 0001:0001BE7C       TBasicAction.ExecuteTarget
 0001:0001BE64       TBasicAction.HandlesTarget
 0001:0001BE8C       TBasicAction.Notification
 0001:0001BFDC       TBasicAction.RegisterChanges
 0001:0001C060       TBasicAction.SetActionComponent
 0001:0001BF40       TBasicAction.SetOnExecute
 0001:0001C004       TBasicAction.UnRegisterChanges
 0001:0001BF0C       TBasicAction.Update
 0001:0001BEC8       TBasicAction.UpdateTarget
 0001:0001BC4C       TBasicActionLink.AssignClient
 0001:0001BCA4       TBasicActionLink.Change
 0001:0001BBFC       TBasicActionLink.Create
 0001:0001BC5C       TBasicActionLink.Destroy
 0001:0001BCCC       TBasicActionLink.Execute
 0001:0001BD50       TBasicActionLink.IsOnExecuteLinked
 0001:0001BD04       TBasicActionLink.SetAction
 0001:0001BD64       TBasicActionLink.SetOnExecute
 0001:0001BD70       TBasicActionLink.Update
 0001:00022984       TBitmap.Assign
 0001:00022B94       TBitmap.Changed
 0001:00022B58       TBitmap.Changing
 0001:00022A84       TBitmap.CopyImage
 0001:000228B8       TBitmap.Create
 0001:00022934       TBitmap.Destroy
 0001:000231F0       TBitmap.DIBNeeded
 0001:00022BB8       TBitmap.Dormant
 0001:00022C40       TBitmap.Draw
 0001:000232C4       TBitmap.FreeContext
 0001:00022EE4       TBitmap.FreeImage
 0001:00022FC4       TBitmap.GetCanvas
 0001:00022F84       TBitmap.GetEmpty
 0001:00023034       TBitmap.GetHandle
 0001:0002306C       TBitmap.GetHandleType
 0001:000230C4       TBitmap.GetHeight
 0001:000230E8       TBitmap.GetMaskHandle
 0001:0002310C       TBitmap.GetMonochrome
 0001:00023148       TBitmap.GetPalette
 0001:0002316C       TBitmap.GetTransparentColor
 0001:000231D4       TBitmap.GetWidth
 0001:000232E4       TBitmap.HandleNeeded
 0001:00023550       TBitmap.LoadFromClipboardFormat
 0001:000235E8       TBitmap.LoadFromStream
 0001:000233A8       TBitmap.MaskHandleNeeded
 0001:00023618       TBitmap.NewImage
 0001:00023440       TBitmap.PaletteNeeded
 0001:00023724       TBitmap.ReadData
 0001:00023754       TBitmap.ReadDIB
 0001:00023D20       TBitmap.ReadStream
 0001:00024668       TBitmap.SaveToClipboardFormat
 0001:00024648       TBitmap.SaveToStream
 0001:00023D98       TBitmap.SetHandle
 0001:00023E84       TBitmap.SetHandleType
 0001:00024050       TBitmap.SetHeight
 0001:000240C0       TBitmap.SetMonochrome
 0001:0002416C       TBitmap.SetPalette
 0001:00024278       TBitmap.SetWidth
 0001:000242E8       TBitmap.WriteData
 0001:00024308       TBitmap.WriteStream
 0001:00021AE0       TBitmapCanvas.Create
 0001:00021C1C       TBitmapCanvas.CreateHandle
 0001:00021B30       TBitmapCanvas.Destroy
 0001:00021B6C       TBitmapCanvas.FreeContext
 0001:00021D68       TBitmapImage.Destroy
 0001:00021DE8       TBitmapImage.FreeHandle
 0001:00014AF0       TBits.Destroy
 0001:00014B2C       TBits.Error
 0001:00014C78       TBits.OpenBit
 0001:00014C4C       TBits.SetBit
 0001:00014B78       TBits.SetSize
 0001:0001F190       TBrush.Assign
 0001:0001F110       TBrush.Create
 0001:0001F15C       TBrush.Destroy
 0001:0001F2F8       TBrush.GetColor
 0001:0001F238       TBrush.GetData
 0001:0001F34C       TBrush.GetHandle
 0001:0001F440       TBrush.GetStyle
 0001:0001F2C4       TBrush.SetBitmap
 0001:0001F314       TBrush.SetColor
 0001:0001F270       TBrush.SetData
 0001:0001F45C       TBrush.SetStyle
 0001:0002D658       TButton.Click
 0001:0002D884       TButton.CMDialogChar
 0001:0002D7F8       TButton.CMDialogKey
 0001:0002D918       TButton.CMFocusChanged
 0001:0002D7D0       TButton.CNCommand
 0001:0002D9C0       TButton.CNCtlColorBtn
 0001:0002D5DC       TButton.Create
 0001:0002D760       TButton.CreateParams
 0001:0002D7AC       TButton.CreateWnd
 0001:0002D6A4       TButton.SetButtonStyle
 0001:0002D70C       TButton.SetDefault
 0001:0002D690       TButton.UseRightToLeftAlignment
 0001:0002D988       TButton.WMEraseBkgnd
 0001:0002D264       TButtonActionLink.AssignClient
 0001:0002D294       TButtonActionLink.IsCheckedLinked
 0001:0002D2E4       TButtonActionLink.SetChecked
 0001:0002D3B8       TButtonControl.ActionChange
 0001:0002D4E0       TButtonControl.CNCtlColorStatic
 0001:0002D350       TButtonControl.Create
 0001:0002D574       TButtonControl.CreateParams
 0001:0002D414       TButtonControl.GetActionLinkClass
 0001:0002D42C       TButtonControl.GetChecked
 0001:0002D440       TButtonControl.SetChecked
 0001:0002D5A8       TButtonControl.SetWordWrap
 0001:0002D53C       TButtonControl.WMEraseBkGnd
 0001:0002D450       TButtonControl.WndProc
 0001:0001FF0C       TCanvas.BrushChanged
 0001:0001FD5C       TCanvas.Changed
 0001:0001FD38       TCanvas.Changing
 0001:0001F620       TCanvas.CopyRect
 0001:0001F498       TCanvas.Create
 0001:0001FE04       TCanvas.CreateBrush
 0001:0001FD80       TCanvas.CreateFont
 0001:0001FC1C       TCanvas.CreateHandle
 0001:0001FDC0       TCanvas.CreatePen
 0001:0001FBA4       TCanvas.DeselectHandles
 0001:0001F5A8       TCanvas.Destroy
 0001:0001F6D0       TCanvas.Draw
 0001:0001F794       TCanvas.FillRect
 0001:0001FEA4       TCanvas.FontChanged
 0001:0001FB70       TCanvas.GetHandle
 0001:0001FA80       TCanvas.GetPenPos
 0001:0001FADC       TCanvas.GetPixel
 0001:0001F7E4       TCanvas.LineTo
 0001:0001F830       TCanvas.Lock
 0001:0001F860       TCanvas.MoveTo
 0001:0001FED8       TCanvas.PenChanged
 0001:0001FCA4       TCanvas.RequiredState
 0001:0001FA60       TCanvas.SetBrush
 0001:0001FA20       TCanvas.SetFont
 0001:0001FC28       TCanvas.SetHandle
 0001:0001FA40       TCanvas.SetPen
 0001:0001FAB4       TCanvas.SetPenPos
 0001:0001FB1C       TCanvas.SetPixel
 0001:0001F89C       TCanvas.StretchDraw
 0001:0001F8E8       TCanvas.TextExtent
 0001:0001F968       TCanvas.TextHeight
 0001:0001F940       TCanvas.TextWidth
 0001:0001F990       TCanvas.TryLock
 0001:0001F9F0       TCanvas.Unlock
 0001:000468A8       TChangeLink.Change
 0001:00046860       TChangeLink.Destroy
 0001:000137D4       TClassFinder.Create
 0001:0001391C       TClassFinder.Destroy
 0001:00013958       TClassFinder.GetClass
 0001:00015054       TCollection.Add
 0001:00015080       TCollection.Clear
 0001:0002879C       TCommonDialog.Create
 0001:0002888C       TCommonDialog.DefaultHandler
 0001:00028800       TCommonDialog.Destroy
 0001:00028AA0       TCommonDialog.DoClose
 0001:00028AC4       TCommonDialog.DoShow
 0001:000288E0       TCommonDialog.MainWndProc
 0001:00028848       TCommonDialog.MessageHook
 0001:000289C8       TCommonDialog.TaskModalDialog
 0001:00028950       TCommonDialog.WMDestroy
 0001:0002897C       TCommonDialog.WMInitDialog
 0001:000289A4       TCommonDialog.WMNCDestroy
 0001:00028934       TCommonDialog.WndProc
 0001:0001B088       TComponent.BeforeDestruction
 0001:0001B888       TComponent.ChangeName
 0001:0001AF88       TComponent.Create
 0001:0001B4A4       TComponent.DefineProperties
 0001:0001AFE4       TComponent.Destroy
 0001:0001B2E0       TComponent.DestroyComponents
 0001:0001B350       TComponent.Destroying
 0001:0001BA6C       TComponent.ExecuteAction
 0001:0001B764       TComponent.FindComponent
 0001:0001B0A4       TComponent.FreeNotification
 0001:0001B574       TComponent.GetChildOwner
 0001:0001B58C       TComponent.GetChildParent
 0001:0001B560       TComponent.GetChildren
 0001:0001B8A8       TComponent.GetComponent
 0001:0001B8E8       TComponent.GetComponentCount
 0001:0001B5A4       TComponent.GetNamePath
 0001:0001B5C4       TComponent.GetOwner
 0001:0001B5F4       TComponent.GetParentComponent
 0001:0001B54C       TComponent.HasParent
 0001:0001B19C       TComponent.Insert
 0001:0001B228       TComponent.InsertComponent
 0001:0001BBE4       TComponent.IntfGetComponent
 0001:0001B644       TComponent.Loaded
 0001:0001B41C       TComponent.Notification
 0001:0001B658       TComponent.PaletteCreated
 0001:0001BB34       TComponent.QueryInterface
 0001:0001B11C       TComponent.ReadLeft
 0001:0001B664       TComponent.ReadState
 0001:0001B13C       TComponent.ReadTop
 0001:0001B1E0       TComponent.Remove
 0001:0001B298       TComponent.RemoveComponent
 0001:0001B3F4       TComponent.RemoveFreeNotification
 0001:0001B3AC       TComponent.RemoveNotification
 0001:0001BAD4       TComponent.SafeCallException
 0001:0001B5E0       TComponent.SetChildOrder
 0001:0001B914       TComponent.SetComponentIndex
 0001:0001B9A0       TComponent.SetDesigning
 0001:0001B7D0       TComponent.SetName
 0001:0001B60C       TComponent.SetParentComponent
 0001:0001BA08       TComponent.SetReference
 0001:0001BAA0       TComponent.UpdateAction
 0001:0001B630       TComponent.Updated
 0001:0001BB1C       TComponent.UpdateRegistry
 0001:0001B61C       TComponent.Updating
 0001:0001B730       TComponent.ValidateContainer
 0001:0001B754       TComponent.ValidateInsert
 0001:0001B69C       TComponent.ValidateRename
 0001:0001B15C       TComponent.WriteLeft
 0001:0001B680       TComponent.WriteState
 0001:0001B17C       TComponent.WriteTop
 0001:0001BB84       TComponent._AddRef
 0001:0001BBB4       TComponent._Release
 0001:00043A00       TContainedAction.Destroy
 0001:00043C68       TContainedAction.Execute
 0001:00043A48       TContainedAction.GetIndex
 0001:00043A94       TContainedAction.GetParentComponent
 0001:00043AC4       TContainedAction.HasParent
 0001:00043A80       TContainedAction.IsCategoryStored
 0001:00043AF0       TContainedAction.ReadState
 0001:00043BEC       TContainedAction.SetActionList
 0001:00043BA8       TContainedAction.SetCategory
 0001:00043B30       TContainedAction.SetIndex
 0001:00043C30       TContainedAction.SetParentComponent
 0001:00043CD4       TContainedAction.Update
 0001:000374D0       TControl.ActionChange
 0001:00037A08       TControl.AdjustSize
 0001:000377C4       TControl.AssignTo
 0001:00035488       TControl.BeginAutoDrag
 0001:000354AC       TControl.BeginDrag
 0001:00034F04       TControl.BringToFront
 0001:00036130       TControl.CalcCursorPos
 0001:00036314       TControl.CalcDockSizes
 0001:00035FD0       TControl.CanAutoSize
 0001:00035FEC       TControl.CanResize
 0001:00034538       TControl.Changed
 0001:00034558       TControl.ChangeScale
 0001:00036A4C       TControl.CheckNewSize
 0001:00036798       TControl.Click
 0001:00034400       TControl.ClientToScreen
 0001:00037188       TControl.CMBiDiModeChanged
 0001:00037064       TControl.CMColorChanged
 0001:000372F0       TControl.CMDesignHitTest
 0001:00037034       TControl.CMEnabledChanged
 0001:00037468       TControl.CMFloat
 0001:0003704C       TControl.CMFontChanged
 0001:00037A90       TControl.CMHintShow
 0001:00037274       TControl.CMHitTest
 0001:00037290       TControl.CMMouseEnter
 0001:000372C0       TControl.CMMouseLeave
 0001:00037104       TControl.CMMouseWheel
 0001:000370C8       TControl.CMParentBiDiModeChanged
 0001:0003707C       TControl.CMParentColorChanged
 0001:000371F0       TControl.CMParentFontChanged
 0001:000371B4       TControl.CMParentShowHintChanged
 0001:0003723C       TControl.CMSysFontChanged
 0001:00036FF0       TControl.CMVisibleChanged
 0001:000360E8       TControl.ConstrainedResize
 0001:000335A0       TControl.Create
 0001:00037308       TControl.CreateFloatingDockSite
 0001:00036828       TControl.DblClick
 0001:00035A20       TControl.DefaultDockImage
 0001:000365FC       TControl.DefaultHandler
 0001:00036748       TControl.DefineProperties
 0001:00036168       TControl.DesignWndProc
 0001:000336C8       TControl.Destroy
 0001:00037604       TControl.DoActionChange
 0001:00036034       TControl.DoCanAutoSize
 0001:000360A8       TControl.DoCanResize
 0001:00033FDC       TControl.Dock
 0001:000357E8       TControl.DockTrackNoTarget
 0001:000361BC       TControl.DoConstrainedResize
 0001:00035FB0       TControl.DoConstraintsChange
 0001:00037C18       TControl.DoContextPopup
 0001:00034118       TControl.DoDock
 0001:00035BB8       TControl.DoDragMsg
 0001:00035810       TControl.DoEndDock
 0001:0003567C       TControl.DoEndDrag
 0001:0003689C       TControl.DoMouseDown
 0001:00036CE4       TControl.DoMouseUp
 0001:00035888       TControl.DoMouseWheel
 0001:00035980       TControl.DoMouseWheelDown
 0001:000359D0       TControl.DoMouseWheelUp
 0001:00035854       TControl.DoStartDock
 0001:00035648       TControl.DoStartDrag
 0001:00035584       TControl.DragCanceled
 0001:00035604       TControl.DragDrop
 0001:00035590       TControl.Dragging
 0001:000355AC       TControl.DragOver
 0001:00035B70       TControl.DrawDragDockImage
 0001:00037A44       TControl.DrawTextBiDiModeFlagsReadingOnly
 0001:00035B94       TControl.EraseDragDockImage
 0001:00034BC4       TControl.FontChanged
 0001:00033900       TControl.GetAction
 0001:00037634       TControl.GetActionLinkClass
 0001:000341EC       TControl.GetBoundsRect
 0001:00034308       TControl.GetClientHeight
 0001:0003435C       TControl.GetClientOrigin
 0001:0003427C       TControl.GetClientRect
 0001:000342B4       TControl.GetClientWidth
 0001:000353E4       TControl.GetControlsAlignment
 0001:00035038       TControl.GetDeviceContext
 0001:000378D4       TControl.GetDockEdge
 0001:000337B0       TControl.GetDragImages
 0001:000337C8       TControl.GetEnabled
 0001:000379A8       TControl.GetFloating
 0001:000379EC       TControl.GetFloatingDockSiteClass
 0001:00034EB4       TControl.GetMouseCapture
 0001:000337E4       TControl.GetPalette
 0001:00033818       TControl.GetParentComponent
 0001:00036A30       TControl.GetPopupMenu
 0001:00034ADC       TControl.GetText
 0001:000349D8       TControl.GetTextBuf
 0001:000349B4       TControl.GetTextLen
 0001:00034A08       TControl.GetUndockHeight
 0001:00034A3C       TControl.GetUndockWidth
 0001:000337FC       TControl.HasParent
 0001:00037A70       TControl.InitiateAction
 0001:00035228       TControl.Invalidate
 0001:0003519C       TControl.InvalidateControl
 0001:00033A04       TControl.IsAnchorsStored
 0001:00034C94       TControl.IsBiDiModeStored
 0001:0003764C       TControl.IsCaptionStored
 0001:00034DCC       TControl.IsColorStored
 0001:00037680       TControl.IsEnabledStored
 0001:00034C48       TControl.IsFontStored
 0001:000376E8       TControl.IsHelpContextStored
 0001:000376B4       TControl.IsHintStored
 0001:00037750       TControl.IsOnClickStored
 0001:00034C74       TControl.IsShowHintStored
 0001:0003771C       TControl.IsVisibleStored
 0001:00037784       TControl.Loaded
 0001:00035CC8       TControl.ManualDock
 0001:00035F00       TControl.ManualFloat
 0001:00036854       TControl.MouseDown
 0001:00036BC0       TControl.MouseMove
 0001:00036C9C       TControl.MouseUp
 0001:0003524C       TControl.MouseWheelHandler
 0001:00033B44       TControl.Notification
 0001:0003386C       TControl.PaletteChanged
 0001:000362C8       TControl.Perform
 0001:000356C0       TControl.PositionDockRect
 0001:000366C8       TControl.ReadIsControl
 0001:00033A98       TControl.ReadState
 0001:000352CC       TControl.Refresh
 0001:000352E4       TControl.Repaint
 0001:00033A48       TControl.RequestAlign
 0001:00033A6C       TControl.Resize
 0001:0003443C       TControl.ScreenToClient
 0001:00034478       TControl.SendCancelMode
 0001:000344C0       TControl.SendDockNotification
 0001:00033958       TControl.SetAction
 0001:00033B9C       TControl.SetAlign
 0001:0003392C       TControl.SetAnchors
 0001:00034770       TControl.SetAutoSize
 0001:00034B88       TControl.SetBiDiMode
 0001:00033C80       TControl.SetBounds
 0001:00034238       TControl.SetBoundsRect
 0001:0003432C       TControl.SetClientHeight
 0001:00034864       TControl.SetClientSize
 0001:000342D8       TControl.SetClientWidth
 0001:00034D90       TControl.SetColor
 0001:00037C5C       TControl.SetConstraints
 0001:00034E78       TControl.SetCursor
 0001:00033A2C       TControl.SetDragMode
 0001:0003497C       TControl.SetEnabled
 0001:00034C28       TControl.SetFont
 0001:00033F9C       TControl.SetHeight
 0001:00034188       TControl.SetHelpContext
 0001:000341B8       TControl.SetHelpKeyword
 0001:00033EDC       TControl.SetLeft
 0001:00034ED0       TControl.SetMouseCapture
 0001:000347A8       TControl.SetName
 0001:000348BC       TControl.SetParent
 0001:00034E30       TControl.SetParentBiDiMode
 0001:00034DE8       TControl.SetParentColor
 0001:00033834       TControl.SetParentComponent
 0001:00034CB0       TControl.SetParentFont
 0001:00034D40       TControl.SetParentShowHint
 0001:00034A70       TControl.SetPopupMenu
 0001:00034CF8       TControl.SetShowHint
 0001:00034B1C       TControl.SetText
 0001:00034AA8       TControl.SetTextBuf
 0001:00033F1C       TControl.SetTop
 0001:00034928       TControl.SetVisible
 0001:00033F5C       TControl.SetWidth
 0001:00034FF4       TControl.SetZOrder
 0001:00034F20       TControl.SetZOrderPosition
 0001:000352A8       TControl.Update
 0001:00033D50       TControl.UpdateAnchorRules
 0001:000363B4       TControl.UpdateBoundsRect
 0001:00035428       TControl.UseRightToLeftAlignment
 0001:000353F8       TControl.UseRightToLeftReading
 0001:00035458       TControl.UseRightToLeftScrollBar
 0001:00036408       TControl.VisibleChanging
 0001:00036E74       TControl.WMCancelMode
 0001:00037ACC       TControl.WMContextMenu
 0001:000369C8       TControl.WMLButtonDblClk
 0001:0003693C       TControl.WMLButtonDown
 0001:00036D30       TControl.WMLButtonUp
 0001:00036B8C       TControl.WMMButtonDblClk
 0001:00036B58       TControl.WMMButtonDown
 0001:00036DE0       TControl.WMMButtonUp
 0001:00036C04       TControl.WMMouseMove
 0001:00036E08       TControl.WMMouseWheel
 0001:000369A0       TControl.WMNCLButtonDown
 0001:00036B24       TControl.WMRButtonDblClk
 0001:00036AF0       TControl.WMRButtonDown
 0001:00036DB8       TControl.WMRButtonUp
 0001:00036ECC       TControl.WMWindowPosChanged
 0001:00036414       TControl.WndProc
 0001:000366E8       TControl.WriteIsControl
 0001:000330EC       TControlActionLink.AssignClient
 0001:00033110       TControlActionLink.DoShowHint
 0001:00033214       TControlActionLink.IsCaptionLinked
 0001:00033298       TControlActionLink.IsEnabledLinked
 0001:00033498       TControlActionLink.IsHelpLinked
 0001:000332E4       TControlActionLink.IsHintLinked
 0001:00033378       TControlActionLink.IsOnExecuteLinked
 0001:00033330       TControlActionLink.IsVisibleLinked
 0001:000333B4       TControlActionLink.SetCaption
 0001:000333E0       TControlActionLink.SetEnabled
 0001:00033548       TControlActionLink.SetHelpContext
 0001:0003351C       TControlActionLink.SetHelpKeyword
 0001:00033574       TControlActionLink.SetHelpType
 0001:0003340C       TControlActionLink.SetHint
 0001:00033468       TControlActionLink.SetOnExecute
 0001:0003343C       TControlActionLink.SetVisible
 0001:00032D98       TControlCanvas.CreateHandle
 0001:00032D5C       TControlCanvas.Destroy
 0001:00032E44       TControlCanvas.FreeHandle
 0001:00032E8C       TControlCanvas.SetControl
 0001:00032EB8       TControlCanvas.UpdateTextFlags
 0001:00050840       TControlScrollBar.Assign
 0001:000509F0       TControlScrollBar.CalcAutoRange
 0001:000508A8       TControlScrollBar.ChangeBiDiPosition
 0001:00050BCC       TControlScrollBar.ControlSize
 0001:0005076C       TControlScrollBar.Create
 0001:00051304       TControlScrollBar.DoSetRange
 0001:00050824       TControlScrollBar.IsIncrementStored
 0001:0005136C       TControlScrollBar.IsRangeStored
 0001:00050AA8       TControlScrollBar.IsScrollBarVisible
 0001:00050C50       TControlScrollBar.NeedsScrollBarVisible
 0001:00050CE4       TControlScrollBar.ScrollMessage
 0001:00051014       TControlScrollBar.SetButtonSize
 0001:00051080       TControlScrollBar.SetColor
 0001:000510C0       TControlScrollBar.SetParentColor
 0001:000510F8       TControlScrollBar.SetPosition
 0001:0005133C       TControlScrollBar.SetRange
 0001:00051228       TControlScrollBar.SetSize
 0001:00051294       TControlScrollBar.SetStyle
 0001:000512CC       TControlScrollBar.SetThumbSize
 0001:00051390       TControlScrollBar.SetVisible
 0001:00051500       TControlScrollBar.Update
 0001:0002997C       TConversion.ConvertReadStream
 0001:000299A8       TConversion.ConvertWriteStream
 0001:00027944       TCriticalSection.Acquire
 0001:000278B4       TCriticalSection.Create
 0001:00027904       TCriticalSection.Destroy
 0001:00027974       TCriticalSection.Enter
 0001:00027988       TCriticalSection.Leave
 0001:0002795C       TCriticalSection.Release
 0001:00044510       TCustomAction.AssignTo
 0001:00044438       TCustomAction.Create
 0001:000444A8       TCustomAction.Destroy
 0001:00044BF8       TCustomAction.DoHint
 0001:00044C34       TCustomAction.Execute
 0001:00044CC4       TCustomAction.GetSecondaryShortCuts
 0001:00044D04       TCustomAction.HandleShortCut
 0001:000445F4       TCustomAction.SetCaption
 0001:0004467C       TCustomAction.SetChecked
 0001:000447B4       TCustomAction.SetEnabled
 0001:000448F0       TCustomAction.SetHelpContext
 0001:00044864       TCustomAction.SetHelpKeyword
 0001:0004496C       TCustomAction.SetHint
 0001:000449F4       TCustomAction.SetImageIndex
 0001:00044B8C       TCustomAction.SetName
 0001:00044A78       TCustomAction.SetShortCut
 0001:00044B00       TCustomAction.SetVisible
 0001:00043FE4       TCustomActionList.AddAction
 0001:00044044       TCustomActionList.Change
 0001:00043D40       TCustomActionList.Create
 0001:00043DC8       TCustomActionList.Destroy
 0001:000441A4       TCustomActionList.ExecuteAction
 0001:00043EC8       TCustomActionList.GetAction
 0001:00043EEC       TCustomActionList.GetActionCount
 0001:00043E30       TCustomActionList.GetChildren
 0001:00043F64       TCustomActionList.ImageListChange
 0001:000440DC       TCustomActionList.IsShortCut
 0001:00043F88       TCustomActionList.Notification
 0001:00044018       TCustomActionList.RemoveAction
 0001:00043E8C       TCustomActionList.SetChildOrder
 0001:00043F08       TCustomActionList.SetImages
 0001:000441D8       TCustomActionList.UpdateAction
 0001:0003F398       TCustomControl.Create
 0001:0003F408       TCustomControl.Destroy
 0001:0003F524       TCustomControl.Paint
 0001:0003F478       TCustomControl.PaintWindow
 0001:0003F448       TCustomControl.WMPaint
 0001:00058220       TCustomDockForm.CMControlListChange
 0001:00058290       TCustomDockForm.CMDockNotification
 0001:0005838C       TCustomDockForm.CMUnDockClient
 0001:000583B4       TCustomDockForm.CMVisibleChanged
 0001:00057EF8       TCustomDockForm.Create
 0001:00057F70       TCustomDockForm.DoAddDockClient
 0001:00058068       TCustomDockForm.DoRemoveDockClient
 0001:000580F8       TCustomDockForm.GetSiteInfo
 0001:00058098       TCustomDockForm.Loaded
 0001:0005812C       TCustomDockForm.WMNCHitTest
 0001:00058164       TCustomDockForm.WMNCLButtonDown
 0001:0002C560       TCustomEdit.AdjustHeight
 0001:0002C634       TCustomEdit.Change
 0001:0002C134       TCustomEdit.Clear
 0001:0002C700       TCustomEdit.CMCtl3DChanged
 0001:0002C7BC       TCustomEdit.CMEnter
 0001:0002C744       TCustomEdit.CMFontChanged
 0001:0002C808       TCustomEdit.CMTextChanged
 0001:0002C784       TCustomEdit.CNCommand
 0001:0002BD40       TCustomEdit.Create
 0001:0002C2C8       TCustomEdit.CreateParams
 0001:0002C3B0       TCustomEdit.CreateWindowHandle
 0001:0002C440       TCustomEdit.CreateWnd
 0001:0002C668       TCustomEdit.DefaultHandler
 0001:0002C4E4       TCustomEdit.DestroyWnd
 0001:0002BE14       TCustomEdit.DoSetMaxLength
 0001:0002BF5C       TCustomEdit.GetModified
 0001:0002C098       TCustomEdit.GetSelLength
 0001:0002C040       TCustomEdit.GetSelStart
 0001:0002C220       TCustomEdit.GetSelText
 0001:0002C17C       TCustomEdit.GetSelTextBuf
 0001:0002C158       TCustomEdit.SelectAll
 0001:0002BE40       TCustomEdit.SetAutoSize
 0001:0002BE74       TCustomEdit.SetBorderStyle
 0001:0002BEB0       TCustomEdit.SetHideSelection
 0001:0002BEE4       TCustomEdit.SetMaxLength
 0001:0002BFA4       TCustomEdit.SetModified
 0001:0002BF28       TCustomEdit.SetOEMConvert
 0001:0002BFEC       TCustomEdit.SetReadOnly
 0001:0002C0CC       TCustomEdit.SetSelLength
 0001:0002C06C       TCustomEdit.SetSelStart
 0001:0002C508       TCustomEdit.UpdateHeight
 0001:0002C854       TCustomEdit.WMContextMenu
 0001:0002C6B0       TCustomEdit.WMSetFont
 0001:00055930       TCustomForm.Activate
 0001:00055674       TCustomForm.ActiveChanged
 0001:00052234       TCustomForm.AfterConstruction
 0001:00053A48       TCustomForm.AlignControls
 0001:00052448       TCustomForm.BeforeDestruction
 0001:00052C70       TCustomForm.BeginAutoDrag
 0001:00052C7C       TCustomForm.ChangeScale
 0001:00053868       TCustomForm.ClientWndProc
 0001:000571B4       TCustomForm.Close
 0001:000572F4       TCustomForm.CloseModal
 0001:00057274       TCustomForm.CloseQuery
 0001:00057998       TCustomForm.CMActionExecute
 0001:00057AC8       TCustomForm.CMActionUpdate
 0001:00056928       TCustomForm.CMActivate
 0001:000561F0       TCustomForm.CMAppSysCommand
 0001:00053AE4       TCustomForm.CMBiDiModeChanged
 0001:00054608       TCustomForm.CMColorChanged
 0001:00054674       TCustomForm.CMCtl3DChanged
 0001:0005695C       TCustomForm.CMDeactivate
 0001:00056990       TCustomForm.CMDialogKey
 0001:000546D8       TCustomForm.CMFontChanged
 0001:00057038       TCustomForm.CMIconChanged
 0001:00057178       TCustomForm.CMIsShortCut
 0001:00054714       TCustomForm.CMMenuChanged
 0001:00053B98       TCustomForm.CMParentBiDiModeChanged
 0001:000570F8       TCustomForm.CMParentFontChanged
 0001:00057064       TCustomForm.CMRelease
 0001:00056A5C       TCustomForm.CMShowingChanged
 0001:0005707C       TCustomForm.CMTextChanged
 0001:000570DC       TCustomForm.CMUIActivate
 0001:000520A4       TCustomForm.Create
 0001:0005227C       TCustomForm.CreateNew
 0001:00054B60       TCustomForm.CreateParams
 0001:00054F94       TCustomForm.CreateWindowHandle
 0001:00054E24       TCustomForm.CreateWnd
 0001:00055974       TCustomForm.Deactivate
 0001:00055150       TCustomForm.DefaultHandler
 0001:00052ADC       TCustomForm.DefineProperties
 0001:000552C0       TCustomForm.DefocusControl
 0001:000524C8       TCustomForm.Destroy
 0001:00055100       TCustomForm.DestroyWindowHandle
 0001:00053CC4       TCustomForm.Dock
 0001:00052E3C       TCustomForm.DoClose
 0001:000525AC       TCustomForm.DoCreate
 0001:00052628       TCustomForm.DoDestroy
 0001:00053D30       TCustomForm.DoDock
 0001:00052E70       TCustomForm.DoHide
 0001:00052E9C       TCustomForm.DoShow
 0001:0005531C       TCustomForm.FocusControl
 0001:00053DA8       TCustomForm.GetActiveMDIChild
 0001:00054044       TCustomForm.GetCanvas
 0001:00052F7C       TCustomForm.GetChildren
 0001:00052EC8       TCustomForm.GetClientRect
 0001:00052FF0       TCustomForm.GetFloating
 0001:000559E4       TCustomForm.GetIconHandle
 0001:00053DF8       TCustomForm.GetMDIChildCount
 0001:00053E60       TCustomForm.GetMDIChildren
 0001:00053F20       TCustomForm.GetMonitor
 0001:000544F0       TCustomForm.GetPixelsPerInch
 0001:000545A8       TCustomForm.GetScaled
 0001:00052C3C       TCustomForm.GetTextHeight
 0001:00057CC4       TCustomForm.HandleCreateException
 0001:0005738C       TCustomForm.Hide
 0001:00052D24       TCustomForm.IconChanged
 0001:00057EB4       TCustomForm.InitAlphaBlending
 0001:00052DF4       TCustomForm.IsAutoScrollStored
 0001:00052D90       TCustomForm.IsClientSizeStored
 0001:00054084       TCustomForm.IsForm
 0001:00052DB0       TCustomForm.IsFormSizeStored
 0001:000540A0       TCustomForm.IsIconStored
 0001:00057B98       TCustomForm.IsShortCut
 0001:00052688       TCustomForm.Loaded
 0001:000557E8       TCustomForm.MergeMenu
 0001:00057C74       TCustomForm.MouseWheelHandler
 0001:00054648       TCustomForm.NormalColor
 0001:000526E0       TCustomForm.Notification
 0001:000559B8       TCustomForm.Paint
 0001:00055A18       TCustomForm.PaintWindow
 0001:00055AD8       TCustomForm.PaletteChanged
 0001:00057C24       TCustomForm.QueryInterface
 0001:00052BA8       TCustomForm.ReadIgnoreFontProperty
 0001:00052848       TCustomForm.ReadState
 0001:00052BD0       TCustomForm.ReadTextHeight
 0001:0005418C       TCustomForm.RefreshMDIMenu
 0001:00057444       TCustomForm.Release
 0001:00057868       TCustomForm.RequestAlign
 0001:0005614C       TCustomForm.Resizing
 0001:0005577C       TCustomForm.SendCancelMode
 0001:000556F0       TCustomForm.SetActive
 0001:000551E0       TCustomForm.SetActiveControl
 0001:00057DE4       TCustomForm.SetAlphaBlend
 0001:00057E18       TCustomForm.SetAlphaBlendValue
 0001:00053C2C       TCustomForm.SetBorderIcons
 0001:00053C68       TCustomForm.SetBorderStyle
 0001:00053030       TCustomForm.SetChildOrder
 0001:0005315C       TCustomForm.SetClientHeight
 0001:0005310C       TCustomForm.SetClientWidth
 0001:000573BC       TCustomForm.SetFocus
 0001:00055354       TCustomForm.SetFocusedControl
 0001:000540D8       TCustomForm.SetFormStyle
 0001:00054060       TCustomForm.SetIcon
 0001:00057CE8       TCustomForm.SetLayeredAttribs
 0001:000542C0       TCustomForm.SetMenu
 0001:00054244       TCustomForm.SetObjectMenuItem
 0001:0005329C       TCustomForm.SetParent
 0001:000530CC       TCustomForm.SetParentBiDiMode
 0001:00054520       TCustomForm.SetPixelsPerInch
 0001:0005456C       TCustomForm.SetPosition
 0001:000545C8       TCustomForm.SetScaled
 0001:00057E80       TCustomForm.SetTransparentColor
 0001:00057E4C       TCustomForm.SetTransparentColorValue
 0001:000531AC       TCustomForm.SetVisible
 0001:00055680       TCustomForm.SetWindowFocus
 0001:0005427C       TCustomForm.SetWindowMenu
 0001:00054740       TCustomForm.SetWindowState
 0001:0005479C       TCustomForm.SetWindowToMonitor
 0001:000573A0       TCustomForm.Show
 0001:00057468       TCustomForm.ShowModal
 0001:000577D4       TCustomForm.UpdateActions
 0001:000532EC       TCustomForm.ValidateRename
 0001:0005320C       TCustomForm.VisibleChanging
 0001:00053280       TCustomForm.WantChildKey
 0001:00056114       TCustomForm.WMActivate
 0001:000561A0       TCustomForm.WMClose
 0001:00055F68       TCustomForm.WMCommand
 0001:00055EF4       TCustomForm.WMDestroy
 0001:000564A4       TCustomForm.WMEnterMenuLoop
 0001:00055C8C       TCustomForm.WMEraseBkgnd
 0001:00056744       TCustomForm.WMGetMinMaxInfo
 0001:000565C0       TCustomForm.WMHelp
 0001:00055C1C       TCustomForm.WMIconEraseBkgnd
 0001:00055FB4       TCustomForm.WMInitMenuPopup
 0001:000563EC       TCustomForm.WMMDIActivate
 0001:00055FE4       TCustomForm.WMMenuChar
 0001:00056034       TCustomForm.WMMenuSelect
 0001:00055E08       TCustomForm.WMNCCreate
 0001:00055E44       TCustomForm.WMNCLButtonDown
 0001:0005645C       TCustomForm.WMNextDlgCtl
 0001:00055B80       TCustomForm.WMPaint
 0001:00055CD0       TCustomForm.WMQueryDragIcon
 0001:000561B8       TCustomForm.WMQueryEndSession
 0001:00057894       TCustomForm.WMSettingChange
 0001:00056330       TCustomForm.WMShowWindow
 0001:00056270       TCustomForm.WMSysCommand
 0001:00056854       TCustomForm.WMWindowPosChanging
 0001:0005333C       TCustomForm.WndProc
 0001:00052C18       TCustomForm.WritePixelsPerInch
 0001:00052BF4       TCustomForm.WriteTextHeight
 0001:000454E8       TCustomImageList.Add
 0001:00045BB4       TCustomImageList.AddImages
 0001:00045BE0       TCustomImageList.Assign
 0001:00045CE0       TCustomImageList.AssignTo
 0001:00046818       TCustomImageList.BeginUpdate
 0001:00045EA4       TCustomImageList.Change
 0001:00045DCC       TCustomImageList.CheckImage
 0001:00045688       TCustomImageList.Clear
 0001:000459F4       TCustomImageList.CopyImages
 0001:00044FE4       TCustomImageList.Create
 0001:00045428       TCustomImageList.CreateImageList
 0001:00046168       TCustomImageList.DefineProperties
 0001:000455EC       TCustomImageList.Delete
 0001:00045048       TCustomImageList.Destroy
 0001:0004572C       TCustomImageList.DoDraw
 0001:0004595C       TCustomImageList.Draw
 0001:0004599C       TCustomImageList.Draw
 0001:00046828       TCustomImageList.EndUpdate
 0001:0004600C       TCustomImageList.Equal
 0001:000453E4       TCustomImageList.FreeHandle
 0001:000456EC       TCustomImageList.GetBkColor
 0001:000455B8       TCustomImageList.GetCount
 0001:00045350       TCustomImageList.GetHandle
 0001:00045E88       TCustomImageList.GetHotSpot
 0001:00045374       TCustomImageList.GetImageHandle
 0001:000451B8       TCustomImageList.HandleAllocated
 0001:000451D4       TCustomImageList.HandleNeeded
 0001:000451F0       TCustomImageList.InitBitmap
 0001:000450D8       TCustomImageList.Initialize
 0001:000461C0       TCustomImageList.ReadD2Stream
 0001:0004646C       TCustomImageList.ReadD3Stream
 0001:00046638       TCustomImageList.ReadData
 0001:00045F84       TCustomImageList.RegisterChanges
 0001:000456A0       TCustomImageList.SetBkColor
 0001:00045E54       TCustomImageList.SetDrawingStyle
 0001:00045310       TCustomImageList.SetHandle
 0001:000452C0       TCustomImageList.SetNewDimensions
 0001:00045F1C       TCustomImageList.UnRegisterChanges
 0001:000466CC       TCustomImageList.WriteData
 0001:0002CD6C       TCustomMemo.Create
 0001:0002CE5C       TCustomMemo.CreateParams
 0001:0002CED8       TCustomMemo.CreateWindowHandle
 0001:0002CE1C       TCustomMemo.Destroy
 0001:0002D00C       TCustomMemo.GetCaretPos
 0001:0002D0CC       TCustomMemo.GetControlsAlignment
 0001:0002D22C       TCustomMemo.KeyPress
 0001:0002D0E8       TCustomMemo.Loaded
 0001:0002D104       TCustomMemo.SetAlignment
 0001:0002D07C       TCustomMemo.SetCaretPos
 0001:0002D138       TCustomMemo.SetLines
 0001:0002D15C       TCustomMemo.SetScrollBars
 0001:0002D190       TCustomMemo.SetWordWrap
 0001:0002D1C4       TCustomMemo.WMGetDlgCode
 0001:0002D210       TCustomMemo.WMNCDestroy
 0001:0001717C       TCustomMemoryStream.Read
 0001:000171EC       TCustomMemoryStream.Seek
 0001:00017154       TCustomMemoryStream.SetPointer
 0001:000106CC       TCustomVariantType.BinaryOp
 0001:000106D8       TCustomVariantType.Cast
 0001:00010710       TCustomVariantType.CastTo
 0001:0001079C       TCustomVariantType.CastToOle
 0001:00010758       TCustomVariantType.Compare
 0001:00010764       TCustomVariantType.CompareOp
 0001:000107D8       TCustomVariantType.Destroy
 0001:000108B8       TCustomVariantType.DispInvoke
 0001:00010864       TCustomVariantType.IsClear
 0001:00010868       TCustomVariantType.LeftPromotion
 0001:0001087C       TCustomVariantType.OlePromotion
 0001:000108DC       TCustomVariantType.QueryInterface
 0001:00010884       TCustomVariantType.RaiseCastError
 0001:00010894       TCustomVariantType.RaiseDispError
 0001:0001088C       TCustomVariantType.RaiseInvalidOp
 0001:0001089C       TCustomVariantType.RightPromotion
 0001:000108B0       TCustomVariantType.UnaryOp
 0001:000108C4       TCustomVariantType._AddRef
 0001:000108D0       TCustomVariantType._Release
 0001:000400B0       TDockTree.AdjustDockRect
 0001:000400E0       TDockTree.BeginUpdate
 0001:0004255C       TDockTree.ControlVisibilityChanged
 0001:0003FEC8       TDockTree.Create
 0001:0004003C       TDockTree.Destroy
 0001:00042090       TDockTree.DrawSizeSplitter
 0001:000400F0       TDockTree.EndUpdate
 0001:00040184       TDockTree.FindControlZone
 0001:0004020C       TDockTree.ForEachAt
 0001:00040238       TDockTree.GetControlBounds
 0001:0004225C       TDockTree.GetNextLimit
 0001:000402C4       TDockTree.HitTest
 0001:00040304       TDockTree.InsertControl
 0001:000405B0       TDockTree.InsertNewParent
 0001:0004083C       TDockTree.InsertSibling
 0001:00040C64       TDockTree.InternalHitTest
 0001:00040D48       TDockTree.LoadFromStream
 0001:00041094       TDockTree.PaintDockFrame
 0001:000411A8       TDockTree.PaintSite
 0001:00041338       TDockTree.PositionDockRect
 0001:00041520       TDockTree.PruneZone
 0001:000415B4       TDockTree.RemoveControl
 0001:00041610       TDockTree.RemoveZone
 0001:000419A4       TDockTree.ResetBounds
 0001:00041C58       TDockTree.SaveToStream
 0001:00041ABC       TDockTree.ScaleZone
 0001:00041E5C       TDockTree.SetNewBounds
 0001:00041E94       TDockTree.SetReplacingControl
 0001:00041EB8       TDockTree.ShiftZone
 0001:00041F04       TDockTree.SplitterMouseDown
 0001:00041F80       TDockTree.SplitterMouseUp
 0001:00042034       TDockTree.UpdateAll
 0001:0004206C       TDockTree.UpdateZone
 0001:00042708       TDockTree.WindowProc
 0001:0003F5AC       TDockZone.Create
 0001:0003FD6C       TDockZone.ExpandZoneLimit
 0001:0003FEA8       TDockZone.FirstVisibleChild
 0001:0003F5F0       TDockZone.GetChildCount
 0001:0003FA28       TDockZone.GetControlName
 0001:0003F850       TDockZone.GetHeightWidth
 0001:0003F6C0       TDockZone.GetLimitBegin
 0001:0003F738       TDockZone.GetLimitSize
 0001:0003F7B0       TDockZone.GetTopLeft
 0001:0003F664       TDockZone.GetVisible
 0001:0003F628       TDockZone.GetVisibleChildCount
 0001:0003FCE0       TDockZone.GetZoneLimit
 0001:0003FE50       TDockZone.NextVisible
 0001:0003FE70       TDockZone.PrevVisible
 0001:0003F958       TDockZone.ResetChildren
 0001:0003FDCC       TDockZone.ResetZoneLimits
 0001:0003FA80       TDockZone.SetControlName
 0001:0003FD20       TDockZone.SetZoneLimit
 0001:0003FB50       TDockZone.Update
 0001:00031590       TDragControlObject.GetDragCursor
 0001:000315C8       TDragControlObject.GetDragImages
 0001:000315E8       TDragControlObject.HideDragImage
 0001:00031614       TDragControlObject.ShowDragImage
 0001:00031640       TDragControlObjectEx.BeforeDestruction
 0001:000317EC       TDragDockObject.AdjustDockRect
 0001:000316FC       TDragDockObject.Assign
 0001:0003164C       TDragDockObject.Create
 0001:000316C0       TDragDockObject.Destroy
 0001:0003189C       TDragDockObject.DrawDragDockImage
 0001:00031784       TDragDockObject.EndDrag
 0001:000318BC       TDragDockObject.EraseDragDockImage
 0001:000318DC       TDragDockObject.GetDragCursor
 0001:000318FC       TDragDockObject.GetFrameWidth
 0001:00031914       TDragDockObjectEx.BeforeDestruction
 0001:0003F184       TDragImageList.BeginDrag
 0001:0003F008       TDragImageList.CombineDragCursor
 0001:0003F1FC       TDragImageList.DragLock
 0001:0003F2A8       TDragImageList.DragMove
 0001:0003F274       TDragImageList.DragUnlock
 0001:0003F33C       TDragImageList.EndDrag
 0001:0003F31C       TDragImageList.HideDragImage
 0001:0003F148       TDragImageList.SetDragCursor
 0001:0003F0DC       TDragImageList.SetDragImage
 0001:0003F2FC       TDragImageList.ShowDragImage
 0001:0003147C       TDragObject.AfterConstruction
 0001:0003117C       TDragObject.Assign
 0001:00031460       TDragObject.BeforeDestruction
 0001:000311EC       TDragObject.Capture
 0001:00031218       TDragObject.Finished
 0001:000313AC       TDragObject.GetDragCursor
 0001:00031394       TDragObject.GetDragImages
 0001:00031230       TDragObject.GetName
 0001:000313DC       TDragObject.HideDragImage
 0001:000313E8       TDragObject.Instance
 0001:0003140C       TDragObject.MainWndProc
 0001:00031264       TDragObject.ReleaseCapture
 0001:00031400       TDragObject.ShowDragImage
 0001:00031284       TDragObject.WndProc
 0002:00000064       Ten
 0002:00000314       TerminateProcList
 0002:0000204A       Test8086
 0002:00000964       TextConversionFormat
 0001:00008C5C       TextToFloat
 0001:00047BF4       TextToShortCut
 0001:00017694       TFiler.Create
 0001:000176F0       TFiler.Destroy
 0001:00017730       TFiler.SetRoot
 0001:00016F5C       TFileStream.Create
 0001:00016FAC       TFileStream.Create
 0001:0001710C       TFileStream.Destroy
 0001:0001E828       TFont.Assign
 0001:0001E800       TFont.Changed
 0001:0001E760       TFont.Create
 0001:0001E7CC       TFont.Destroy
 0001:0001ED4C       TFont.GetCharset
 0001:0001E900       TFont.GetData
 0001:0001E9B8       TFont.GetHandle
 0001:0001EB90       TFont.GetHeight
 0001:0001EBD8       TFont.GetName
 0001:0001ED04       TFont.GetPitch
 0001:0001EC60       TFont.GetSize
 0001:0001ECBC       TFont.GetStyle
 0001:0001ED68       TFont.SetCharset
 0001:0001E984       TFont.SetColor
 0001:0001E930       TFont.SetData
 0001:0001EB68       TFont.SetHandle
 0001:0001EBAC       TFont.SetHeight
 0001:0001EBFC       TFont.SetName
 0001:0001ED20       TFont.SetPitch
 0001:0001EC8C       TFont.SetSize
 0001:0001ECD8       TFont.SetStyle
 0001:00021524       TGraphic.Changed
 0001:000214E0       TGraphic.Create
 0001:000215B8       TGraphic.DefineProperties
 0001:00021604       TGraphic.Equals
 0001:00021754       TGraphic.GetPalette
 0001:0002176C       TGraphic.GetTransparent
 0001:00021788       TGraphic.LoadFromFile
 0001:000217E4       TGraphic.Progress
 0001:00021824       TGraphic.ReadData
 0001:00021840       TGraphic.SaveToFile
 0001:000218A0       TGraphic.SetPalette
 0001:000218B0       TGraphic.SetTransparent
 0001:000218E0       TGraphic.WriteData
 0001:0001E418       TGraphicsObject.Changed
 0001:0001E43C       TGraphicsObject.Lock
 0001:0001E45C       TGraphicsObject.Unlock
 0001:00016E18       THandleStream.Create
 0001:00016E68       THandleStream.Read
 0001:00016ED8       THandleStream.Seek
 0001:00016F2C       THandleStream.SetSize
 0001:00016F0C       THandleStream.SetSize
 0001:00016EA0       THandleStream.Write
 0001:00027100       THelpManager.AssignHelpSelector
 0001:00026B1C       THelpManager.CallSpecialWinHelp
 0001:000266CC       THelpManager.Create
 0001:00027328       THelpManager.Destroy
 0001:00026910       THelpManager.DoSoftShutDown
 0001:00026954       THelpManager.DoTableOfContents
 0001:0002721C       THelpManager.GetHandle
 0001:00027238       THelpManager.GetHelpFile
 0001:00027168       THelpManager.Hook
 0001:00026758       THelpManager.RegisterViewer
 0001:00027258       THelpManager.Release
 0001:00026EAC       THelpManager.ShowContextHelp
 0001:00026C4C       THelpManager.ShowHelp
 0001:00026FD0       THelpManager.ShowTableOfContents
 0001:00026FE4       THelpManager.ShowTopicHelp
 0001:000268B8       THelpManager.UnloadAllViewers
 0001:00026684       THelpViewerNode.Create
 0002:00000978       ThemeDataNames
 0002:00002A38       ThemeLibrary
 0001:0002A634       Themes
 0001:00029C80       ThemeServices
 0002:00000970       ThemeServicesClass
 0001:0002DB48       THintAction.Create
 0001:0003EC58       THintWindow.ActivateHint
 0001:0003EE70       THintWindow.ActivateHintData
 0001:0003EEA4       THintWindow.CalcHintRect
 0001:0003EBA4       THintWindow.CMTextChanged
 0001:0003E8C8       THintWindow.Create
 0001:0003E94C       THintWindow.CreateParams
 0001:0003EAFC       THintWindow.IsHintMsg
 0001:0003EF0C       THintWindow.NCPaint
 0001:0003EA4C       THintWindow.Paint
 0001:0003EB90       THintWindow.ReleaseHandle
 0001:0003E9CC       THintWindow.WMNCHitTest
 0001:0003E9E8       THintWindow.WMNCPaint
 0001:0003EF80       THintWindow.WMPrint
 0002:00002686       ThousandSeparator
 0002:00002868       ThreadLock
 0001:0002482C       TIcon.Assign
 0001:00024788       TIcon.Create
 0001:000247F0       TIcon.Destroy
 0001:000248A4       TIcon.Draw
 0001:000248F8       TIcon.GetEmpty
 0001:0002492C       TIcon.GetHandle
 0001:00024950       TIcon.GetHeight
 0001:0002497C       TIcon.GetWidth
 0001:000249A8       TIcon.HandleNeeded
 0001:00024A3C       TIcon.ImageNeeded
 0001:00024D24       TIcon.LoadFromClipboardFormat
 0001:00024B00       TIcon.LoadFromStream
 0001:00024BC0       TIcon.NewImage
 0001:00024D44       TIcon.SaveToClipboardFormat
 0001:00024CE8       TIcon.SaveToStream
 0001:00024C48       TIcon.SetHandle
 0001:00024C70       TIcon.SetHeight
 0001:00024CA4       TIcon.SetTransparent
 0001:00024CB4       TIcon.SetWidth
 0001:00024724       TIconImage.Destroy
 0001:00024760       TIconImage.FreeHandle
 0002:00002698       TimeAMString
 0002:0000269C       TimePMString
 0002:00002694       TimeSeparator
 0001:00013D1C       TIntConst.Create
 0001:00004C08       TInterfacedObject.AfterConstruction
 0001:00004C14       TInterfacedObject.BeforeDestruction
 0001:00004C24       TInterfacedObject.NewInstance
 0001:00004C34       TInterfacedObject.QueryInterface
 0001:00004C5C       TInterfacedObject._AddRef
 0001:00004C70       TInterfacedObject._Release
 0001:00014F6C       TInterfacedPersistent.AfterConstruction
 0001:00015028       TInterfacedPersistent.QueryInterface
 0001:00014FC8       TInterfacedPersistent._AddRef
 0001:00014FF8       TInterfacedPersistent._Release
 0001:00014350       TList.Add
 0001:000143A8       TList.Clear
 0001:000143C8       TList.Delete
 0001:00014324       TList.Destroy
 0001:000144A4       TList.Error
 0001:00014464       TList.Error
 0001:00014504       TList.Expand
 0001:00014530       TList.First
 0001:00014550       TList.Get
 0001:00014598       TList.Grow
 0001:000145F0       TList.IndexOf
 0001:0001463C       TList.Insert
 0001:000146EC       TList.Last
 0001:000148D8       TList.Notify
 0001:00014710       TList.Put
 0001:000147A0       TList.Remove
 0001:000147D4       TList.SetCapacity
 0001:00014830       TList.SetCount
 0002:0000266C       tlsBuffer
 0001:00005250       TlsGetValue
 0002:000000A4       TlsIndex
 0002:FFB96010       TlsLast
 0001:00005258       TlsSetValue
 0001:0004D478       TMainMenu.GetHandle
 0001:0004D440       TMainMenu.ItemChanged
 0001:0004D36C       TMainMenu.MenuChanged
 0001:0004D3D4       TMainMenu.Merge
 0001:0004D328       TMainMenu.SetAutoMerge
 0001:0004D40C       TMainMenu.Unmerge
 0001:00017280       TMemoryStream.Clear
 0001:00017244       TMemoryStream.Destroy
 0001:000172A4       TMemoryStream.LoadFromStream
 0001:00017368       TMemoryStream.Realloc
 0001:000172EC       TMemoryStream.SetCapacity
 0001:00017320       TMemoryStream.SetSize
 0001:00017430       TMemoryStream.Write
 0001:0002CBEC       TMemoStrings.Clear
 0001:0002CB2C       TMemoStrings.Delete
 0001:0002C908       TMemoStrings.Get
 0001:0002C87C       TMemoStrings.GetCount
 0001:0002CC68       TMemoStrings.GetTextStr
 0001:0002C9F4       TMemoStrings.Insert
 0001:0002C960       TMemoStrings.Put
 0001:0002CC88       TMemoStrings.SetTextStr
 0001:0002CC04       TMemoStrings.SetUpdateState
 0001:0004CADC       TMenu.AdjustBiDiBehavior
 0001:0004C0A8       TMenu.Create
 0001:0004C174       TMenu.Destroy
 0001:0004C414       TMenu.DispatchCommand
 0001:0004C450       TMenu.DispatchPopup
 0001:0004C870       TMenu.DoBiDiModeChanged
 0001:0004CBAC       TMenu.DoChange
 0001:0004D0DC       TMenu.DoGetMenuString
 0001:0004C340       TMenu.FindItem
 0001:0004D298       TMenu.GetAutoHotkeys
 0001:0004D2E0       TMenu.GetAutoLineReduction
 0001:0004C1BC       TMenu.GetChildren
 0001:0004C1E8       TMenu.GetHandle
 0001:0004C37C       TMenu.GetHelpContext
 0001:0004CC48       TMenu.ImageListChange
 0001:0004C854       TMenu.IsBiDiModeStored
 0001:0004C550       TMenu.IsOwnerDraw
 0001:0004CD0C       TMenu.IsRightToLeft
 0001:0004C72C       TMenu.IsShortCut
 0001:0004CBE0       TMenu.Loaded
 0001:0004CC00       TMenu.MenuChanged
 0001:0004CCD0       TMenu.Notification
 0001:0004D25C       TMenu.ParentBiDiModeChanged
 0001:0004D21C       TMenu.ParentBiDiModeChanged
 0001:0004CEE4       TMenu.ProcessMenuChar
 0001:0004D2BC       TMenu.SetAutoHotkeys
 0001:0004D304       TMenu.SetAutoLineReduction
 0001:0004D1BC       TMenu.SetBiDiMode
 0001:0004C208       TMenu.SetChildOrder
 0001:0004CC6C       TMenu.SetImages
 0001:0004CAB0       TMenu.SetOwnerDraw
 0001:0004D1F0       TMenu.SetParentBiDiMode
 0001:0004CB5C       TMenu.SetWindowHandle
 0001:0004CA20       TMenu.UpdateImage
 0001:0004C26C       TMenu.UpdateItems
 0001:00047EC8       TMenuActionLink.AssignClient
 0001:00047EEC       TMenuActionLink.IsAutoCheckLinked
 0001:00047F24       TMenuActionLink.IsCaptionLinked
 0001:00047F70       TMenuActionLink.IsCheckedLinked
 0001:00047FB4       TMenuActionLink.IsEnabledLinked
 0001:00048088       TMenuActionLink.IsGroupIndexLinked
 0001:00047FF8       TMenuActionLink.IsHelpContextLinked
 0001:0004803C       TMenuActionLink.IsHintLinked
 0001:000480DC       TMenuActionLink.IsImageIndexLinked
 0001:000481B8       TMenuActionLink.IsOnExecuteLinked
 0001:00048124       TMenuActionLink.IsShortCutLinked
 0001:00048170       TMenuActionLink.IsVisibleLinked
 0001:000481F4       TMenuActionLink.SetAutoCheck
 0001:00048220       TMenuActionLink.SetCaption
 0001:0004824C       TMenuActionLink.SetChecked
 0001:00048278       TMenuActionLink.SetEnabled
 0001:000482A4       TMenuActionLink.SetHelpContext
 0001:000482CC       TMenuActionLink.SetHint
 0001:000482FC       TMenuActionLink.SetImageIndex
 0001:00048380       TMenuActionLink.SetOnExecute
 0001:00048328       TMenuActionLink.SetShortCut
 0001:00048354       TMenuActionLink.SetVisible
 0001:0004B0E8       TMenuItem.ActionChange
 0001:0004AD28       TMenuItem.Add
 0001:0004A0E4       TMenuItem.AdvancedDrawItem
 0001:0004853C       TMenuItem.AppendTo
 0001:0004B480       TMenuItem.AssignTo
 0001:0004AC0C       TMenuItem.Click
 0001:000483B0       TMenuItem.Create
 0001:00048BD0       TMenuItem.DefineProperties
 0001:0004AB78       TMenuItem.Delete
 0001:00048450       TMenuItem.Destroy
 0001:0004B27C       TMenuItem.DoActionChange
 0001:00048C24       TMenuItem.DoDrawText
 0001:00048E58       TMenuItem.DrawItem
 0001:0004A78C       TMenuItem.GetAction
 0001:0004A7B8       TMenuItem.GetActionLinkClass
 0001:0004C008       TMenuItem.GetAutoHotkeys
 0001:0004C058       TMenuItem.GetAutoLineReduction
 0001:0004AE64       TMenuItem.GetBitmap
 0001:0004A96C       TMenuItem.GetChildren
 0001:0004A7D0       TMenuItem.GetCount
 0001:00048B64       TMenuItem.GetHandle
 0001:0004A218       TMenuItem.GetImageList
 0001:0004A7FC       TMenuItem.GetItem
 0001:0004A8C8       TMenuItem.GetMenuIndex
 0001:0004AFC4       TMenuItem.GetParentComponent
 0001:0004B06C       TMenuItem.GetParentMenu
 0001:0004A518       TMenuItem.HasParent
 0001:0004B5EC       TMenuItem.ImageListChange
 0001:0004ACF4       TMenuItem.IndexOf
 0001:0004AA68       TMenuItem.InitiateAction
 0001:0004AF84       TMenuItem.InitiateActions
 0001:0004AA88       TMenuItem.Insert
 0001:0004B8C4       TMenuItem.InternalRethinkHotkeys
 0001:0004BE40       TMenuItem.InternalRethinkLines
 0001:0004B2AC       TMenuItem.IsCaptionStored
 0001:0004B2E0       TMenuItem.IsCheckedStored
 0001:0004B314       TMenuItem.IsEnabledStored
 0001:0004B37C       TMenuItem.IsHelpContextStored
 0001:0004B348       TMenuItem.IsHintStored
 0001:0004B3B0       TMenuItem.IsImageIndexStored
 0001:0004BE10       TMenuItem.IsLine
 0001:0004B44C       TMenuItem.IsOnClickStored
 0001:0004B3E4       TMenuItem.IsShortCutStored
 0001:0004B418       TMenuItem.IsVisibleStored
 0001:00048990       TMenuItem.Loaded
 0001:0004A2C8       TMenuItem.MeasureItem
 0001:0004AD8C       TMenuItem.MenuChanged
 0001:0004891C       TMenuItem.MergeWith
 0001:0004B51C       TMenuItem.Notification
 0001:00048848       TMenuItem.PopulateMenu
 0001:000488BC       TMenuItem.ReadShortCutText
 0001:000489DC       TMenuItem.RebuildHandle
 0001:0004AD50       TMenuItem.Remove
 0001:0004AEA8       TMenuItem.SetAction
 0001:0004BDE0       TMenuItem.SetAutoHotkeys
 0001:0004BFD8       TMenuItem.SetAutoLineReduction
 0001:0004AF40       TMenuItem.SetBitmap
 0001:0004A52C       TMenuItem.SetBreak
 0001:0004A55C       TMenuItem.SetCaption
 0001:0004A608       TMenuItem.SetChecked
 0001:0004A9B4       TMenuItem.SetChildOrder
 0001:0004A9E0       TMenuItem.SetDefault
 0001:0004A680       TMenuItem.SetEnabled
 0001:0004A724       TMenuItem.SetGroupIndex
 0001:0004A898       TMenuItem.SetImageIndex
 0001:0004A8FC       TMenuItem.SetMenuIndex
 0001:0004B000       TMenuItem.SetParentComponent
 0001:0004B0A0       TMenuItem.SetRadioItem
 0001:0004A834       TMenuItem.SetShortCut
 0001:0004B588       TMenuItem.SetSubMenuImages
 0001:0004A868       TMenuItem.SetVisible
 0001:0004ADF0       TMenuItem.SubItemChanged
 0001:0004A594       TMenuItem.TurnSiblingsOff
 0001:0004B648       TMenuItem.UpdateItems
 0001:00048AE4       TMenuItem.VerifyGroupIndex
 0001:0004DE44       TMenuItemStack.ClearItem
 0001:000584A0       TMonitor.GetBoundsRect
 0001:00058434       TMonitor.GetHeight
 0001:00058410       TMonitor.GetLeft
 0001:00058458       TMonitor.GetTop
 0001:0005847C       TMonitor.GetWidth
 0001:000584DC       TMonitor.GetWorkareaRect
 0001:00042B74       TMouse.Create
 0001:00042C18       TMouse.Destroy
 0001:00042C54       TMouse.GetCapture
 0001:00042C6C       TMouse.GetCursorPos
 0001:00042C8C       TMouse.GetMouseData
 0001:00042CB0       TMouse.GetNativeData
 0001:00042CEC       TMouse.GetRegisteredData
 0001:00042D34       TMouse.SetCapture
 0001:00042D68       TMouse.SettingChanged
 0001:0000D198       TMultiReadExclusiveWriteSynchronizer.BeginRead
 0001:0000D050       TMultiReadExclusiveWriteSynchronizer.BeginWrite
 0001:0000CFC8       TMultiReadExclusiveWriteSynchronizer.BlockReaders
 0001:0000CEDC       TMultiReadExclusiveWriteSynchronizer.Create
 0001:0000CF6C       TMultiReadExclusiveWriteSynchronizer.Destroy
 0001:0000D220       TMultiReadExclusiveWriteSynchronizer.EndRead
 0001:0000D12C       TMultiReadExclusiveWriteSynchronizer.EndWrite
 0001:0000CFF8       TMultiReadExclusiveWriteSynchronizer.UnblockOneWriter
 0001:0000CFE0       TMultiReadExclusiveWriteSynchronizer.UnblockReaders
 0001:0000D010       TMultiReadExclusiveWriteSynchronizer.WaitForReadSignal
 0001:0000D030       TMultiReadExclusiveWriteSynchronizer.WaitForWriteSignal
 0001:00002584       TObject.AfterConstruction
 0001:00002588       TObject.BeforeDestruction
 0001:00002570       TObject.ClassInfo
 0001:00002298       TObject.ClassName
 0001:000022AC       TObject.ClassNameIs
 0001:000022D4       TObject.ClassParent
 0001:00002290       TObject.ClassType
 0001:000023AC       TObject.CleanupInstance
 0001:00002318       TObject.Create
 0001:00002580       TObject.DefaultHandler
 0001:00002338       TObject.Destroy
 0001:0000258C       TObject.Dispatch
 0001:00002604       TObject.FieldAddress
 0001:00002348       TObject.Free
 0001:000022FC       TObject.FreeInstance
 0001:000023FC       TObject.GetInterface
 0001:00002490       TObject.GetInterfaceEntry
 0001:0000255C       TObject.InheritsFrom
 0001:00002354       TObject.InitInstance
 0001:00002310       TObject.InstanceSize
 0001:000025B4       TObject.MethodAddress
 0001:000022E0       TObject.NewInstance
 0001:00002578       TObject.SafeCallException
 0001:000255C4       TObjectList.Create
 0001:0002560C       TObjectList.GetItem
 0001:00025630       TObjectList.Insert
 0001:00025654       TObjectList.Notify
 0002:00000DFC       TOK_ARL
 0002:00000E00       TOK_ARR
 0002:00000E04       TOK_ARRAY
 0002:00000DDC       TOK_BS
 0002:00000DF4       TOK_CBL
 0002:00000DF8       TOK_CBR
 0002:00000E0C       TOK_COM
 0002:00000DEC       TOK_CR
 0002:00000DD4       TOK_CRLF
 0002:00000E10       TOK_DQT
 0002:00000E18       TOK_FALSE
 0002:00000DE8       TOK_FF
 0002:00000DE4       TOK_LF
 0002:00000DF0       TOK_NULL
 0002:00000E08       TOK_OBJ
 0002:00000DD8       TOK_SP
 0002:00000DE0       TOK_TAB
 0002:00000E14       TOK_TRUE
 0001:000045F4       ToLongPath
 0001:000284A0       ToolWin
 0001:000256CC       TOrderedList.Create
 0001:00025720       TOrderedList.Destroy
 0001:0002575C       TOrderedList.PeekItem
 0001:0002568C       TOrderedList.Pop
 0001:00025784       TOrderedList.PopItem
 0001:000256A8       TOrderedList.Push
 0001:00024F7C       TPatternManager.AllocPattern
 0001:00024ED0       TPatternManager.Create
 0001:00025048       TPatternManager.CreateBitmap
 0001:00024F14       TPatternManager.Destroy
 0001:00025168       TPatternManager.FreePatterns
 0001:00024F4C       TPatternManager.Lock
 0001:00024F64       TPatternManager.Unlock
 0001:0001EE1C       TPen.Assign
 0001:0001ED94       TPen.Create
 0001:0001EDE8       TPen.Destroy
 0001:0001EF58       TPen.GetColor
 0001:0001EED4       TPen.GetData
 0001:0001EFA0       TPen.GetHandle
 0001:0001F078       TPen.GetStyle
 0001:0001F0C0       TPen.GetWidth
 0001:0001EF74       TPen.SetColor
 0001:0001EF04       TPen.SetData
 0001:0001F044       TPen.SetMode
 0001:0001F094       TPen.SetStyle
 0001:0001F0DC       TPen.SetWidth
 0001:00014D6C       TPersistent.Assign
 0001:00014D98       TPersistent.AssignError
 0001:00014E70       TPersistent.AssignTo
 0001:00014E8C       TPersistent.DefineProperties
 0001:00014D30       TPersistent.Destroy
 0001:00014E9C       TPersistent.GetNamePath
 0001:00014F54       TPersistent.GetOwner
 0001:0004DAF0       TPopupList.Add
 0001:0004D4A8       TPopupList.MainWndProc
 0001:0004DB28       TPopupList.Remove
 0001:0004D4FC       TPopupList.WndProc
 0001:0004DB58       TPopupMenu.Create
 0001:0004DBF4       TPopupMenu.Destroy
 0001:0004DC34       TPopupMenu.DoPopup
 0001:0004DC5C       TPopupMenu.GetHelpContext
 0001:0004DD68       TPopupMenu.Popup
 0001:0004DC94       TPopupMenu.SetBiDiModeFromPopupControl
 0001:0004DC78       TPopupMenu.SetHelpContext
 0001:0004DCFC       TPopupMenu.UseRightToLeftAlignment
 0001:00067B80       TPPDemo_Frm.Button1Click
 0001:00067F14       TPPDemo_Frm.Button2Click
 0001:00067F2C       TPPDemo_Frm.FormShow
 0001:00067474       TPPDemo_Frm.PP_PayFinish
 0001:000674B8       TPPDemo_Frm.PP_SumPayJE
 0001:00017824       TPropFixup.Create
 0001:00017898       TPropFixup.MakeGlobalReference
 0001:00017904       TPropFixup.ResolveReference
 0001:00017928       TPropIntfFixup.ResolveReference
 0001:00005D98       TrackPopupMenu
 0001:0000AEA4       TranslateDateFormat
 0001:00005DA0       TranslateMDISysAccel
 0001:00005DA8       TranslateMessage
 0001:0000E998       TranslateResult
 0001:000202A0       TransparentStretchBlt
 0001:00057754       TraverseClients
 0001:00057904       TraverseClients
 0001:00057A34       TraverseClients
 0001:0003BCD0       TraverseControls
 0001:00017F6C       TReader.CheckValue
 0001:00017FE0       TReader.DefineBinaryProperty
 0001:00017F9C       TReader.DefineProperty
 0001:00017F1C       TReader.Destroy
 0001:00018230       TReader.DoFixupReferences
 0001:000180C0       TReader.EndOfList
 0001:000180E4       TReader.Error
 0001:0001A4DC       TReader.FindAncestorComponent
 0001:0001A610       TReader.FindComponentClass
 0001:0001811C       TReader.FindMethod
 0001:00018364       TReader.FlushBuffer
 0001:00018394       TReader.FreeFixups
 0001:000183F4       TReader.GetFieldClass
 0001:000184A4       TReader.GetPosition
 0001:000184D0       TReader.NextValue
 0001:000184F4       TReader.PropertyError
 0001:00018514       TReader.Read
 0001:000185B4       TReader.ReadBoolean
 0001:00018560       TReader.ReadBuffer
 0001:000185D4       TReader.ReadChar
 0001:00018638       TReader.ReadCollection
 0001:00018B60       TReader.ReadComponent
 0001:00018F7C       TReader.ReadCurrency
 0001:00018D9C       TReader.ReadData
 0001:00018E10       TReader.ReadDataInner
 0001:00018FD0       TReader.ReadDate
 0001:00018EE4       TReader.ReadFloat
 0001:0001901C       TReader.ReadIdent
 0001:00019198       TReader.ReadInt64
 0001:00019128       TReader.ReadInteger
 0001:000191E0       TReader.ReadListBegin
 0001:000191F4       TReader.ReadListEnd
 0001:00019208       TReader.ReadPrefix
 0001:00019380       TReader.ReadProperty
 0001:0001973C       TReader.ReadPropValue
 0001:00019AC4       TReader.ReadRootComponent
 0001:00019DF8       TReader.ReadSet
 0001:00019EC0       TReader.ReadSignature
 0001:00018F30       TReader.ReadSingle
 0001:00019EF4       TReader.ReadStr
 0001:00019F3C       TReader.ReadString
 0001:0001A0F8       TReader.ReadValue
 0001:0001A8D0       TReader.ReadVariant
 0001:0001A000       TReader.ReadWideString
 0001:0001A5A4       TReader.ReferenceName
 0001:0001A5D0       TReader.SetName
 0001:0001A6A8       TReader.SkipBytes
 0001:0001A428       TReader.SkipComponent
 0001:0001A3D8       TReader.SkipProperty
 0001:0001A118       TReader.SkipSetBody
 0001:0001A23C       TReader.SkipValue
 0002:00000B6C       TreeStreamEndFlag
 0001:00012DD4       TRegGroup.AddClass
 0001:00012DF4       TRegGroup.BestClass
 0001:00012E68       TRegGroup.BestGroup
 0001:00012EFC       TRegGroup.Create
 0001:00012F84       TRegGroup.Destroy
 0001:00012FD8       TRegGroup.GetClass
 0001:0001305C       TRegGroup.InGroup
 0001:000130B4       TRegGroup.RegisterClass
 0001:00013160       TRegGroup.Registered
 0001:000131B8       TRegGroup.UnregisterModuleClasses
 0001:00013294       TRegGroups.Activate
 0001:000132FC       TRegGroups.Create
 0001:00013388       TRegGroups.Destroy
 0001:00013404       TRegGroups.FindGroup
 0001:00013468       TRegGroups.GetClass
 0001:00013560       TRegGroups.GroupWith
 0001:00013644       TRegGroups.Lock
 0001:0001365C       TRegGroups.RegisterClass
 0001:0001368C       TRegGroups.Registered
 0001:000136E4       TRegGroups.StartGroup
 0001:00013750       TRegGroups.Unlock
 0001:00013768       TRegGroups.UnregisterModuleClasses
 0001:0001DB3C       TResourceManager.AllocResource
 0001:0001DD90       TResourceManager.AssignResource
 0001:0001DD0C       TResourceManager.ChangeResource
 0001:0001DA88       TResourceManager.Create
 0001:0001DADC       TResourceManager.Destroy
 0001:0001DC40       TResourceManager.FreeResource
 0001:0001DB0C       TResourceManager.Lock
 0001:0001DB24       TResourceManager.Unlock
 0001:000174C0       TResourceStream.Create
 0001:0001761C       TResourceStream.Destroy
 0001:00017590       TResourceStream.Initialize
 0001:00017664       TResourceStream.Write
 0001:000073D4       Trim
 0002:00002788       TrueBoolStrs
 0001:0000903C       TryEncodeDate
 0001:00008ED4       TryEncodeTime
 0001:00001004       TryHarder
 0001:000079A0       TryStrToBool
 0001:00008E68       TryStrToCurr
 0001:0000AA00       TryStrToDateTime
 0001:00008DF8       TryStrToFloat
 0001:00008DD0       TryStrToFloat
 0001:00008E30       TryStrToFloat
 0001:00007890       TryStrToInt
 0001:0000A9BC       TryStrToTime
 0001:00058A88       TScreen.AddDataModule
 0001:000589E0       TScreen.AddForm
 0001:000596EC       TScreen.AlignForm
 0001:00059664       TScreen.AlignForms
 0001:00058518       TScreen.Create
 0001:00058AC8       TScreen.CreateCursors
 0001:000586BC       TScreen.Destroy
 0001:00058B3C       TScreen.DestroyCursors
 0001:0005917C       TScreen.DisableAlign
 0001:00059190       TScreen.EnableAlign
 0001:00058EFC       TScreen.GetCursors
 0001:00058944       TScreen.GetCustomFormCount
 0001:00058920       TScreen.GetCustomForms
 0001:00058EBC       TScreen.GetDataModule
 0001:00058EE0       TScreen.GetDataModuleCount
 0001:00058E38       TScreen.GetDefaultIME
 0001:00058844       TScreen.GetDesktopHeight
 0001:00058824       TScreen.GetDesktopLeft
 0001:00058804       TScreen.GetDesktopTop
 0001:00058864       TScreen.GetDesktopWidth
 0001:000588E0       TScreen.GetForm
 0001:00058904       TScreen.GetFormCount
 0001:000587C4       TScreen.GetHeight
 0001:00058C18       TScreen.GetImes
 0001:00059014       TScreen.GetMetricSettings
 0001:00058884       TScreen.GetMonitor
 0001:000588A8       TScreen.GetMonitorCount
 0001:000587E4       TScreen.GetWidth
 0001:00058E60       TScreen.IconFontChanged
 0001:00058BD0       TScreen.InsertCursor
 0001:000591C8       TScreen.Realign
 0001:00058AA8       TScreen.RemoveDataModule
 0001:00058A28       TScreen.RemoveForm
 0001:00059774       TScreen.ResetFonts
 0001:00058F58       TScreen.SetCursor
 0001:00058960       TScreen.UpdateLastActive
 0001:00051F8C       TScrollingWinControl.AdjustClientRect
 0001:00051790       TScrollingWinControl.AlignControls
 0001:000517BC       TScrollingWinControl.AutoScrollEnabled
 0001:00051B04       TScrollingWinControl.AutoScrollInView
 0001:00051934       TScrollingWinControl.CalcAutoRange
 0001:00051DD0       TScrollingWinControl.ChangeScale
 0001:00052014       TScrollingWinControl.CMBiDiModeChanged
 0001:00051638       TScrollingWinControl.Create
 0001:00051724       TScrollingWinControl.CreateParams
 0001:00051748       TScrollingWinControl.CreateWnd
 0001:000516D4       TScrollingWinControl.Destroy
 0001:000517F8       TScrollingWinControl.DoFlipChildren
 0001:00051E00       TScrollingWinControl.Resizing
 0001:00051CE0       TScrollingWinControl.ScaleScrollBars
 0001:00051B38       TScrollingWinControl.ScrollInView
 0001:00051968       TScrollingWinControl.SetAutoScroll
 0001:000519C4       TScrollingWinControl.SetHorzScrollBar
 0001:000519E8       TScrollingWinControl.SetVertScrollBar
 0001:00051A0C       TScrollingWinControl.UpdateScrollBars
 0001:00051EFC       TScrollingWinControl.WMHScroll
 0001:00051E10       TScrollingWinControl.WMSize
 0001:00051F44       TScrollingWinControl.WMVScroll
 0001:00021D28       TSharedImage.Reference
 0001:00021D38       TSharedImage.Release
 0001:00044D28       TShortCutList.Add
 0001:00044D64       TShortCutList.IndexOfShortCut
 0001:00031040       TSiteList.AddSite
 0001:000310A4       TSiteList.Clear
 0001:00030FAC       TSiteList.Find
 0001:000310EC       TSiteList.GetTopSite
 0001:00032F40       TSizeConstraints.AssignTo
 0001:000330C8       TSizeConstraints.Change
 0001:00032EF0       TSizeConstraints.Create
 0001:00032FA8       TSizeConstraints.SetConstraints
 0001:000257B4       TStack.PushItem
 0001:00016CBC       TStream.CopyFrom
 0001:000169D0       TStream.GetPosition
 0001:00016A14       TStream.GetSize
 0001:00016C2C       TStream.ReadBuffer
 0001:00016DB4       TStream.ReadComponent
 0001:00016B30       TStream.Seek
 0001:00016BBC       TStream.Seek
 0001:000169F8       TStream.SetPosition
 0001:00016A60       TStream.SetSize
 0001:00016A8C       TStream.SetSize
 0001:00016A70       TStream.SetSize64
 0001:00016C74       TStream.WriteBuffer
 0001:0001C668       TStreamAdapter.Clone
 0001:0001C578       TStreamAdapter.Commit
 0001:0001C354       TStreamAdapter.CopyTo
 0001:0001C0B4       TStreamAdapter.Create
 0001:0001C10C       TStreamAdapter.Destroy
 0001:0001C5A0       TStreamAdapter.LockRegion
 0001:0001C15C       TStreamAdapter.Read
 0001:0001C58C       TStreamAdapter.Revert
 0001:0001C254       TStreamAdapter.Seek
 0001:0001C2E4       TStreamAdapter.SetSize
 0001:0001C5C8       TStreamAdapter.Stat
 0001:0001C5B4       TStreamAdapter.UnlockRegion
 0001:0001C1D8       TStreamAdapter.Write
 0001:000160A8       TStringList.Add
 0001:000160D0       TStringList.AddObject
 0001:00016148       TStringList.Changed
 0001:00016174       TStringList.Changing
 0001:000161A0       TStringList.Clear
 0001:00016990       TStringList.CompareStrings
 0001:00016940       TStringList.CustomSort
 0001:000161F4       TStringList.Delete
 0001:0001602C       TStringList.Destroy
 0001:00016294       TStringList.Exchange
 0001:00016310       TStringList.ExchangeItems
 0001:0001637C       TStringList.Find
 0001:00016414       TStringList.Get
 0001:00016460       TStringList.GetCapacity
 0001:0001647C       TStringList.GetCount
 0001:00016498       TStringList.GetObject
 0001:000164E0       TStringList.Grow
 0001:00016538       TStringList.IndexOf
 0001:00016584       TStringList.Insert
 0001:00016614       TStringList.InsertItem
 0001:000165AC       TStringList.InsertObject
 0001:000166BC       TStringList.Put
 0001:00016734       TStringList.PutObject
 0001:00016790       TStringList.QuickSort
 0001:00016854       TStringList.SetCapacity
 0001:00016880       TStringList.SetSorted
 0001:000168B8       TStringList.SetUpdateState
 0001:00016924       TStringList.Sort
 0001:00015124       TStrings.Add
 0001:00015154       TStrings.AddObject
 0001:00015188       TStrings.AddStrings
 0001:00015248       TStrings.Assign
 0001:000152EC       TStrings.BeginUpdate
 0001:00015FA8       TStrings.CompareStrings
 0001:00015370       TStrings.DefineProperties
 0001:000150E8       TStrings.Destroy
 0001:000153BC       TStrings.EndUpdate
 0001:000153E0       TStrings.Equals
 0001:0001549C       TStrings.Error
 0001:000154DC       TStrings.Error
 0001:0001553C       TStrings.Exchange
 0001:00015628       TStrings.GetCapacity
 0001:00015FCC       TStrings.GetNameValueSeparator
 0001:00015644       TStrings.GetObject
 0001:0001565C       TStrings.GetText
 0001:000156B8       TStrings.GetTextStr
 0001:00015800       TStrings.IndexOf
 0001:0001588C       TStrings.IndexOfName
 0001:00015968       TStrings.IndexOfObject
 0001:000159B4       TStrings.InsertObject
 0001:000159E8       TStrings.LoadFromFile
 0001:00015A44       TStrings.LoadFromStream
 0001:00015AF8       TStrings.Move
 0001:00015BB4       TStrings.Put
 0001:00015BF4       TStrings.PutObject
 0001:00015C08       TStrings.ReadData
 0001:00015CB8       TStrings.SaveToFile
 0001:00015D18       TStrings.SaveToStream
 0001:00015D78       TStrings.SetCapacity
 0001:00015FF8       TStrings.SetNameValueSeparator
 0001:00015D88       TStrings.SetStringsAdapter
 0001:00015DD4       TStrings.SetText
 0001:00015E2C       TStrings.SetTextStr
 0001:00015F0C       TStrings.SetUpdateState
 0001:00015F1C       TStrings.WriteData
 0001:000658C8       TSuperAnsiWriterStream.Append
 0001:00065154       TSuperArray.Add
 0001:0006521C       TSuperArray.Clear
 0001:000653C0       TSuperArray.Create
 0001:00065180       TSuperArray.Delete
 0001:00065440       TSuperArray.Destroy
 0001:00065488       TSuperArray.Expand
 0001:00065500       TSuperArray.GetO
 0001:00065290       TSuperArray.Pack
 0001:0006553C       TSuperArray.PutO
 0001:00066C24       TSuperAvlEntry.Create
 0001:00066C8C       TSuperAvlEntry.GetValue
 0001:00066CAC       TSuperAvlEntry.Hash
 0001:00066D08       TSuperAvlEntry.SetValue
 0001:00066A04       TSuperAvlIterator.Create
 0001:00066A54       TSuperAvlIterator.First
 0001:00066ABC       TSuperAvlIterator.GetIter
 0001:00066B04       TSuperAvlIterator.Next
 0001:00065DF4       TSuperAvlTree.balance
 0001:0006691C       TSuperAvlTree.Clear
 0001:00066998       TSuperAvlTree.CompareKeyNode
 0001:000669CC       TSuperAvlTree.CompareNodeNode
 0001:00065D70       TSuperAvlTree.Create
 0001:00066430       TSuperAvlTree.Delete
 0001:00065DB8       TSuperAvlTree.Destroy
 0001:00066BE4       TSuperAvlTree.doDeleteEntry
 0001:00066C00       TSuperAvlTree.GetEnumerator
 0001:00066008       TSuperAvlTree.Insert
 0001:000667FC       TSuperAvlTree.Pack
 0001:000662E4       TSuperAvlTree.Search
 0001:0005DE24       TSuperEnumerator.Create
 0001:0005DEAC       TSuperEnumerator.Destroy
 0001:0005F020       TSuperObject.AfterConstruction
 0001:0005F07C       TSuperObject.AsArray
 0001:0005EBC8       TSuperObject.AsBoolean
 0001:0005EEA4       TSuperObject.AsCurrency
 0001:0005EDA0       TSuperObject.AsDouble
 0001:0005EC7C       TSuperObject.AsInteger
 0001:0005F0D4       TSuperObject.AsJSon
 0001:00064E58       TSuperObject.AsMethod
 0001:0005F0A8       TSuperObject.AsObject
 0001:0005EFB8       TSuperObject.AsString
 0001:0005F038       TSuperObject.BeforeDestruction
 0001:00061668       TSuperObject.CalcSize
 0001:00065008       TSuperObject.call
 0001:00065054       TSuperObject.call
 0001:00061784       TSuperObject.Clear
 0001:00061A80       TSuperObject.Clone
 0001:00064740       TSuperObject.Compare
 0001:00064834       TSuperObject.Compare
 0001:0005DF94       TSuperObject.Create
 0001:00064E84       TSuperObject.Create
 0001:0005DFE8       TSuperObject.Create
 0001:0005E040       TSuperObject.Create
 0001:0005DEE4       TSuperObject.Create
 0001:0006172C       TSuperObject.Create
 0001:0005E098       TSuperObject.CreateCurrency
 0001:00061A38       TSuperObject.Delete
 0001:0005E0F0       TSuperObject.Destroy
 0001:000620D8       TSuperObject.ForcePath
 0001:00062124       TSuperObject.Format
 0001:000622F4       TSuperObject.GetA
 0001:00062388       TSuperObject.GetB
 0001:00062460       TSuperObject.GetC
 0001:000623F0       TSuperObject.GetD
 0001:0006254C       TSuperObject.GetDataPtr
 0001:00062568       TSuperObject.GetDataType
 0001:0005EFF4       TSuperObject.GetEnumerator
 0001:000624D0       TSuperObject.GetI
 0001:00064ED8       TSuperObject.GetM
 0001:000618F0       TSuperObject.GetN
 0001:000622AC       TSuperObject.GetO
 0001:00065100       TSuperObject.GetProcessing
 0001:00062584       TSuperObject.GetS
 0001:0005EBA8       TSuperObject.IsType
 0001:00062034       TSuperObject.Merge
 0001:00061D24       TSuperObject.Merge
 0001:000620B0       TSuperObject.NewInstance
 0001:00061878       TSuperObject.Pack
 0001:0005F304       TSuperObject.ParseEx
 0001:0005F170       TSuperObject.ParseString
 0001:000612E4       TSuperObject.PutB
 0001:00061404       TSuperObject.PutC
 0001:00061374       TSuperObject.PutD
 0001:00061494       TSuperObject.PutI
 0001:00064F78       TSuperObject.PutM
 0001:00061960       TSuperObject.PutN
 0001:00061268       TSuperObject.PutO
 0001:00061524       TSuperObject.PutS
 0001:000615B4       TSuperObject.QueryInterface
 0001:000615E0       TSuperObject.SaveTo
 0001:000616C8       TSuperObject.SaveTo
 0001:000625F8       TSuperObject.SaveTo
 0001:0006511C       TSuperObject.SetDataPtr
 0001:00065138       TSuperObject.SetProcessing
 0001:000643F4       TSuperObject.Validate
 0001:00062668       TSuperObject.Validate
 0001:0005E648       TSuperObject.Write
 0001:000646F8       TSuperObject._AddRef
 0001:00064714       TSuperObject._Release
 0001:00066D28       TSuperTableString.doDeleteEntry
 0001:00066DAC       TSuperTableString.GetO
 0001:00066DF4       TSuperTableString.PutO
 0001:00065BF8       TSuperTokenizer.Create
 0001:00065C64       TSuperTokenizer.Destroy
 0001:00065CA8       TSuperTokenizer.Reset
 0001:00065CE8       TSuperTokenizer.ResetLevel
 0001:00065998       TSuperUnicodeWriterStream.Append
 0001:000659C8       TSuperWriterFake.Append
 0001:000659F0       TSuperWriterFake.Append
 0001:00065A1C       TSuperWriterFake.Create
 0001:00065A68       TSuperWriterFake.Reset
 0001:00065A7C       TSuperWriterSock.Append
 0001:00065B60       TSuperWriterSock.Append
 0001:00065B8C       TSuperWriterSock.Create
 0001:00065BE4       TSuperWriterSock.Reset
 0001:00065830       TSuperWriterStream.Append
 0001:0006585C       TSuperWriterStream.Create
 0001:000658AC       TSuperWriterStream.Reset
 0001:000656B0       TSuperWriterString.Append
 0001:000655B0       TSuperWriterString.Append
 0001:000656DC       TSuperWriterString.Create
 0001:00065744       TSuperWriterString.Destroy
 0001:0006578C       TSuperWriterString.GetString
 0001:000657B0       TSuperWriterString.Reset
 0001:000657D0       TSuperWriterString.TrimRight
 0001:0002789C       TSynchroObject.Acquire
 0001:000278A8       TSynchroObject.Release
 0001:00029E54       TThemeServices.ApplyThemeChange
 0001:00029CAC       TThemeServices.Create
 0001:00029D0C       TThemeServices.Destroy
 0001:00029DE0       TThemeServices.DoOnThemeChange
 0001:00029E70       TThemeServices.DrawEdge
 0001:00029EC0       TThemeServices.DrawElement
 0001:00029F08       TThemeServices.DrawParentBackground
 0001:00029F80       TThemeServices.GetElementDetails
 0001:00029FE8       TThemeServices.GetElementDetails
 0001:00029D4C       TThemeServices.GetTheme
 0001:00029DAC       TThemeServices.GetThemesEnabled
 0001:0002A454       TThemeServices.PaintBorder
 0001:00029E04       TThemeServices.UnloadThemeData
 0001:0002A5C8       TThemeServices.UpdateThemes
 0001:000149D0       TThreadList.Add
 0001:000148EC       TThreadList.Create
 0001:00014954       TThreadList.Destroy
 0001:00014A5C       TThreadList.LockList
 0001:00014A84       TThreadList.Remove
 0001:00014AD8       TThreadList.UnlockList
 0001:0000CE54       TThreadLocalCounter.Delete
 0001:0000CD04       TThreadLocalCounter.Destroy
 0001:0000CD80       TThreadLocalCounter.HashIndex
 0001:0000CDA4       TThreadLocalCounter.Open
 0001:0000CE78       TThreadLocalCounter.Recycle
 0001:00028E90       TTimer.Create
 0001:00028EFC       TTimer.Destroy
 0001:00029074       TTimer.SetEnabled
 0001:000290A0       TTimer.SetInterval
 0001:000290CC       TTimer.SetOnTimer
 0001:000290F0       TTimer.Timer
 0001:00028FD0       TTimer.UpdateTimer
 0001:00028F48       TTimer.WndProc
 0001:0003DFBC       TWinControl.ActionChange
 0001:000390CC       TWinControl.AddBiDiModeExStyle
 0001:000380C8       TWinControl.AdjustClientRect
 0001:0003D378       TWinControl.AdjustSize
 0001:000388F4       TWinControl.AlignControl
 0001:000387F0       TWinControl.AlignControls
 0001:0003E028       TWinControl.AssignTo
 0001:00038F9C       TWinControl.Broadcast
 0001:0003DB34       TWinControl.CalcConstraints
 0001:0003E068       TWinControl.CanAutoSize
 0001:0003D0E0       TWinControl.CanFocus
 0001:0003DA50       TWinControl.CanResize
 0001:0003CB18       TWinControl.ChangeScale
 0001:0003C09C       TWinControl.CMBiDiModeChanged
 0001:0003C414       TWinControl.CMBorderChanged
 0001:0003C1AC       TWinControl.CMChanged
 0001:0003C1D8       TWinControl.CMChildKey
 0001:0003C33C       TWinControl.CMColorChanged
 0001:0003C604       TWinControl.CMControlListChange
 0001:0003C468       TWinControl.CMCtl3DChanged
 0001:0003C3C8       TWinControl.CMCursorChanged
 0001:0003C180       TWinControl.CMDesignHitTest
 0001:0003C220       TWinControl.CMDialogChar
 0001:0003C204       TWinControl.CMDialogKey
 0001:0003B7C8       TWinControl.CMDockClient
 0001:0003C588       TWinControl.CMDrag
 0001:0003C2DC       TWinControl.CMEnabledChanged
 0001:0003C0E0       TWinControl.CMEnter
 0001:0003C160       TWinControl.CMExit
 0001:0003B908       TWinControl.CMFloat
 0001:0003C23C       TWinControl.CMFocusChanged
 0001:0003C550       TWinControl.CMFontChange
 0001:0003C378       TWinControl.CMFontChanged
 0001:0003CF9C       TWinControl.CMInvalidate
 0001:0003C4C0       TWinControl.CMParentCtl3DChanged
 0001:00039A90       TWinControl.CMRecreateWnd
 0001:0003C074       TWinControl.CMShowHintChanged
 0001:0003C2A0       TWinControl.CMShowingChanged
 0001:0003C518       TWinControl.CMSysColorChange
 0001:0003C630       TWinControl.CMSysFontChanged
 0001:0003C56C       TWinControl.CMTimeChange
 0001:0003B8C4       TWinControl.CMUnDockClient
 0001:0003C258       TWinControl.CMVisibleChanged
 0001:0003C534       TWinControl.CMWinIniChange
 0001:0003C888       TWinControl.CNChar
 0001:0003C70C       TWinControl.CNKeyDown
 0001:0003C824       TWinControl.CNKeyUp
 0001:0003C968       TWinControl.CNSysChar
 0001:0003C8EC       TWinControl.CNSysKeyDown
 0001:0003DF78       TWinControl.ConstrainedResize
 0001:00038C44       TWinControl.ContainsControl
 0001:00039E64       TWinControl.ControlAtPos
 0001:0003B650       TWinControl.ControlsAligned
 0001:00037CE4       TWinControl.Create
 0001:0003B65C       TWinControl.CreateDockManager
 0001:000398FC       TWinControl.CreateHandle
 0001:0003914C       TWinControl.CreateParams
 0001:00039024       TWinControl.CreateSubClass
 0001:000394F0       TWinControl.CreateWindowHandle
 0001:000392D8       TWinControl.CreateWnd
 0001:000399BC       TWinControl.CustomAlignInsertBefore
 0001:000399D8       TWinControl.CustomAlignPosition
 0001:0003A178       TWinControl.DefaultHandler
 0001:00039760       TWinControl.DefineProperties
 0001:00037E40       TWinControl.Destroy
 0001:000399FC       TWinControl.DestroyHandle
 0001:0003982C       TWinControl.DestroyWindowHandle
 0001:000397BC       TWinControl.DestroyWnd
 0001:0003898C       TWinControl.DisableAlign
 0001:0003B300       TWinControl.DoAddDockClient
 0001:0003B388       TWinControl.DockDrop
 0001:0003B438       TWinControl.DockOver
 0001:0003B3EC       TWinControl.DoDockOver
 0001:0003B330       TWinControl.DoEnter
 0001:0003B35C       TWinControl.DoExit
 0001:000389E8       TWinControl.DoFlipChildren
 0001:0003B9CC       TWinControl.DoKeyDown
 0001:0003BC1C       TWinControl.DoKeyPress
 0001:0003BB08       TWinControl.DoKeyUp
 0001:0003B320       TWinControl.DoRemoveDockClient
 0001:0003B47C       TWinControl.DoUnDock
 0001:000389A0       TWinControl.EnableAlign
 0001:0003D83C       TWinControl.FindNextControl
 0001:00037F4C       TWinControl.FixupTabList
 0001:00038ADC       TWinControl.FlipChildren
 0001:0003D190       TWinControl.Focused
 0001:0003E010       TWinControl.GetActionLinkClass
 0001:0003D9AC       TWinControl.GetChildren
 0001:0003D320       TWinControl.GetClientOrigin
 0001:0003D354       TWinControl.GetClientRect
 0001:00038EE4       TWinControl.GetControl
 0001:00038F50       TWinControl.GetControlCount
 0001:0003D224       TWinControl.GetControlExtents
 0001:0003CF10       TWinControl.GetDeviceContext
 0001:0003B520       TWinControl.GetDockClientCount
 0001:0003B554       TWinControl.GetDockClients
 0001:0003D200       TWinControl.GetHandle
 0001:0003E850       TWinControl.GetParentBackground
 0001:0003B590       TWinControl.GetSiteInfo
 0001:0003D4C0       TWinControl.GetTabOrder
 0001:0003D7CC       TWinControl.GetTabOrderList
 0001:0003B600       TWinControl.GetVisibleDockClientCount
 0001:0003D6D0       TWinControl.HandleAllocated
 0001:0003D1C8       TWinControl.HandleNeeded
 0001:00038CA8       TWinControl.Insert
 0001:00038D68       TWinControl.InsertControl
 0001:0003CF80       TWinControl.Invalidate
 0001:0003D0A0       TWinControl.InvalidateFrame
 0001:00039F20       TWinControl.IsControlMouseMsg
 0001:0003D450       TWinControl.IsCtl3DStored
 0001:0003C658       TWinControl.IsMenuKey
 0001:0003B990       TWinControl.KeyDown
 0001:0003BBE8       TWinControl.KeyPress
 0001:0003BACC       TWinControl.KeyUp
 0001:00039D0C       TWinControl.MainWndProc
 0001:00038FF0       TWinControl.NotifyControls
 0001:0003A4E8       TWinControl.PaintControls
 0001:0003A348       TWinControl.PaintHandler
 0001:0003A7CC       TWinControl.PaintTo
 0001:0003A4B4       TWinControl.PaintWindow
 0001:0003BFA8       TWinControl.PaletteChanged
 0001:00039890       TWinControl.PrecedingWindow
 0001:0003955C       TWinControl.ReadDesignSize
 0001:00038050       TWinControl.ReadState
 0001:000389D4       TWinControl.Realign
 0001:00039A68       TWinControl.RecreateWnd
 0001:0003B4EC       TWinControl.ReloadDockedControl
 0001:00038D0C       TWinControl.Remove
 0001:00038E58       TWinControl.RemoveControl
 0001:00038C78       TWinControl.RemoveFocus
 0001:0003D080       TWinControl.Repaint
 0001:0003B258       TWinControl.ResetIme
 0001:0003CAC8       TWinControl.ScaleControls
 0001:0003CBD8       TWinControl.ScrollBy
 0001:0003D968       TWinControl.SelectNext
 0001:0003E270       TWinControl.SetBevelCut
 0001:0003E2E8       TWinControl.SetBevelEdges
 0001:0003E324       TWinControl.SetBevelKind
 0001:0003D3CC       TWinControl.SetBorderWidth
 0001:0003C9B4       TWinControl.SetBounds
 0001:0003DA00       TWinControl.SetChildOrder
 0001:0003D408       TWinControl.SetCtl3D
 0001:0003B6E4       TWinControl.SetDockSite
 0001:0003D140       TWinControl.SetFocus
 0001:0003B14C       TWinControl.SetIme
 0001:0003E870       TWinControl.SetParentBackground
 0001:0003D470       TWinControl.SetParentCtl3D
 0001:00039C50       TWinControl.SetParentWindow
 0001:0003D588       TWinControl.SetTabOrder
 0001:0003D5C0       TWinControl.SetTabStop
 0001:0003D644       TWinControl.SetUseDockManager
 0001:0003CE6C       TWinControl.SetZOrder
 0001:0003CD0C       TWinControl.SetZOrderPosition
 0001:0003CCE0       TWinControl.ShowControl
 0001:0003D058       TWinControl.Update
 0001:0003D6F0       TWinControl.UpdateBounds
 0001:00039BF4       TWinControl.UpdateControlState
 0001:00039AE4       TWinControl.UpdateShowing
 0001:0003D4FC       TWinControl.UpdateTabOrder
 0001:0003E784       TWinControl.UpdateUIState
 0001:0003BCA4       TWinControl.WMChar
 0001:0003BE4C       TWinControl.WMCharToItem
 0001:0003AAF8       TWinControl.WMCommand
 0001:0003AC54       TWinControl.WMCompareItem
 0001:0003E704       TWinControl.WMContextMenu
 0001:0003AC84       TWinControl.WMDeleteItem
 0001:0003BEF0       TWinControl.WMDestroy
 0001:0003ACB4       TWinControl.WMDrawItem
 0001:0003AD14       TWinControl.WMEraseBkgnd
 0001:0003ABAC       TWinControl.WMFontChange
 0001:0003ABF4       TWinControl.WMHScroll
 0001:0003B124       TWinControl.WMIMEEndComp
 0001:0003B0FC       TWinControl.WMIMEStartComp
 0001:0003BA54       TWinControl.WMKeyDown
 0001:0003BB90       TWinControl.WMKeyUp
 0001:0003B0D8       TWinControl.WMKillFocus
 0001:0003ACE4       TWinControl.WMMeasureItem
 0001:0003AF54       TWinControl.WMMove
 0001:0003E360       TWinControl.WMNCCalcSize
 0001:0003BF3C       TWinControl.WMNCDestroy
 0001:0003BF6C       TWinControl.WMNCHitTest
 0001:0003E444       TWinControl.WMNCPaint
 0001:0003AB28       TWinControl.WMNotify
 0001:0003A974       TWinControl.WMPaint
 0001:0003C048       TWinControl.WMPaletteChanged
 0001:0003BE7C       TWinControl.WMParentNotify
 0001:0003E800       TWinControl.WMPrintClient
 0001:0003C014       TWinControl.WMQueryNewPalette
 0001:0003AF78       TWinControl.WMSetCursor
 0001:0003B0B4       TWinControl.WMSetFocus
 0001:0003AF10       TWinControl.WMSize
 0001:0003AB58       TWinControl.WMSysColorChange
 0001:0003BD98       TWinControl.WMSysCommand
 0001:0003BA90       TWinControl.WMSysKeyDown
 0001:0003BBBC       TWinControl.WMSysKeyUp
 0001:0003ABD0       TWinControl.WMTimeChange
 0001:0003BEC0       TWinControl.WMVKeyToItem
 0001:0003AC24       TWinControl.WMVScroll
 0001:0003ADB8       TWinControl.WMWindowPosChanged
 0001:0003AEA0       TWinControl.WMWindowPosChanging
 0001:0003AB80       TWinControl.WMWinIniChange
 0001:00039FE0       TWinControl.WndProc
 0001:000395A8       TWinControl.WriteDesignSize
 0001:00037C7C       TWinControlActionLink.AssignClient
 0001:00037CAC       TWinControlActionLink.IsHelpContextLinked
 0001:00037CC8       TWinControlActionLink.SetHelpContext
 0001:0002E528       TWinHelpViewer.CallWinHelp
 0001:0002DFF0       TWinHelpViewer.CanShowTableOfContents
 0001:0002E7F8       TWinHelpViewer.CouldBeUnstableWindow
 0001:0002E91C       TWinHelpViewer.Create
 0001:0002E974       TWinHelpViewer.Destroy
 0001:0002E47C       TWinHelpViewer.DisplayHelpByContext
 0001:0002E2E4       TWinHelpViewer.DisplayTopic
 0001:0002DF40       TWinHelpViewer.GetHelpStrings
 0001:0002DE94       TWinHelpViewer.GetViewerName
 0001:0002DD7C       TWinHelpViewer.HelpFile
 0001:0002DE5C       TWinHelpViewer.InternalShutDown
 0001:0002E7D4       TWinHelpViewer.IsBusyWindow
 0001:0002E740       TWinHelpViewer.IsNewQuery
 0001:0002E820       TWinHelpViewer.MakeWinHelpHappy
 0001:0002E1F0       TWinHelpViewer.NotifyID
 0001:0002E888       TWinHelpViewer.RestartWinHelp
 0001:0002E098       TWinHelpViewer.ShowHelp
 0001:0002E004       TWinHelpViewer.ShowTableOfContents
 0001:0002E234       TWinHelpViewer.ShutDown
 0001:0002E20C       TWinHelpViewer.SoftShutDown
 0001:0002E404       TWinHelpViewer.UnderstandsContext
 0001:0002DEB4       TWinHelpViewer.UnderstandsKeyword
 0001:0002E270       TWinHelpViewer.UnderstandsTopic
 0001:00020A04       TwoBitsFromDIB
 0002:000000E0       TwoDigitYearCenturyWindow
 0001:0001AAE4       TWriter.Write
 0001:0001AB5C       TWriter.WriteBoolean
 0001:0001AB30       TWriter.WriteBuffer
 0001:0001AB88       TWriter.WriteInteger
 0001:0001AC08       TWriter.WriteListBegin
 0001:0001AC1C       TWriter.WriteListEnd
 0001:0001AC30       TWriter.WriteMinStr
 0001:0001ACE0       TWriter.WriteString
 0001:0001AD3C       TWriter.WriteValue
 0001:0000544C       Types
 0001:000115F0       TypInfo
 0001:0000021C       UnhandledExceptionFilter
 0001:00059998       UnhookHintHooks
 0001:00005DB0       UnhookWindowsHookEx
 0001:00004C98       UnicodeToUtf8
 0001:00000AD0       UninitAllocator
 0001:00047D10       UniqueCommand
 0001:00003590       UniqueString
 0001:0000D95C       UniUnimplemented
 0001:00005E1C       UnlockResource
 0001:000058F8       UnrealizeObject
 0001:00005DB8       UnregisterClass
 0001:00013F3C       UnregisterFindGlobalComponentProc
 0001:00004B18       UnregisterModule
 0001:00013B6C       UnRegisterModuleClasses
 0001:00002CE0       UnsetExceptionHandler
 0001:00001A58       UpCase
 0001:00021E64       UpdateDIBColorTable
 0001:00037398       UpdateFloatingDockSitePos
 0001:0004B610       UpdateItem
 0001:0004C234       UpdateItem
 0001:000513B4       UpdateScrollProperties
 0001:00005DC0       UpdateWindow
 0001:00007140       UpperCase
 0001:00028580       UrlMon
 0002:00002AD0       UrlMonHandle
 0002:00002AD4       UrlMonInitialized
 0002:0000291C       User32Dll
 0001:0002838C       UseThemes
 0001:00004F58       UTF8Decode
 0001:00004EAC       UTF8Encode
 0001:00004D74       Utf8ToUnicode
 0002:000003F8       UtilWindowClass
 0001:00028418       UxTheme
 0001:0005C580       ValidateHintWindow
 0001:000319B4       ValidDockTarget
 0002:00000BA4       ValidMenuHotkeys
 0001:000506E4       ValidParentForm
 0002:00000940       Values
 0002:00000948       Values
 0002:000027AC       VarAdd
 0002:00000010       VarAddRefProc
 0002:000027C4       VarAnd
 0001:0000ED20       VarArrayClear
 0001:0000EFC0       VarArrayCopyForEach
 0001:0000E944       VarArrayCreateError
 0002:000027E8       VarBoolFromStr
 0002:000027F4       VarBstrFromBool
 0002:000027EC       VarBstrFromCy
 0002:000027F0       VarBstrFromDate
 0001:0000E7B8       VarCastError
 0001:0000E764       VarCastError
 0001:0000EE9C       VarClearDeep
 0002:0000000C       VarClearProc
 0002:000027D0       VarCmp
 0001:0000F18C       VarCopyCopyProc
 0001:0000F194       VarCopyDeep
 0002:00000014       VarCopyProc
 0002:000027E4       VarCyFromStr
 0002:000027E0       VarDateFromStr
 0002:0000280C       VarDispProc
 0002:000027B8       VarDiv
 0002:000027D4       VarI4FromStr
 0001:0000D91C       VariantChangeType
 0002:000027A0       VariantChangeTypeEx
 0001:0000D90C       VariantClear
 0001:0000D914       VariantCopy
 0001:0000D904       VariantInit
 0001:00010B24       Variants
 0002:000027BC       VarIDiv
 0001:0000E854       VarInvalidOp
 0002:000027C0       VarMod
 0002:000027B4       VarMul
 0002:000027A4       VarNeg
 0002:000027A8       VarNot
 0002:000027C8       VarOr
 0001:0000E8A8       VarOverflowError
 0002:000027D8       VarR4FromStr
 0002:000027DC       VarR8FromStr
 0001:0000EBF8       VarResultCheck
 0001:0000EBEC       VarResultCheck
 0002:000027B0       VarSub
 0001:0000F484       VarToLStrAny
 0001:0000F4E8       VarToLStrCustom
 0002:00000018       VarToLStrProc
 0001:0000F3B8       VarToLStrViaOS
 0001:0000FB68       VarToWStrAny
 0001:0000FBCC       VarToWStrCustom
 0002:0000001C       VarToWStrProc
 0001:0000FAB0       VarToWStrViaOS
 0001:000104A8       VarTypeAsText
 0001:0000E178       VarUtils
 0002:000027CC       VarXor
 0001:000078BC       VerifyBoolStrArray
 0001:00005748       VerQueryValue
 0002:00002B00       ViewerName
 0001:00005710       VirtualAlloc
 0001:00000350       VirtualAlloc
 0001:00000358       VirtualFree
 0001:00005718       VirtualQuery
 0001:000002DC       VirtualQuery
 0001:00005720       WaitForSingleObject
 0001:0001ADC0       WaitForSyncEvent
 0001:00005DC8       WaitMessage
 0002:000003DC       WakeMainThread
 0001:000031C0       WCharFromChar
 0002:00000310       WesternGroups
 0001:000002D4       WideCharToMultiByte
 0002:000000D8       Win32BuildNumber
 0001:0000CBE4       Win32Check
 0002:000000DC       Win32CSDVersion
 0002:000000D0       Win32MajorVersion
 0002:000000D4       Win32MinorVersion
 0001:0004305C       Win32NLSEnableIME
 0002:000000CC       Win32Platform
 0002:00002B1C       WindowAtom
 0002:00002B20       WindowAtomString
 0002:00000D7C       WindowClass
 0001:0002E644       WindowEnumerationTester
 0001:00005DD8       WindowFromPoint
 0002:00000B14       WindowPos
 0001:0000611C       Windows
 0001:000212A8       WinError
 0001:00005DD0       WinHelp
 0002:00002AFC       WinHelpTester
 0001:0002EA24       WinHelpViewer
 0001:00028548       WinInet
 0001:0005CE08       WinSock
 0001:00027414       WinSpool
 0002:0000072C       WndProcPtrAtom
 0002:00000A38       WordWraps
 0001:00041B0C       WriteControlName
 0001:00002F04       WriteErrorMessage
 0001:00000224       WriteFile
 0001:00005728       WriteFile
 0001:000212C4       WriteIcon
 0001:00003730       WStrError
 0001:00003750       WStrSet
 0001:00025F9C       xEnumDisplayMonitors
 0001:00025CA8       xGetMonitorInfo
 0001:00025DA4       xGetMonitorInfoA
 0001:00025EA0       xGetMonitorInfoW
 0001:00025C0C       xMonitorFromPoint
 0001:00025AC0       xMonitorFromRect
 0001:00025B60       xMonitorFromWindow
 0001:00005F0C       _CreateWindowEx
 0002:00002964       _FlatSB_GetScrollProp
 0002:00002968       _FlatSB_SetScrollProp
 0001:00025A1C       _GetSystemMetrics
 0002:00002B84       _ImmGetCompositionString
 0002:00002B68       _ImmGetContext
 0002:00002B70       _ImmGetConversionStatus
 0002:00002B88       _ImmIsIME
 0002:00002B8C       _ImmNotifyIME
 0002:00002B6C       _ImmReleaseContext
 0002:00002B80       _ImmSetCompositionFont
 0002:00002B7C       _ImmSetCompositionWindow
 0002:00002B74       _ImmSetConversionStatus
 0002:00002B78       _ImmSetOpenStatus
 0001:0005E5D4       _indent
 0002:0000296C       _InitializeFlatSB
 0002:00002970       _UninitializeFlatSB
 0002:00002B64       _WINNLSEnableIME


  Address         Publics by Value

 0002:FFB96010       TlsLast
 0001:00000204       GetStdHandle
 0001:0000020C       RaiseException
 0001:00000214       RtlUnwind
 0001:0000021C       UnhandledExceptionFilter
 0001:00000224       WriteFile
 0001:0000022C       CharNext
 0001:00000234       ExitProcess
 0001:0000023C       MessageBox
 0001:00000244       FindClose
 0001:0000024C       FindFirstFile
 0001:00000254       FreeLibrary
 0001:0000025C       GetCommandLine
 0001:00000264       GetLocaleInfo
 0001:0000026C       GetModuleFileName
 0001:00000274       GetModuleHandle
 0001:0000027C       GetProcAddress
 0001:00000284       GetStartupInfo
 0001:0000028C       GetThreadLocale
 0001:00000294       LoadLibraryEx
 0001:0000029C       LoadString
 0001:000002A4       lstrcpyn
 0001:000002AC       @strlen
 0001:000002B4       MultiByteToWideChar
 0001:000002BC       RegCloseKey
 0001:000002C4       RegOpenKeyEx
 0001:000002CC       RegQueryValueEx
 0001:000002D4       WideCharToMultiByte
 0001:000002DC       VirtualQuery
 0001:000002E4       SysAllocStringLen
 0001:000002EC       SysReAllocStringLen
 0001:000002F4       SysFreeString
 0001:000002FC       InterlockedIncrement
 0001:00000304       InterlockedDecrement
 0001:0000030C       GetCurrentThreadId
 0001:00000314       GetVersion
 0001:0000031C       GetCmdShow
 0001:00000340       LocalAlloc
 0001:00000348       LocalFree
 0001:00000350       VirtualAlloc
 0001:00000358       VirtualFree
 0001:00000360       InitializeCriticalSection
 0001:00000368       EnterCriticalSection
 0001:00000370       LeaveCriticalSection
 0001:00000378       DeleteCriticalSection
 0001:00000380       GetBlockDesc
 0001:000003D0       MakeEmpty
 0001:000003D8       AddBlockAfter
 0001:00000408       DeleteBlock
 0001:00000420       MergeBlockAfter
 0001:00000490       RemoveBlock
 0001:00000524       GetSpace
 0001:00000588       GetSpaceAt
 0001:00000600       FreeSpace
 0001:000006B8       Commit
 0001:0000074C       Decommit
 0001:000007CC       GetCommitted
 0001:0000085C       GetCommittedAt
 0001:00000980       FreeCommitted
 0001:00000A0C       InitAllocator
 0001:00000AD0       UninitAllocator
 0001:00000BB0       DeleteFree
 0001:00000C14       FindCommitted
 0001:00000C44       FillBeforeGap
 0001:00000C74       InternalFreeMem
 0001:00000C98       FillAfterGap
 0001:00000CC0       FillerSizeBeforeGap
 0001:00000D30       FillerSizeAfterGap
 0001:00000D68       DecommitFree
 0001:00000E18       InsertFree
 0001:00000EA0       FreeCurAlloc
 0001:00000EEC       MergeCommit
 0001:00000F78       NewCommit
 0001:00000FA4       NewCommitAt
 0001:00000FD8       SearchSmallBlocks
 0001:00001004       TryHarder
 0001:000010F8       SysGetMem
 0001:00001288       SysFreeMem
 0001:0000142C       ResizeInPlace
 0001:00001608       SysReallocMem
 0001:000016CC       @GetMem
 0001:000016EC       @FreeMem
 0001:0000170C       @ReallocMem
 0001:0000175C       ExceptObject
 0001:0000177C       ExceptAddr
 0001:0000179C       AcquireExceptionObject
 0001:000017D0       RunErrorAt
 0001:000017DC       ErrorAt
 0001:00001828       Error
 0001:00001834       @_IOTest
 0001:00001854       SetInOutRes
 0001:00001864       @Copy
 0001:000018A8       IOResult
 0001:000018C8       Move
 0001:00001908       GetParamStr
 0001:000019F4       ParamStr
 0001:00001A54       @SetLength
 0001:00001A58       UpCase
 0001:00001A64       Set8087CW
 0001:00001A74       Get8087CW
 0001:00001A7C       @ROUND
 0001:00001A88       @AbstractError
 0001:00001AA4       InternalFlush
 0001:00001AEC       Flush
 0001:00001AF8       @Close
 0001:00001B50       @PStrNCpy
 0001:00001B6C       @PStrCmp
 0001:00001BF0       @AStrCmp
 0001:00001C60       @FillChar
 0001:00001C80       @ValLong
 0001:00001D54       @_CToPasStr
 0001:00001D60       @_CLenToPasStr
 0001:00001D84       @SetEq
 0001:00001D98       @ValExt
 0001:00001E9C       FPower10
 0001:00001EA4       @Pow10
 0001:00002188       GetKeyboardType
 0001:00002190       @isNECWindows
 0001:000021C0       @FpuMaskInit
 0001:00002284       @FpuInit
 0001:00002290       TObject.ClassType
 0001:00002298       TObject.ClassName
 0001:000022AC       TObject.ClassNameIs
 0001:000022D4       TObject.ClassParent
 0001:000022E0       TObject.NewInstance
 0001:000022FC       TObject.FreeInstance
 0001:00002310       TObject.InstanceSize
 0001:00002318       TObject.Create
 0001:00002338       TObject.Destroy
 0001:00002348       TObject.Free
 0001:00002354       TObject.InitInstance
 0001:000023AC       TObject.CleanupInstance
 0001:000023CC       InvokeImplGetter
 0001:000023FC       TObject.GetInterface
 0001:00002490       TObject.GetInterfaceEntry
 0001:000024D4       @IsClass
 0001:000024F8       @AsClass
 0001:00002514       GetDynaMethod
 0001:00002544       @CallDynaInst
 0001:0000255C       TObject.InheritsFrom
 0001:00002570       TObject.ClassInfo
 0001:00002578       TObject.SafeCallException
 0001:00002580       TObject.DefaultHandler
 0001:00002584       TObject.AfterConstruction
 0001:00002588       TObject.BeforeDestruction
 0001:0000258C       TObject.Dispatch
 0001:000025B4       TObject.MethodAddress
 0001:00002604       TObject.FieldAddress
 0001:00002654       @ClassCreate
 0001:000026A4       @ClassDestroy
 0001:000026AC       @AfterConstruction
 0001:000026BC       @BeforeDestruction
 0001:000026CC       NotifyReRaise
 0001:000026E8       NotifyNonDelphiException
 0001:0000270C       NotifyExcept
 0001:00002724       NotifyOnExcept
 0001:00002738       NotifyAnyExcept
 0001:0000274C       CheckJmp
 0001:0000276C       NotifyExceptFinally
 0001:00002794       NotifyTerminate
 0001:000027B0       NotifyUnhandled
 0001:000027D0       @HandleAnyException
 0001:000028FC       @HandleOnException
 0001:00002A84       @HandleFinally
 0001:00002ABC       @RaiseExcept
 0001:00002AE4       @RaiseAgain
 0001:00002B38       @DoneExcept
 0001:00002B68       @TryFinallyExit
 0001:00002B80       MapToRunError
 0001:00002C20       @ExceptionHandler
 0001:00002CC0       SetExceptionHandler
 0001:00002CE0       UnsetExceptionHandler
 0001:00002D08       FinalizeUnits
 0001:00002D68       InitUnits
 0001:00002DC8       @StartExe
 0001:00002E08       @InitResStrings
 0001:00002E2C       @InitResStringImports
 0001:00002E54       @InitImports
 0001:00002E78       MakeErrorMessage
 0001:00002ED4       ExitDll
 0001:00002F04       WriteErrorMessage
 0001:00002F90       @Halt0
 0001:00003068       @Halt
 0001:00003074       @RunError
 0001:00003080       @LStrClr
 0001:000030A4       @LStrArrayClr
 0001:000030D4       @LStrAsg
 0001:00003118       @LStrLAsg
 0001:00003144       @NewAnsiString
 0001:00003170       @LStrFromPCharLen
 0001:000031A0       CharFromWChar
 0001:000031C0       WCharFromChar
 0001:000031DC       @LStrFromPWCharLen
 0001:00003268       @LStrFromChar
 0001:00003278       @LStrFromPChar
 0001:000032A8       @LStrFromPWChar
 0001:000032E4       @LStrFromString
 0001:000032F0       @LStrFromArray
 0001:00003308       @LStrFromWStr
 0001:0000331C       @LStrToString
 0001:00003340       @LStrLen
 0001:00003348       @LStrCat
 0001:0000338C       @LStrCat3
 0001:00003400       @LStrCatN
 0001:0000348C       @LStrCmp
 0001:00003530       @LStrAddRef
 0001:00003540       @LStrToPChar
 0001:0000354C       InternalUniqueString
 0001:00003590       UniqueString
 0001:00003598       @UniqueStringA
 0001:000035A0       @LStrCopy
 0001:000035E0       @LStrDelete
 0001:00003628       @LStrInsert
 0001:00003684       @LStrPos
 0001:000036CC       @LStrSetLength
 0001:00003730       WStrError
 0001:00003738       @NewWideString
 0001:00003750       WStrSet
 0001:00003760       @WStrClr
 0001:00003778       @WStrArrayClr
 0001:0000379C       @WStrAsg
 0001:000037C0       @WStrFromPCharLen
 0001:0000384C       @WStrFromPWCharLen
 0001:00003870       @WStrFromPWChar
 0001:000038AC       @WStrFromLStr
 0001:000038BC       @WStrToPWChar
 0001:000038CC       @WStrLen
 0001:000038D8       @WStrCat
 0001:00003938       @WStrCatN
 0001:00003980       @WStrCmp
 0001:00003A04       @WStrCopy
 0001:00003A50       @WStrSetLength
 0001:00003A94       @WStrAddRef
 0001:00003AB4       @InitializeRecord
 0001:00003AE4       @InitializeArray
 0001:00003B78       @FinalizeRecord
 0001:00003BAC       @VarClr
 0001:00003BC4       @FinalizeArray
 0001:00003CB0       @Finalize
 0001:00003CBC       @VarCopy
 0001:00003CD4       @CopyRecord
 0001:00003DF0       @CopyArray
 0001:00003EE4       @DispCallByIDError
 0001:00003EEC       @_llmul
 0001:00003F10       @_lldiv
 0001:00003F8C       @_llmod
 0001:00004008       @StrInt64
 0001:000040C8       @Str0Int64
 0001:000040E4       @ValInt64
 0001:00004314       @DynArrayLength
 0001:0000431C       @DynArrayHigh
 0001:00004324       CopyArray
 0001:00004334       FinalizeArray
 0001:0000433C       DynArrayClear
 0001:00004344       DynArraySetLength
 0001:000044D0       @DynArraySetLength
 0001:000044DC       @DynArrayClear
 0001:00004518       @DynArrayAsg
 0001:00004540       FindHInstance
 0001:00004568       FindClassHInstance
 0001:00004570       DelayLoadResourceModule
 0001:000045B8       FindResourceHInstance
 0001:000045E0       FindBS
 0001:000045F4       ToLongPath
 0001:000047AC       LoadResourceModule
 0001:00004A1C       AddModuleUnloadProc
 0001:00004A24       RemoveModuleUnloadProc
 0001:00004A2C       AddModuleUnloadProc
 0001:00004A4C       RemoveModuleUnloadProc
 0001:00004AAC       NotifyModuleUnload
 0001:00004B08       RegisterModule
 0001:00004B18       UnregisterModule
 0001:00004B88       @IntfClear
 0001:00004BA0       @IntfCopy
 0001:00004BCC       @IntfCast
 0001:00004BFC       @IntfAddRef
 0001:00004C08       TInterfacedObject.AfterConstruction
 0001:00004C14       TInterfacedObject.BeforeDestruction
 0001:00004C24       TInterfacedObject.NewInstance
 0001:00004C34       TInterfacedObject.QueryInterface
 0001:00004C5C       TInterfacedObject._AddRef
 0001:00004C70       TInterfacedObject._Release
 0001:00004C98       UnicodeToUtf8
 0001:00004D74       Utf8ToUnicode
 0001:00004EAC       UTF8Encode
 0001:00004F58       UTF8Decode
 0001:00004FFC       AnsiToUtf8
 0001:0000504C       LoadResString
 0001:000050A4       LCIDToCodePage
 0001:00005118       Finalization
 0001:0000516C       System
 0001:00005240       GetModuleHandle
 0001:00005248       LocalAlloc
 0001:00005250       TlsGetValue
 0001:00005258       TlsSetValue
 0001:00005260       AllocTlsBuffer
 0001:0000526C       GetTlsSize
 0001:00005274       InitThreadTLS
 0001:000052B8       @GetTls
 0001:000052F8       InitializeModule
 0001:00005304       @InitExe
 0001:00005348       Finalization
 0001:00005378       SysInit
 0001:00005380       Rect
 0001:000053B8       Point
 0001:000053DC       Bounds
 0001:0000541C       Finalization
 0001:0000544C       Types
 0001:00005520       RegCloseKey
 0001:00005528       RegOpenKeyEx
 0001:00005530       RegQueryValueEx
 0001:00005538       CloseHandle
 0001:00005540       CompareString
 0001:00005548       CreateEvent
 0001:00005550       CreateFile
 0001:00005558       CreateThread
 0001:00005560       DeleteCriticalSection
 0001:00005568       EnterCriticalSection
 0001:00005570       EnumCalendarInfoA
 0001:00005578       FindResource
 0001:00005580       FormatMessage
 0001:00005588       FreeLibrary
 0001:00005590       InterlockedDecrement
 0001:00005598       InterlockedExchange
 0001:000055A0       InterlockedIncrement
 0001:000055A8       FreeResource
 0001:000055B0       GetACP
 0001:000055B8       GetCPInfo
 0001:000055C0       GetCurrentProcessId
 0001:000055C8       GetCurrentThreadId
 0001:000055D0       GetDateFormat
 0001:000055D8       GetDiskFreeSpaceA
 0001:000055E0       GetFullPathName
 0001:000055E8       GetLastError
 0001:000055F0       GetLocalTime
 0001:000055F8       GetLocaleInfo
 0001:00005600       GetModuleFileName
 0001:00005608       GetModuleHandle
 0001:00005610       GetProcAddress
 0001:00005618       GetStdHandle
 0001:00005620       GetStringTypeEx
 0001:00005628       GetSystemInfo
 0001:00005630       GetThreadLocale
 0001:00005638       GetTickCount
 0001:00005640       GetVersion
 0001:00005648       GetVersionEx
 0001:00005650       GlobalAddAtom
 0001:00005658       GlobalAlloc
 0001:00005660       GlobalDeleteAtom
 0001:00005668       GlobalFindAtom
 0001:00005670       GlobalFree
 0001:00005678       GlobalLock
 0001:00005680       GlobalHandle
 0001:00005688       GlobalReAlloc
 0001:00005690       GlobalUnlock
 0001:00005698       InitializeCriticalSection
 0001:000056A0       LeaveCriticalSection
 0001:000056A8       LoadLibrary
 0001:000056B0       LoadResource
 0001:000056B8       LockResource
 0001:000056C0       MulDiv
 0001:000056C8       ReadFile
 0001:000056D0       ResetEvent
 0001:000056D8       SetEndOfFile
 0001:000056E0       SetErrorMode
 0001:000056E8       SetEvent
 0001:000056F0       SetFilePointer
 0001:000056F8       SetThreadLocale
 0001:00005700       SizeofResource
 0001:00005708       Sleep
 0001:00005710       VirtualAlloc
 0001:00005718       VirtualQuery
 0001:00005720       WaitForSingleObject
 0001:00005728       WriteFile
 0001:00005730       lstrcpy
 0001:00005738       GetFileVersionInfo
 0001:00005740       GetFileVersionInfoSize
 0001:00005748       VerQueryValue
 0001:00005750       BitBlt
 0001:00005758       CreateBitmap
 0001:00005760       CreateBrushIndirect
 0001:00005768       CreateCompatibleBitmap
 0001:00005770       CreateCompatibleDC
 0001:00005778       CreateDIBSection
 0001:00005780       CreateDIBitmap
 0001:00005788       CreateFontIndirect
 0001:00005790       CreateHalftonePalette
 0001:00005798       CreatePalette
 0001:000057A0       CreatePenIndirect
 0001:000057A8       CreateSolidBrush
 0001:000057B0       DeleteDC
 0001:000057B8       DeleteObject
 0001:000057C0       ExcludeClipRect
 0001:000057C8       GetBitmapBits
 0001:000057D0       GetBrushOrgEx
 0001:000057D8       GetClipBox
 0001:000057E0       GetCurrentPositionEx
 0001:000057E8       GetDCOrgEx
 0001:000057F0       GetDIBColorTable
 0001:000057F8       GetDIBits
 0001:00005800       GetDeviceCaps
 0001:00005808       GetObject
 0001:00005810       GetPaletteEntries
 0001:00005818       GetPixel
 0001:00005820       GetStockObject
 0001:00005828       GetSystemPaletteEntries
 0001:00005830       GetTextExtentPoint32
 0001:00005838       GetTextMetrics
 0001:00005840       GetWindowOrgEx
 0001:00005848       IntersectClipRect
 0001:00005850       LineTo
 0001:00005858       MaskBlt
 0001:00005860       MoveToEx
 0001:00005868       PatBlt
 0001:00005870       RealizePalette
 0001:00005878       RectVisible
 0001:00005880       RestoreDC
 0001:00005888       SaveDC
 0001:00005890       SelectObject
 0001:00005898       SelectPalette
 0001:000058A0       SetBkColor
 0001:000058A8       SetBkMode
 0001:000058B0       SetBrushOrgEx
 0001:000058B8       SetDIBColorTable
 0001:000058C0       SetPixel
 0001:000058C8       SetROP2
 0001:000058D0       SetStretchBltMode
 0001:000058D8       SetTextColor
 0001:000058E0       SetViewportOrgEx
 0001:000058E8       SetWindowOrgEx
 0001:000058F0       StretchBlt
 0001:000058F8       UnrealizeObject
 0001:00005900       ActivateKeyboardLayout
 0001:00005908       AdjustWindowRectEx
 0001:00005910       AnsiLower
 0001:00005918       BeginPaint
 0001:00005920       CallNextHookEx
 0001:00005928       CallWindowProc
 0001:00005930       CharNext
 0001:00005938       CharToOemA
 0001:00005940       CheckMenuItem
 0001:00005948       ClientToScreen
 0001:00005950       CreateIcon
 0001:00005958       CreateMenu
 0001:00005960       CreatePopupMenu
 0001:00005968       DefFrameProc
 0001:00005970       DefMDIChildProc
 0001:00005978       DefWindowProc
 0001:00005980       DeleteMenu
 0001:00005988       DestroyCursor
 0001:00005990       DestroyIcon
 0001:00005998       DestroyMenu
 0001:000059A0       DestroyWindow
 0001:000059A8       DispatchMessage
 0001:000059B0       DrawEdge
 0001:000059B8       DrawFrameControl
 0001:000059C0       DrawIcon
 0001:000059C8       DrawIconEx
 0001:000059D0       DrawMenuBar
 0001:000059D8       DrawText
 0001:000059E0       EnableMenuItem
 0001:000059E8       EnableScrollBar
 0001:000059F0       EnableWindow
 0001:000059F8       EndPaint
 0001:00005A00       EnumThreadWindows
 0001:00005A08       EnumWindows
 0001:00005A10       EqualRect
 0001:00005A18       FillRect
 0001:00005A20       FindWindow
 0001:00005A28       FrameRect
 0001:00005A30       GetActiveWindow
 0001:00005A38       GetCapture
 0001:00005A40       GetClassInfo
 0001:00005A48       GetClassName
 0001:00005A50       GetClientRect
 0001:00005A58       GetCursor
 0001:00005A60       GetCursorPos
 0001:00005A68       GetDC
 0001:00005A70       GetDCEx
 0001:00005A78       GetDesktopWindow
 0001:00005A80       GetFocus
 0001:00005A88       GetForegroundWindow
 0001:00005A90       GetIconInfo
 0001:00005A98       GetKeyNameText
 0001:00005AA0       GetKeyState
 0001:00005AA8       GetKeyboardLayout
 0001:00005AB0       GetKeyboardLayoutList
 0001:00005AB8       GetKeyboardState
 0001:00005AC0       GetLastActivePopup
 0001:00005AC8       GetMenu
 0001:00005AD0       GetMenuItemCount
 0001:00005AD8       GetMenuItemID
 0001:00005AE0       GetMenuItemInfo
 0001:00005AE8       GetMenuState
 0001:00005AF0       GetMenuString
 0001:00005AF8       GetNextWindow
 0001:00005B00       GetParent
 0001:00005B08       GetProp
 0001:00005B10       GetScrollInfo
 0001:00005B18       GetScrollPos
 0001:00005B20       GetScrollRange
 0001:00005B28       GetSubMenu
 0001:00005B30       GetSysColor
 0001:00005B38       GetSysColorBrush
 0001:00005B40       GetSystemMenu
 0001:00005B48       GetSystemMetrics
 0001:00005B50       GetTopWindow
 0001:00005B58       GetWindow
 0001:00005B60       GetWindowDC
 0001:00005B68       GetWindowLong
 0001:00005B70       GetWindowPlacement
 0001:00005B78       GetWindowRect
 0001:00005B80       GetWindowText
 0001:00005B88       GetWindowThreadProcessId
 0001:00005B90       GetWindowThreadProcessId
 0001:00005B98       InflateRect
 0001:00005BA0       InsertMenu
 0001:00005BA8       InsertMenuItem
 0001:00005BB0       IntersectRect
 0001:00005BB8       InvalidateRect
 0001:00005BC0       IsChild
 0001:00005BC8       IsDialogMessage
 0001:00005BD0       IsIconic
 0001:00005BD8       IsRectEmpty
 0001:00005BE0       IsWindow
 0001:00005BE8       IsWindowEnabled
 0001:00005BF0       IsWindowVisible
 0001:00005BF8       IsZoomed
 0001:00005C00       KillTimer
 0001:00005C08       LoadBitmap
 0001:00005C10       LoadCursor
 0001:00005C18       LoadIcon
 0001:00005C20       LoadKeyboardLayout
 0001:00005C28       LoadString
 0001:00005C30       MapVirtualKey
 0001:00005C38       MapWindowPoints
 0001:00005C40       MessageBox
 0001:00005C48       OemToAnsi
 0001:00005C50       OffsetRect
 0001:00005C58       PeekMessage
 0001:00005C60       PostMessage
 0001:00005C68       PostQuitMessage
 0001:00005C70       PtInRect
 0001:00005C78       RedrawWindow
 0001:00005C80       RegisterClass
 0001:00005C88       RegisterClipboardFormat
 0001:00005C90       RegisterWindowMessage
 0001:00005C98       ReleaseCapture
 0001:00005CA0       ReleaseDC
 0001:00005CA8       RemoveMenu
 0001:00005CB0       RemoveProp
 0001:00005CB8       ScreenToClient
 0001:00005CC0       ScrollWindow
 0001:00005CC8       SendMessage
 0001:00005CD0       SetActiveWindow
 0001:00005CD8       SetCapture
 0001:00005CE0       SetClassLong
 0001:00005CE8       SetCursor
 0001:00005CF0       SetFocus
 0001:00005CF8       SetForegroundWindow
 0001:00005D00       SetMenu
 0001:00005D08       SetMenuItemInfo
 0001:00005D10       SetParent
 0001:00005D18       SetProp
 0001:00005D20       SetRect
 0001:00005D28       SetScrollInfo
 0001:00005D30       SetScrollPos
 0001:00005D38       SetScrollRange
 0001:00005D40       SetTimer
 0001:00005D48       SetWindowLong
 0001:00005D50       SetWindowPlacement
 0001:00005D58       SetWindowPos
 0001:00005D60       SetWindowText
 0001:00005D68       SetWindowsHookEx
 0001:00005D70       ShowCursor
 0001:00005D78       ShowOwnedPopups
 0001:00005D80       ShowScrollBar
 0001:00005D88       ShowWindow
 0001:00005D90       SystemParametersInfo
 0001:00005D98       TrackPopupMenu
 0001:00005DA0       TranslateMDISysAccel
 0001:00005DA8       TranslateMessage
 0001:00005DB0       UnhookWindowsHookEx
 0001:00005DB8       UnregisterClass
 0001:00005DC0       UpdateWindow
 0001:00005DC8       WaitMessage
 0001:00005DD0       WinHelp
 0001:00005DD8       WindowFromPoint
 0001:00005DE0       MakeLong
 0001:00005E08       GetCurrentTime
 0001:00005E1C       UnlockResource
 0001:00005E34       GlobalAllocPtr
 0001:00005E44       GlobalReAllocPtr
 0001:00005E60       GlobalFreePtr
 0001:00005E74       MakeROP4
 0001:00005E98       SmallPointToPoint
 0001:00005EBC       PointToSmallPoint
 0001:00005EE4       MakeWParam
 0001:00005F0C       _CreateWindowEx
 0001:00005F14       CreateWindowEx
 0001:00005F78       CreateWindow
 0001:00005FD8       HwndMSWheel
 0001:000060EC       Finalization
 0001:0000611C       Windows
 0001:00006124       Finalization
 0001:00006154       Messages
 0001:00006444       Finalization
 0001:00006474       SysConst
 0001:00007018       DivMod
 0001:00007034       ConvertError
 0001:00007054       ConvertErrorFmt
 0001:00007084       AllocMem
 0001:000070AC       DoExitProc
 0001:000070F0       AddExitProc
 0001:00007140       UpperCase
 0001:000071AC       LowerCase
 0001:00007218       CompareStr
 0001:00007248       CompareMem
 0001:00007268       CompareText
 0001:000072BC       SameText
 0001:000072E0       AnsiCompareStr
 0001:0000732C       AnsiCompareText
 0001:00007378       AnsiSameText
 0001:0000739C       AnsiStrLIComp
 0001:000073D4       Trim
 0001:00007448       AdjustLineBreaks
 0001:0000761C       IsValidIdent
 0001:00007698       CvtInt
 0001:000076E4       IntToStr
 0001:00007704       CvtInt64
 0001:000077D0       IntToStr
 0001:000077F8       IntToHex
 0001:00007820       StrToInt
 0001:00007860       StrToIntDef
 0001:00007890       TryStrToInt
 0001:000078BC       VerifyBoolStrArray
 0001:00007950       CompareWith
 0001:000079A0       TryStrToBool
 0001:00007A4C       BoolToStr
 0001:00007AA8       FileOpen
 0001:00007B18       FileCreate
 0001:00007B4C       FileCreate
 0001:00007B6C       FileRead
 0001:00007BA4       FileWrite
 0001:00007BDC       FileSeek
 0001:00007C18       FileClose
 0001:00007C2C       AnsiLastChar
 0001:00007C78       LastDelimiter
 0001:00007CE8       ExtractFilePath
 0001:00007D28       ExtractFileName
 0001:00007D6C       ExpandFileName
 0001:00007DB0       BackfillGetDiskFreeSpaceEx
 0001:00007E30       StrLen
 0001:00007E48       StrEnd
 0001:00007E5C       StrMove
 0001:00007E88       StrCopy
 0001:00007EB0       StrLCopy
 0001:00007EE4       StrPCopy
 0001:00007F18       StrPLCopy
 0001:00007F48       StrComp
 0001:00007F6C       StrIComp
 0001:00007FAC       StrLIComp
 0001:00007FF0       StrScan
 0001:00008028       StrPos
 0001:0000807C       StrAlloc
 0001:000080A8       StrBufSize
 0001:000080D0       StrNew
 0001:00008110       StrDispose
 0001:00008134       FormatError
 0001:0000819C       FormatVarToStr
 0001:000081D4       FormatClearStr
 0001:000081E8       FormatBuf
 0001:00008560       StrFmt
 0001:000085BC       StrLFmt
 0001:00008614       Format
 0001:0000863C       FmtStr
 0001:00008718       PutExponent
 0001:0000875C       FloatToText
 0001:00008A30       FloatToDecimal
 0001:00008C5C       TextToFloat
 0001:00008D70       FloatToStr
 0001:00008DA0       CurrToStr
 0001:00008DD0       TryStrToFloat
 0001:00008DF8       TryStrToFloat
 0001:00008E30       TryStrToFloat
 0001:00008E68       TryStrToCurr
 0001:00008E90       DateTimeToTimeStamp
 0001:00008ED4       TryEncodeTime
 0001:00008F54       EncodeTime
 0001:00008F98       DecodeTime
 0001:00008FF8       IsLeapYear
 0001:0000903C       TryEncodeDate
 0001:00009140       EncodeDate
 0001:0000917C       DecodeDateFully
 0001:000092F8       DecodeDate
 0001:00009328       DayOfWeek
 0001:00009358       Now
 0001:000093A0       CurrentYear
 0001:000093C0       AppendChars
 0001:00009420       AppendString
 0001:00009444       AppendNumber
 0001:00009494       GetCount
 0001:000094CC       GetDate
 0001:00009504       GetTime
 0001:00009544       ConvertEraString
 0001:000096C8       ConvertYearString
 0001:000097E0       AppendFormat
 0001:00009FE8       DateTimeToString
 0001:0000A054       DateTimeToStr
 0001:0000A070       FormatDateTime
 0001:0000A094       ScanBlanks
 0001:0000A0D4       ScanNumber
 0001:0000A188       ScanString
 0001:0000A220       ScanChar
 0001:0000A270       GetDateOrder
 0001:0000A2D8       ScanToNumber
 0001:0000A340       GetEraYearOffset
 0001:0000A3A4       EraToYear
 0001:0000A40C       ScanDate
 0001:0000A7A0       ScanTime
 0001:0000A9BC       TryStrToTime
 0001:0000AA00       TryStrToDateTime
 0001:0000AA94       SysErrorMessage
 0001:0000AAF8       GetLocaleStr
 0001:0000AB54       GetLocaleChar
 0001:0000AB90       LocalGetLocaleStr
 0001:0000ABD4       GetMonthDayNames
 0001:0000AD08       EnumEraNames
 0001:0000AD54       EnumEraYearOffsets
 0001:0000ADE0       GetEraNamesAndYearOffsets
 0001:0000AEA4       TranslateDateFormat
 0001:0000B148       ConvertAddr
 0001:0000B158       ExceptionErrorMessage
 0001:0000B310       ShowException
 0001:0000B3EC       Exception.Create
 0001:0000B434       Exception.CreateFmt
 0001:0000B4C4       Exception.CreateRes
 0001:0000B50C       Exception.CreateResFmt
 0001:0000B5B0       EHeapException.FreeInstance
 0001:0000B5EC       CreateInOutError
 0001:0000B690       ErrorHandler
 0001:0000B700       CreateAssertException
 0001:0000B7B8       RaiseAssertException
 0001:0000B7C8       AssertErrorHandler
 0001:0000B800       AbstractErrorHandler
 0001:0000B81C       MapException
 0001:0000B8D0       GetExceptionClass
 0001:0000B8FC       CreateAVObject
 0001:0000BAE0       GetExceptionObject
 0001:0000BBC0       ExceptHandler
 0001:0000BBE8       InitExceptions
 0001:0000BC70       DoneExceptions
 0001:0000BCF4       InitPlatformId
 0001:0000BD74       CheckWin32Version
 0001:0000BDB0       GetFileVersion
 0001:0000BEA0       ByteTypeTest
 0001:0000BF4C       ByteType
 0001:0000BF80       StrByteType
 0001:0000BFB0       ByteToCharLen
 0001:0000BFEC       ByteToCharIndex
 0001:0000C070       CountChars
 0001:0000C128       CharToByteIndex
 0001:0000C1A0       CharToByteLen
 0001:0000C214       StrCharLength
 0001:0000C248       StrNextChar
 0001:0000C264       CharLength
 0001:0000C2B4       NextCharIndex
 0001:0000C308       AnsiPos
 0001:0000C354       AnsiStrPos
 0001:0000C42C       AnsiStrRScan
 0001:0000C47C       AnsiStrScan
 0001:0000C4D4       LCIDToCodePage
 0001:0000C54C       InitLeadBytes
 0001:0000C5CC       IsWesternGroup
 0001:0000C5F0       InitSysLocale
 0001:0000C79C       GetFormatSettings
 0001:0000CB30       Sleep
 0001:0000CB38       RaiseLastOSError
 0001:0000CBE4       Win32Check
 0001:0000CC08       CallTerminateProcs
 0001:0000CC44       FreeTerminateProcs
 0001:0000CC78       InitDriveSpacePtr
 0001:0000CCDC       InterlockedIncrement
 0001:0000CCE8       InterlockedDecrement
 0001:0000CCF4       InterlockedExchange
 0001:0000CCFC       InterlockedExchangeAdd
 0001:0000CD04       TThreadLocalCounter.Destroy
 0001:0000CD80       TThreadLocalCounter.HashIndex
 0001:0000CDA4       TThreadLocalCounter.Open
 0001:0000CE54       TThreadLocalCounter.Delete
 0001:0000CE78       TThreadLocalCounter.Recycle
 0001:0000CEDC       TMultiReadExclusiveWriteSynchronizer.Create
 0001:0000CF6C       TMultiReadExclusiveWriteSynchronizer.Destroy
 0001:0000CFC8       TMultiReadExclusiveWriteSynchronizer.BlockReaders
 0001:0000CFE0       TMultiReadExclusiveWriteSynchronizer.UnblockReaders
 0001:0000CFF8       TMultiReadExclusiveWriteSynchronizer.UnblockOneWriter
 0001:0000D010       TMultiReadExclusiveWriteSynchronizer.WaitForReadSignal
 0001:0000D030       TMultiReadExclusiveWriteSynchronizer.WaitForWriteSignal
 0001:0000D050       TMultiReadExclusiveWriteSynchronizer.BeginWrite
 0001:0000D12C       TMultiReadExclusiveWriteSynchronizer.EndWrite
 0001:0000D198       TMultiReadExclusiveWriteSynchronizer.BeginRead
 0001:0000D220       TMultiReadExclusiveWriteSynchronizer.EndRead
 0001:0000D2A4       FreeAndNil
 0001:0000D2C8       Supports
 0001:0000D304       Supports
 0001:0000D3AC       SafeLoadLibrary
 0001:0000D704       Finalization
 0001:0000D884       SysUtils
 0001:0000D904       VariantInit
 0001:0000D90C       VariantClear
 0001:0000D914       VariantCopy
 0001:0000D91C       VariantChangeType
 0001:0000D924       BackupVariantChangeTypeEx
 0001:0000D95C       UniUnimplemented
 0001:0000D970       BiUnimplemented
 0001:0000D984       CmpUnimplemented
 0001:0000D998       BackupVarI4FromStr
 0001:0000DA0C       BackupVarR4FromStr
 0001:0000DA80       BackupVarR8FromStr
 0001:0000DAF4       BackupVarDateFromStr
 0001:0000DB68       BackupVarCyFromStr
 0001:0000DBDC       BackupVarBoolFromStr
 0001:0000DC60       BackupVarBStrFromCy
 0001:0000DCDC       BackupVarBStrFromDate
 0001:0000DD58       BackupVarBStrFromBool
 0001:0000DDD8       SafeArrayCreate
 0001:0000DDE0       SafeArrayGetLBound
 0001:0000DDE8       SafeArrayGetUBound
 0001:0000DDF0       SafeArrayPtrOfIndex
 0001:0000DDF8       FindProc
 0001:0000DE3C       InitializeVarUtils
 0001:0000E148       Finalization
 0001:0000E178       VarUtils
 0001:0000E764       VarCastError
 0001:0000E7B8       VarCastError
 0001:0000E854       VarInvalidOp
 0001:0000E8A8       VarOverflowError
 0001:0000E944       VarArrayCreateError
 0001:0000E998       TranslateResult
 0001:0000EBEC       VarResultCheck
 0001:0000EBF8       VarResultCheck
 0001:0000EC2C       @DispInvokeError
 0001:0000EC80       @VarNull
 0001:0000EC94       InBounds
 0001:0000ECC4       Increment
 0001:0000ED20       VarArrayClear
 0001:0000EE9C       VarClearDeep
 0001:0000EF18       @VarClear
 0001:0000EF2C       @VarClr
 0001:0000EF34       InBounds
 0001:0000EF64       Increment
 0001:0000EFC0       VarArrayCopyForEach
 0001:0000F18C       VarCopyCopyProc
 0001:0000F194       VarCopyDeep
 0001:0000F240       @VarCopy
 0001:0000F284       CurrToWStrViaOS
 0001:0000F2BC       DateToWStrViaOS
 0001:0000F2F4       BoolToWStrViaOS
 0001:0000F3B8       VarToLStrViaOS
 0001:0000F484       VarToLStrAny
 0001:0000F4E8       VarToLStrCustom
 0001:0000F56C       @VarToLStr
 0001:0000FAB0       VarToWStrViaOS
 0001:0000FB68       VarToWStrAny
 0001:0000FBCC       VarToWStrCustom
 0001:0000FC94       @VarToWStr
 0001:000101F4       @VarFromInt
 0001:00010230       @VarFromInt64
 0001:0001025C       @VarFromBool
 0001:00010284       @VarFromReal
 0001:00010298       @VarFromTDateTime
 0001:000102AC       @VarFromCurr
 0001:000102C0       @VarFromLStr
 0001:000102EC       @VarFromWStr
 0001:00010324       @VarAddRef
 0001:000104A8       VarTypeAsText
 0001:00010618       SetVarAsError
 0001:00010630       SetClearVarToEmptyParam
 0001:00010660       ClearVariantTypeList
 0001:000106CC       TCustomVariantType.BinaryOp
 0001:000106D8       TCustomVariantType.Cast
 0001:00010710       TCustomVariantType.CastTo
 0001:00010758       TCustomVariantType.Compare
 0001:00010764       TCustomVariantType.CompareOp
 0001:0001079C       TCustomVariantType.CastToOle
 0001:000107D8       TCustomVariantType.Destroy
 0001:00010864       TCustomVariantType.IsClear
 0001:00010868       TCustomVariantType.LeftPromotion
 0001:0001087C       TCustomVariantType.OlePromotion
 0001:00010884       TCustomVariantType.RaiseCastError
 0001:0001088C       TCustomVariantType.RaiseInvalidOp
 0001:00010894       TCustomVariantType.RaiseDispError
 0001:0001089C       TCustomVariantType.RightPromotion
 0001:000108B0       TCustomVariantType.UnaryOp
 0001:000108B8       TCustomVariantType.DispInvoke
 0001:000108C4       TCustomVariantType._AddRef
 0001:000108D0       TCustomVariantType._Release
 0001:000108DC       TCustomVariantType.QueryInterface
 0001:00010904       FindCustomVariantType
 0001:000109BC       FindCustomVariantType
 0001:00010AA4       Null
 0001:00010AAC       Finalization
 0001:00010B24       Variants
 0001:00010CB8       Finalization
 0001:00010CE8       RTLConsts
 0001:00010D1C       GetTypeData
 0001:00010D28       GetEnumNameValue
 0001:00010D74       GetEnumValue
 0001:00010DFC       GetPropInfo
 0001:00010E6C       GetOrdProp
 0001:00010EE0       SetOrdProp
 0001:00010F3C       SetShortStrProp
 0001:00010F90       SetShortStrPropAsLongStr
 0001:00010FCC       AssignLongStr
 0001:00010FE8       SetLongStrProp
 0001:00011028       SetWideStrPropAsLongStr
 0001:00011088       SetStrProp
 0001:000110E0       SetWideStrProp
 0001:000111E4       SetFloatProp
 0001:00011434       AssignVariant
 0001:00011450       SetVariantProp
 0001:00011490       SetMethodProp
 0001:000114C8       SetInt64Prop
 0001:00011504       SetInterfaceProp
 0001:000115A0       Finalization
 0001:000115F0       TypInfo
 0001:000115F8       Finalization
 0001:00011628       ActiveX
 0001:00012C54       Point
 0001:00012C78       SmallPoint
 0001:00012CA0       Rect
 0001:00012CCC       Bounds
 0001:00012CF8       InvalidPoint
 0001:00012DD4       TRegGroup.AddClass
 0001:00012DF4       TRegGroup.BestClass
 0001:00012E68       TRegGroup.BestGroup
 0001:00012EFC       TRegGroup.Create
 0001:00012F84       TRegGroup.Destroy
 0001:00012FD8       TRegGroup.GetClass
 0001:0001305C       TRegGroup.InGroup
 0001:000130B4       TRegGroup.RegisterClass
 0001:00013160       TRegGroup.Registered
 0001:00013188       PointerInModule
 0001:000131B8       TRegGroup.UnregisterModuleClasses
 0001:00013294       TRegGroups.Activate
 0001:000132FC       TRegGroups.Create
 0001:00013388       TRegGroups.Destroy
 0001:00013404       TRegGroups.FindGroup
 0001:00013468       TRegGroups.GetClass
 0001:000134D0       Error
 0001:00013560       TRegGroups.GroupWith
 0001:00013644       TRegGroups.Lock
 0001:0001365C       TRegGroups.RegisterClass
 0001:0001368C       TRegGroups.Registered
 0001:000136E4       TRegGroups.StartGroup
 0001:00013750       TRegGroups.Unlock
 0001:00013768       TRegGroups.UnregisterModuleClasses
 0001:000137D4       TClassFinder.Create
 0001:0001391C       TClassFinder.Destroy
 0001:00013958       TClassFinder.GetClass
 0001:000139F4       GetFieldClassTable
 0001:00013A00       ClassNotFound
 0001:00013A70       GetClass
 0001:00013AC8       FindClass
 0001:00013AF4       RegisterClass
 0001:00013B6C       UnRegisterModuleClasses
 0001:00013BBC       StartClassGroup
 0001:00013C0C       GroupDescendentsWith
 0001:00013C64       ActivateClassGroup
 0001:00013D1C       TIntConst.Create
 0001:00013D74       RegisterIntegerConsts
 0001:00013DAC       FindIdentToInt
 0001:00013E3C       IdentToInt
 0001:00013E9C       IntToIdent
 0001:00013EF8       RegisterFindGlobalComponentProc
 0001:00013F3C       UnregisterFindGlobalComponentProc
 0001:00013F5C       FindGlobalComponent
 0001:00013FB4       IsUniqueGlobalComponentName
 0001:00013FEC       InternalReadComponentRes
 0001:00014090       BeginGlobalLoading
 0001:000140F8       NotifyGlobalLoading
 0001:00014140       EndGlobalLoading
 0001:000141AC       InitComponent
 0001:00014260       InitInheritedComponent
 0001:00014324       TList.Destroy
 0001:00014350       TList.Add
 0001:000143A8       TList.Clear
 0001:000143C8       TList.Delete
 0001:0001445C       ReturnAddr
 0001:00014464       TList.Error
 0001:000144A4       TList.Error
 0001:00014504       TList.Expand
 0001:00014530       TList.First
 0001:00014550       TList.Get
 0001:00014598       TList.Grow
 0001:000145F0       TList.IndexOf
 0001:0001463C       TList.Insert
 0001:000146EC       TList.Last
 0001:00014710       TList.Put
 0001:000147A0       TList.Remove
 0001:000147D4       TList.SetCapacity
 0001:00014830       TList.SetCount
 0001:000148D8       TList.Notify
 0001:000148EC       TThreadList.Create
 0001:00014954       TThreadList.Destroy
 0001:000149D0       TThreadList.Add
 0001:00014A5C       TThreadList.LockList
 0001:00014A84       TThreadList.Remove
 0001:00014AD8       TThreadList.UnlockList
 0001:00014AF0       TBits.Destroy
 0001:00014B2C       TBits.Error
 0001:00014B50       Min
 0001:00014B78       TBits.SetSize
 0001:00014C4C       TBits.SetBit
 0001:00014C78       TBits.OpenBit
 0001:00014D30       TPersistent.Destroy
 0001:00014D6C       TPersistent.Assign
 0001:00014D98       TPersistent.AssignError
 0001:00014E70       TPersistent.AssignTo
 0001:00014E8C       TPersistent.DefineProperties
 0001:00014E9C       TPersistent.GetNamePath
 0001:00014F54       TPersistent.GetOwner
 0001:00014F6C       TInterfacedPersistent.AfterConstruction
 0001:00014FC8       TInterfacedPersistent._AddRef
 0001:00014FF8       TInterfacedPersistent._Release
 0001:00015028       TInterfacedPersistent.QueryInterface
 0001:00015054       TCollection.Add
 0001:00015080       TCollection.Clear
 0001:000150E8       TStrings.Destroy
 0001:00015124       TStrings.Add
 0001:00015154       TStrings.AddObject
 0001:00015188       TStrings.AddStrings
 0001:00015248       TStrings.Assign
 0001:000152EC       TStrings.BeginUpdate
 0001:00015310       DoWrite
 0001:00015370       TStrings.DefineProperties
 0001:000153BC       TStrings.EndUpdate
 0001:000153E0       TStrings.Equals
 0001:00015494       ReturnAddr
 0001:0001549C       TStrings.Error
 0001:000154DC       TStrings.Error
 0001:0001553C       TStrings.Exchange
 0001:00015628       TStrings.GetCapacity
 0001:00015644       TStrings.GetObject
 0001:0001565C       TStrings.GetText
 0001:000156B8       TStrings.GetTextStr
 0001:00015800       TStrings.IndexOf
 0001:0001588C       TStrings.IndexOfName
 0001:00015968       TStrings.IndexOfObject
 0001:000159B4       TStrings.InsertObject
 0001:000159E8       TStrings.LoadFromFile
 0001:00015A44       TStrings.LoadFromStream
 0001:00015AF8       TStrings.Move
 0001:00015BB4       TStrings.Put
 0001:00015BF4       TStrings.PutObject
 0001:00015C08       TStrings.ReadData
 0001:00015CB8       TStrings.SaveToFile
 0001:00015D18       TStrings.SaveToStream
 0001:00015D78       TStrings.SetCapacity
 0001:00015D88       TStrings.SetStringsAdapter
 0001:00015DD4       TStrings.SetText
 0001:00015E2C       TStrings.SetTextStr
 0001:00015F0C       TStrings.SetUpdateState
 0001:00015F1C       TStrings.WriteData
 0001:00015FA8       TStrings.CompareStrings
 0001:00015FCC       TStrings.GetNameValueSeparator
 0001:00015FF8       TStrings.SetNameValueSeparator
 0001:0001602C       TStringList.Destroy
 0001:000160A8       TStringList.Add
 0001:000160D0       TStringList.AddObject
 0001:00016148       TStringList.Changed
 0001:00016174       TStringList.Changing
 0001:000161A0       TStringList.Clear
 0001:000161F4       TStringList.Delete
 0001:00016294       TStringList.Exchange
 0001:00016310       TStringList.ExchangeItems
 0001:0001637C       TStringList.Find
 0001:00016414       TStringList.Get
 0001:00016460       TStringList.GetCapacity
 0001:0001647C       TStringList.GetCount
 0001:00016498       TStringList.GetObject
 0001:000164E0       TStringList.Grow
 0001:00016538       TStringList.IndexOf
 0001:00016584       TStringList.Insert
 0001:000165AC       TStringList.InsertObject
 0001:00016614       TStringList.InsertItem
 0001:000166BC       TStringList.Put
 0001:00016734       TStringList.PutObject
 0001:00016790       TStringList.QuickSort
 0001:00016854       TStringList.SetCapacity
 0001:00016880       TStringList.SetSorted
 0001:000168B8       TStringList.SetUpdateState
 0001:000168E8       StringListCompareStrings
 0001:00016924       TStringList.Sort
 0001:00016940       TStringList.CustomSort
 0001:00016990       TStringList.CompareStrings
 0001:000169D0       TStream.GetPosition
 0001:000169F8       TStream.SetPosition
 0001:00016A14       TStream.GetSize
 0001:00016A60       TStream.SetSize
 0001:00016A70       TStream.SetSize64
 0001:00016A8C       TStream.SetSize
 0001:00016AE4       RaiseException
 0001:00016B30       TStream.Seek
 0001:00016BBC       TStream.Seek
 0001:00016C2C       TStream.ReadBuffer
 0001:00016C74       TStream.WriteBuffer
 0001:00016CBC       TStream.CopyFrom
 0001:00016DB4       TStream.ReadComponent
 0001:00016E18       THandleStream.Create
 0001:00016E68       THandleStream.Read
 0001:00016EA0       THandleStream.Write
 0001:00016ED8       THandleStream.Seek
 0001:00016F0C       THandleStream.SetSize
 0001:00016F2C       THandleStream.SetSize
 0001:00016F5C       TFileStream.Create
 0001:00016FAC       TFileStream.Create
 0001:0001710C       TFileStream.Destroy
 0001:00017154       TCustomMemoryStream.SetPointer
 0001:0001717C       TCustomMemoryStream.Read
 0001:000171EC       TCustomMemoryStream.Seek
 0001:00017244       TMemoryStream.Destroy
 0001:00017280       TMemoryStream.Clear
 0001:000172A4       TMemoryStream.LoadFromStream
 0001:000172EC       TMemoryStream.SetCapacity
 0001:00017320       TMemoryStream.SetSize
 0001:00017368       TMemoryStream.Realloc
 0001:00017430       TMemoryStream.Write
 0001:000174C0       TResourceStream.Create
 0001:00017520       Error
 0001:00017590       TResourceStream.Initialize
 0001:0001761C       TResourceStream.Destroy
 0001:00017664       TResourceStream.Write
 0001:00017694       TFiler.Create
 0001:000176F0       TFiler.Destroy
 0001:00017730       TFiler.SetRoot
 0001:00017824       TPropFixup.Create
 0001:00017898       TPropFixup.MakeGlobalReference
 0001:00017904       TPropFixup.ResolveReference
 0001:00017928       TPropIntfFixup.ResolveReference
 0001:000179BC       FindNestedComponent
 0001:00017AC4       AddFinished
 0001:00017B00       AddNotFinished
 0001:00017B54       GlobalFixupReferences
 0001:00017D3C       RemoveFixupReferences
 0001:00017DF8       RemoveFixups
 0001:00017E8C       ReadError
 0001:00017EAC       PropValueError
 0001:00017EBC       PropertyNotFound
 0001:00017EF0       EnumValue
 0001:00017F1C       TReader.Destroy
 0001:00017F6C       TReader.CheckValue
 0001:00017F9C       TReader.DefineProperty
 0001:00017FE0       TReader.DefineBinaryProperty
 0001:000180C0       TReader.EndOfList
 0001:000180E4       TReader.Error
 0001:0001811C       TReader.FindMethod
 0001:00018194       RemoveGlobalFixup
 0001:00018230       TReader.DoFixupReferences
 0001:00018364       TReader.FlushBuffer
 0001:00018394       TReader.FreeFixups
 0001:000183F4       TReader.GetFieldClass
 0001:000184A4       TReader.GetPosition
 0001:000184D0       TReader.NextValue
 0001:000184F4       TReader.PropertyError
 0001:00018514       TReader.Read
 0001:00018560       TReader.ReadBuffer
 0001:000185B4       TReader.ReadBoolean
 0001:000185D4       TReader.ReadChar
 0001:00018638       TReader.ReadCollection
 0001:00018714       AddSubComponentsToLoaded
 0001:00018760       CheckSubComponents
 0001:000187E8       SetSubComponentState
 0001:00018870       ComponentCreated
 0001:00018898       Recover
 0001:00018904       CreateComponent
 0001:00018A18       SetCompName
 0001:00018AB8       FindExistingComponent
 0001:00018B60       TReader.ReadComponent
 0001:00018D9C       TReader.ReadData
 0001:00018E10       TReader.ReadDataInner
 0001:00018EE4       TReader.ReadFloat
 0001:00018F30       TReader.ReadSingle
 0001:00018F7C       TReader.ReadCurrency
 0001:00018FD0       TReader.ReadDate
 0001:0001901C       TReader.ReadIdent
 0001:00019128       TReader.ReadInteger
 0001:00019198       TReader.ReadInt64
 0001:000191E0       TReader.ReadListBegin
 0001:000191F4       TReader.ReadListEnd
 0001:00019208       TReader.ReadPrefix
 0001:00019264       HandleException
 0001:00019364       PropPathError
 0001:00019380       TReader.ReadProperty
 0001:0001958C       SetIntIdent
 0001:000195D8       SetObjectIdent
 0001:00019620       SetVariantReference
 0001:0001967C       SetInterfaceReference
 0001:0001973C       TReader.ReadPropValue
 0001:00019A54       FindUniqueName
 0001:00019AC4       TReader.ReadRootComponent
 0001:00019DF8       TReader.ReadSet
 0001:00019EC0       TReader.ReadSignature
 0001:00019EF4       TReader.ReadStr
 0001:00019F3C       TReader.ReadString
 0001:0001A000       TReader.ReadWideString
 0001:0001A0F8       TReader.ReadValue
 0001:0001A118       TReader.SkipSetBody
 0001:0001A168       SkipList
 0001:0001A194       SkipBinary
 0001:0001A1C8       SkipCollection
 0001:0001A23C       TReader.SkipValue
 0001:0001A3D8       TReader.SkipProperty
 0001:0001A428       TReader.SkipComponent
 0001:0001A4DC       TReader.FindAncestorComponent
 0001:0001A5A4       TReader.ReferenceName
 0001:0001A5D0       TReader.SetName
 0001:0001A610       TReader.FindComponentClass
 0001:0001A6A8       TReader.SkipBytes
 0001:0001A704       ReadCustomVariant
 0001:0001A8D0       TReader.ReadVariant
 0001:0001AAE4       TWriter.Write
 0001:0001AB30       TWriter.WriteBuffer
 0001:0001AB5C       TWriter.WriteBoolean
 0001:0001AB88       TWriter.WriteInteger
 0001:0001AC08       TWriter.WriteListBegin
 0001:0001AC1C       TWriter.WriteListEnd
 0001:0001AC30       TWriter.WriteMinStr
 0001:0001ACE0       TWriter.WriteString
 0001:0001AD3C       TWriter.WriteValue
 0001:0001AD5C       InitThreadSynchronization
 0001:0001AD94       DoneThreadSynchronization
 0001:0001ADB0       ResetSyncEvent
 0001:0001ADC0       WaitForSyncEvent
 0001:0001ADE4       CheckSynchronize
 0001:0001AF88       TComponent.Create
 0001:0001AFE4       TComponent.Destroy
 0001:0001B088       TComponent.BeforeDestruction
 0001:0001B0A4       TComponent.FreeNotification
 0001:0001B11C       TComponent.ReadLeft
 0001:0001B13C       TComponent.ReadTop
 0001:0001B15C       TComponent.WriteLeft
 0001:0001B17C       TComponent.WriteTop
 0001:0001B19C       TComponent.Insert
 0001:0001B1E0       TComponent.Remove
 0001:0001B228       TComponent.InsertComponent
 0001:0001B298       TComponent.RemoveComponent
 0001:0001B2E0       TComponent.DestroyComponents
 0001:0001B350       TComponent.Destroying
 0001:0001B3AC       TComponent.RemoveNotification
 0001:0001B3F4       TComponent.RemoveFreeNotification
 0001:0001B41C       TComponent.Notification
 0001:0001B4A4       TComponent.DefineProperties
 0001:0001B54C       TComponent.HasParent
 0001:0001B560       TComponent.GetChildren
 0001:0001B574       TComponent.GetChildOwner
 0001:0001B58C       TComponent.GetChildParent
 0001:0001B5A4       TComponent.GetNamePath
 0001:0001B5C4       TComponent.GetOwner
 0001:0001B5E0       TComponent.SetChildOrder
 0001:0001B5F4       TComponent.GetParentComponent
 0001:0001B60C       TComponent.SetParentComponent
 0001:0001B61C       TComponent.Updating
 0001:0001B630       TComponent.Updated
 0001:0001B644       TComponent.Loaded
 0001:0001B658       TComponent.PaletteCreated
 0001:0001B664       TComponent.ReadState
 0001:0001B680       TComponent.WriteState
 0001:0001B69C       TComponent.ValidateRename
 0001:0001B730       TComponent.ValidateContainer
 0001:0001B754       TComponent.ValidateInsert
 0001:0001B764       TComponent.FindComponent
 0001:0001B7D0       TComponent.SetName
 0001:0001B888       TComponent.ChangeName
 0001:0001B8A8       TComponent.GetComponent
 0001:0001B8E8       TComponent.GetComponentCount
 0001:0001B914       TComponent.SetComponentIndex
 0001:0001B9A0       TComponent.SetDesigning
 0001:0001BA08       TComponent.SetReference
 0001:0001BA6C       TComponent.ExecuteAction
 0001:0001BAA0       TComponent.UpdateAction
 0001:0001BAD4       TComponent.SafeCallException
 0001:0001BB1C       TComponent.UpdateRegistry
 0001:0001BB34       TComponent.QueryInterface
 0001:0001BB84       TComponent._AddRef
 0001:0001BBB4       TComponent._Release
 0001:0001BBE4       TComponent.IntfGetComponent
 0001:0001BBFC       TBasicActionLink.Create
 0001:0001BC4C       TBasicActionLink.AssignClient
 0001:0001BC5C       TBasicActionLink.Destroy
 0001:0001BCA4       TBasicActionLink.Change
 0001:0001BCCC       TBasicActionLink.Execute
 0001:0001BD04       TBasicActionLink.SetAction
 0001:0001BD50       TBasicActionLink.IsOnExecuteLinked
 0001:0001BD64       TBasicActionLink.SetOnExecute
 0001:0001BD70       TBasicActionLink.Update
 0001:0001BD90       TBasicAction.Create
 0001:0001BDEC       TBasicAction.Destroy
 0001:0001BE64       TBasicAction.HandlesTarget
 0001:0001BE7C       TBasicAction.ExecuteTarget
 0001:0001BE8C       TBasicAction.Notification
 0001:0001BEC8       TBasicAction.UpdateTarget
 0001:0001BED8       TBasicAction.Execute
 0001:0001BF0C       TBasicAction.Update
 0001:0001BF40       TBasicAction.SetOnExecute
 0001:0001BFB8       TBasicAction.Change
 0001:0001BFDC       TBasicAction.RegisterChanges
 0001:0001C004       TBasicAction.UnRegisterChanges
 0001:0001C060       TBasicAction.SetActionComponent
 0001:0001C0B4       TStreamAdapter.Create
 0001:0001C10C       TStreamAdapter.Destroy
 0001:0001C15C       TStreamAdapter.Read
 0001:0001C1D8       TStreamAdapter.Write
 0001:0001C254       TStreamAdapter.Seek
 0001:0001C2E4       TStreamAdapter.SetSize
 0001:0001C354       TStreamAdapter.CopyTo
 0001:0001C578       TStreamAdapter.Commit
 0001:0001C58C       TStreamAdapter.Revert
 0001:0001C5A0       TStreamAdapter.LockRegion
 0001:0001C5B4       TStreamAdapter.UnlockRegion
 0001:0001C5C8       TStreamAdapter.Stat
 0001:0001C668       TStreamAdapter.Clone
 0001:0001C688       FreeIntConstList
 0001:0001C704       ModuleUnload
 0001:0001C718       StdWndProc
 0001:0001C738       CalcJmpOffset
 0001:0001C75C       MakeObjectInstance
 0001:0001C83C       FreeObjectInstance
 0001:0001C870       AllocateHWnd
 0001:0001C92C       DeallocateHWnd
 0001:0001C964       Finalization
 0001:0001CA14       Classes
 0001:0001CD08       Finalization
 0001:0001CD38       Consts
 0001:0001D9F0       InternalDeletePalette
 0001:0001DA74       GetHashCode
 0001:0001DA88       TResourceManager.Create
 0001:0001DADC       TResourceManager.Destroy
 0001:0001DB0C       TResourceManager.Lock
 0001:0001DB24       TResourceManager.Unlock
 0001:0001DB3C       TResourceManager.AllocResource
 0001:0001DC40       TResourceManager.FreeResource
 0001:0001DD0C       TResourceManager.ChangeResource
 0001:0001DD90       TResourceManager.AssignResource
 0001:0001DE10       ClearColor
 0001:0001DE9C       PaletteChanged
 0001:0001E398       ColorToRGB
 0001:0001E3C8       ColorToIdent
 0001:0001E3F0       IdentToColor
 0001:0001E418       TGraphicsObject.Changed
 0001:0001E43C       TGraphicsObject.Lock
 0001:0001E45C       TGraphicsObject.Unlock
 0001:0001E630       CharsetToIdent
 0001:0001E658       IdentToCharset
 0001:0001E680       GetFontData
 0001:0001E760       TFont.Create
 0001:0001E7CC       TFont.Destroy
 0001:0001E800       TFont.Changed
 0001:0001E828       TFont.Assign
 0001:0001E900       TFont.GetData
 0001:0001E930       TFont.SetData
 0001:0001E984       TFont.SetColor
 0001:0001E9B8       TFont.GetHandle
 0001:0001EB68       TFont.SetHandle
 0001:0001EB90       TFont.GetHeight
 0001:0001EBAC       TFont.SetHeight
 0001:0001EBD8       TFont.GetName
 0001:0001EBFC       TFont.SetName
 0001:0001EC60       TFont.GetSize
 0001:0001EC8C       TFont.SetSize
 0001:0001ECBC       TFont.GetStyle
 0001:0001ECD8       TFont.SetStyle
 0001:0001ED04       TFont.GetPitch
 0001:0001ED20       TFont.SetPitch
 0001:0001ED4C       TFont.GetCharset
 0001:0001ED68       TFont.SetCharset
 0001:0001ED94       TPen.Create
 0001:0001EDE8       TPen.Destroy
 0001:0001EE1C       TPen.Assign
 0001:0001EED4       TPen.GetData
 0001:0001EF04       TPen.SetData
 0001:0001EF58       TPen.GetColor
 0001:0001EF74       TPen.SetColor
 0001:0001EFA0       TPen.GetHandle
 0001:0001F044       TPen.SetMode
 0001:0001F078       TPen.GetStyle
 0001:0001F094       TPen.SetStyle
 0001:0001F0C0       TPen.GetWidth
 0001:0001F0DC       TPen.SetWidth
 0001:0001F110       TBrush.Create
 0001:0001F15C       TBrush.Destroy
 0001:0001F190       TBrush.Assign
 0001:0001F238       TBrush.GetData
 0001:0001F270       TBrush.SetData
 0001:0001F2C4       TBrush.SetBitmap
 0001:0001F2F8       TBrush.GetColor
 0001:0001F314       TBrush.SetColor
 0001:0001F34C       TBrush.GetHandle
 0001:0001F440       TBrush.GetStyle
 0001:0001F45C       TBrush.SetStyle
 0001:0001F498       TCanvas.Create
 0001:0001F5A8       TCanvas.Destroy
 0001:0001F620       TCanvas.CopyRect
 0001:0001F6D0       TCanvas.Draw
 0001:0001F794       TCanvas.FillRect
 0001:0001F7E4       TCanvas.LineTo
 0001:0001F830       TCanvas.Lock
 0001:0001F860       TCanvas.MoveTo
 0001:0001F89C       TCanvas.StretchDraw
 0001:0001F8E8       TCanvas.TextExtent
 0001:0001F940       TCanvas.TextWidth
 0001:0001F968       TCanvas.TextHeight
 0001:0001F990       TCanvas.TryLock
 0001:0001F9F0       TCanvas.Unlock
 0001:0001FA20       TCanvas.SetFont
 0001:0001FA40       TCanvas.SetPen
 0001:0001FA60       TCanvas.SetBrush
 0001:0001FA80       TCanvas.GetPenPos
 0001:0001FAB4       TCanvas.SetPenPos
 0001:0001FADC       TCanvas.GetPixel
 0001:0001FB1C       TCanvas.SetPixel
 0001:0001FB70       TCanvas.GetHandle
 0001:0001FBA4       TCanvas.DeselectHandles
 0001:0001FC1C       TCanvas.CreateHandle
 0001:0001FC28       TCanvas.SetHandle
 0001:0001FCA4       TCanvas.RequiredState
 0001:0001FD38       TCanvas.Changing
 0001:0001FD5C       TCanvas.Changed
 0001:0001FD80       TCanvas.CreateFont
 0001:0001FDC0       TCanvas.CreatePen
 0001:0001FE04       TCanvas.CreateBrush
 0001:0001FEA4       TCanvas.FontChanged
 0001:0001FED8       TCanvas.PenChanged
 0001:0001FF0C       TCanvas.BrushChanged
 0001:0001FF40       InvalidOperation
 0001:0001FF60       InvalidGraphic
 0001:0001FF80       InvalidBitmap
 0001:0001FF8C       InvalidIcon
 0001:0001FF98       OutOfResources
 0001:0001FFEC       GDIError
 0001:00020098       GDICheck
 0001:000200BC       DupBits
 0001:00020228       GetDInColors
 0001:00020264       BytesPerScanline
 0001:000202A0       TransparentStretchBlt
 0001:00020570       RGBTripleToQuad
 0001:000205E4       RGBQuadToTriple
 0001:00020690       ByteSwapColors
 0001:000206E8       CreateSystemPalette
 0001:00020814       SystemPaletteOverride
 0001:000208BC       PaletteFromDIBColorTable
 0001:0002099C       PaletteToDIBColorTable
 0001:00020A04       TwoBitsFromDIB
 0001:00020BC8       AdjustColor
 0001:00020BF0       BetterSize
 0001:00020C9C       ReadIcon
 0001:00020FE8       InitializeBitmapInfoHeader
 0001:0002111C       InternalGetDIBSizes
 0001:00021194       GetDIBSizes
 0001:000211B8       InternalGetDIB
 0001:00021278       GetDIB
 0001:000212A8       WinError
 0001:000212AC       CheckBool
 0001:000212C4       WriteIcon
 0001:000214E0       TGraphic.Create
 0001:00021524       TGraphic.Changed
 0001:00021554       DoWrite
 0001:000215B8       TGraphic.DefineProperties
 0001:00021604       TGraphic.Equals
 0001:00021754       TGraphic.GetPalette
 0001:0002176C       TGraphic.GetTransparent
 0001:00021788       TGraphic.LoadFromFile
 0001:000217E4       TGraphic.Progress
 0001:00021824       TGraphic.ReadData
 0001:00021840       TGraphic.SaveToFile
 0001:000218A0       TGraphic.SetPalette
 0001:000218B0       TGraphic.SetTransparent
 0001:000218E0       TGraphic.WriteData
 0001:00021998       FreeMemoryContexts
 0001:00021A44       DeselectBitmap
 0001:00021AE0       TBitmapCanvas.Create
 0001:00021B30       TBitmapCanvas.Destroy
 0001:00021B6C       TBitmapCanvas.FreeContext
 0001:00021C1C       TBitmapCanvas.CreateHandle
 0001:00021D28       TSharedImage.Reference
 0001:00021D38       TSharedImage.Release
 0001:00021D68       TBitmapImage.Destroy
 0001:00021DE8       TBitmapImage.FreeHandle
 0001:00021E64       UpdateDIBColorTable
 0001:00021F34       FixupBitFields
 0001:00021FA4       CopyBitmap
 0001:00022614       CopyPalette
 0001:0002268C       CopyBitmapAsMask
 0001:000228B8       TBitmap.Create
 0001:00022934       TBitmap.Destroy
 0001:00022984       TBitmap.Assign
 0001:00022A84       TBitmap.CopyImage
 0001:00022B58       TBitmap.Changing
 0001:00022B94       TBitmap.Changed
 0001:00022BB8       TBitmap.Dormant
 0001:00022C40       TBitmap.Draw
 0001:00022EE4       TBitmap.FreeImage
 0001:00022F84       TBitmap.GetEmpty
 0001:00022FC4       TBitmap.GetCanvas
 0001:00023034       TBitmap.GetHandle
 0001:0002306C       TBitmap.GetHandleType
 0001:000230C4       TBitmap.GetHeight
 0001:000230E8       TBitmap.GetMaskHandle
 0001:0002310C       TBitmap.GetMonochrome
 0001:00023148       TBitmap.GetPalette
 0001:0002316C       TBitmap.GetTransparentColor
 0001:000231D4       TBitmap.GetWidth
 0001:000231F0       TBitmap.DIBNeeded
 0001:000232C4       TBitmap.FreeContext
 0001:000232E4       TBitmap.HandleNeeded
 0001:000233A8       TBitmap.MaskHandleNeeded
 0001:00023440       TBitmap.PaletteNeeded
 0001:00023550       TBitmap.LoadFromClipboardFormat
 0001:000235E8       TBitmap.LoadFromStream
 0001:00023618       TBitmap.NewImage
 0001:00023724       TBitmap.ReadData
 0001:00023754       TBitmap.ReadDIB
 0001:00023D20       TBitmap.ReadStream
 0001:00023D98       TBitmap.SetHandle
 0001:00023E84       TBitmap.SetHandleType
 0001:00024050       TBitmap.SetHeight
 0001:000240C0       TBitmap.SetMonochrome
 0001:0002416C       TBitmap.SetPalette
 0001:00024278       TBitmap.SetWidth
 0001:000242E8       TBitmap.WriteData
 0001:00024308       TBitmap.WriteStream
 0001:00024648       TBitmap.SaveToStream
 0001:00024668       TBitmap.SaveToClipboardFormat
 0001:00024724       TIconImage.Destroy
 0001:00024760       TIconImage.FreeHandle
 0001:00024788       TIcon.Create
 0001:000247F0       TIcon.Destroy
 0001:0002482C       TIcon.Assign
 0001:000248A4       TIcon.Draw
 0001:000248F8       TIcon.GetEmpty
 0001:0002492C       TIcon.GetHandle
 0001:00024950       TIcon.GetHeight
 0001:0002497C       TIcon.GetWidth
 0001:000249A8       TIcon.HandleNeeded
 0001:00024A3C       TIcon.ImageNeeded
 0001:00024B00       TIcon.LoadFromStream
 0001:00024BC0       TIcon.NewImage
 0001:00024C48       TIcon.SetHandle
 0001:00024C70       TIcon.SetHeight
 0001:00024CA4       TIcon.SetTransparent
 0001:00024CB4       TIcon.SetWidth
 0001:00024CE8       TIcon.SaveToStream
 0001:00024D24       TIcon.LoadFromClipboardFormat
 0001:00024D44       TIcon.SaveToClipboardFormat
 0001:00024D64       InitScreenLogPixels
 0001:00024DA4       GetDefFontCharSet
 0001:00024DFC       InitDefFontData
 0001:00024ED0       TPatternManager.Create
 0001:00024F14       TPatternManager.Destroy
 0001:00024F4C       TPatternManager.Lock
 0001:00024F64       TPatternManager.Unlock
 0001:00024F7C       TPatternManager.AllocPattern
 0001:00025048       TPatternManager.CreateBitmap
 0001:00025168       TPatternManager.FreePatterns
 0001:000251EC       AllocPatternBitmap
 0001:00025234       Finalization
 0001:00025308       Graphics
 0001:00025404       Min
 0001:00025430       Max
 0001:0002545C       Finalization
 0001:0002548C       Math
 0001:000255C4       TObjectList.Create
 0001:0002560C       TObjectList.GetItem
 0001:00025630       TObjectList.Insert
 0001:00025654       TObjectList.Notify
 0001:0002568C       TOrderedList.Pop
 0001:000256A8       TOrderedList.Push
 0001:000256CC       TOrderedList.Create
 0001:00025720       TOrderedList.Destroy
 0001:0002575C       TOrderedList.PeekItem
 0001:00025784       TOrderedList.PopItem
 0001:000257B4       TStack.PushItem
 0001:000257D4       Finalization
 0001:00025804       Contnrs
 0001:0002580C       ImageList_Create
 0001:00025814       ImageList_Destroy
 0001:0002581C       ImageList_GetImageCount
 0001:00025824       ImageList_Add
 0001:0002582C       ImageList_ReplaceIcon
 0001:00025834       ImageList_SetBkColor
 0001:0002583C       ImageList_GetBkColor
 0001:00025844       ImageList_AddIcon
 0001:0002586C       ImageList_Draw
 0001:00025874       ImageList_DrawEx
 0001:0002587C       ImageList_Remove
 0001:00025884       ImageList_BeginDrag
 0001:0002588C       ImageList_EndDrag
 0001:00025894       ImageList_DragEnter
 0001:0002589C       ImageList_DragLeave
 0001:000258A4       ImageList_DragMove
 0001:000258AC       ImageList_SetDragCursorImage
 0001:000258B4       ImageList_DragShowNolock
 0001:000258BC       ImageList_GetDragImage
 0001:000258C4       ImageList_Read
 0001:000258CC       ImageList_Write
 0001:000258D4       ImageList_GetIconSize
 0001:000258DC       ImageList_SetIconSize
 0001:000258E4       Finalization
 0001:00025914       CommCtrl
 0001:0002591C       InitAnApi
 0001:00025A1C       _GetSystemMetrics
 0001:00025AC0       xMonitorFromRect
 0001:00025B60       xMonitorFromWindow
 0001:00025C0C       xMonitorFromPoint
 0001:00025CA8       xGetMonitorInfo
 0001:00025DA4       xGetMonitorInfoA
 0001:00025EA0       xGetMonitorInfoW
 0001:00025F9C       xEnumDisplayMonitors
 0001:000260E8       InitMultiMonStubs
 0001:00026158       Finalization
 0001:00026188       MultiMon
 0001:0002619C       Finalization
 0001:000261CC       Imm
 0001:00026598       RegisterViewer
 0001:00026620       GetHelpSystem
 0001:00026684       THelpViewerNode.Create
 0001:000266CC       THelpManager.Create
 0001:00026758       THelpManager.RegisterViewer
 0001:000268B8       THelpManager.UnloadAllViewers
 0001:00026910       THelpManager.DoSoftShutDown
 0001:00026954       THelpManager.DoTableOfContents
 0001:00026B1C       THelpManager.CallSpecialWinHelp
 0001:00026C4C       THelpManager.ShowHelp
 0001:00026EAC       THelpManager.ShowContextHelp
 0001:00026FD0       THelpManager.ShowTableOfContents
 0001:00026FE4       THelpManager.ShowTopicHelp
 0001:00027100       THelpManager.AssignHelpSelector
 0001:00027168       THelpManager.Hook
 0001:0002721C       THelpManager.GetHandle
 0001:00027238       THelpManager.GetHelpFile
 0001:00027258       THelpManager.Release
 0001:00027328       THelpManager.Destroy
 0001:00027398       Finalization
 0001:000273D8       HelpIntfs
 0001:000273E4       Finalization
 0001:00027414       WinSpool
 0001:0002741C       Finalization
 0001:00027458       Printers
 0001:00027464       FlatSB_SetScrollProp
 0001:000274A0       InitializeFlatSB
 0001:000274D0       InitFlatSB
 0001:0002778C       Finalization
 0001:000277BC       FlatSB
 0001:0002789C       TSynchroObject.Acquire
 0001:000278A8       TSynchroObject.Release
 0001:000278B4       TCriticalSection.Create
 0001:00027904       TCriticalSection.Destroy
 0001:00027944       TCriticalSection.Acquire
 0001:0002795C       TCriticalSection.Release
 0001:00027974       TCriticalSection.Enter
 0001:00027988       TCriticalSection.Leave
 0001:0002799C       Finalization
 0001:000279CC       SyncObjs
 0001:000279D4       FreeThemeLibrary
 0001:00027B94       InitThemeLibrary
 0001:0002838C       UseThemes
 0001:000283C4       Finalization
 0001:00028418       UxTheme
 0001:00028438       Finalization
 0001:00028468       RichEdit
 0001:00028470       Finalization
 0001:000284A0       ToolWin
 0001:000284A8       Finalization
 0001:000284D8       ShellAPI
 0001:000284E0       Finalization
 0001:00028510       RegStr
 0001:00028518       Finalization
 0001:00028548       WinInet
 0001:00028550       Finalization
 0001:00028580       UrlMon
 0001:00028588       Finalization
 0001:000285B8       ShlObj
 0001:000285C0       Finalization
 0001:000285F0       CommDlg
 0001:000285F8       Finalization
 0001:00028628       Dlgs
 0001:0002879C       TCommonDialog.Create
 0001:00028800       TCommonDialog.Destroy
 0001:00028848       TCommonDialog.MessageHook
 0001:0002888C       TCommonDialog.DefaultHandler
 0001:000288E0       TCommonDialog.MainWndProc
 0001:00028934       TCommonDialog.WndProc
 0001:00028950       TCommonDialog.WMDestroy
 0001:0002897C       TCommonDialog.WMInitDialog
 0001:000289A4       TCommonDialog.WMNCDestroy
 0001:000289C8       TCommonDialog.TaskModalDialog
 0001:00028AA0       TCommonDialog.DoClose
 0001:00028AC4       TCommonDialog.DoShow
 0001:00028B8C       InitGlobals
 0001:00028CDC       Finalization
 0001:00028D38       Dialogs
 0001:00028E90       TTimer.Create
 0001:00028EFC       TTimer.Destroy
 0001:00028F48       TTimer.WndProc
 0001:00028FD0       TTimer.UpdateTimer
 0001:00029074       TTimer.SetEnabled
 0001:000290A0       TTimer.SetInterval
 0001:000290CC       TTimer.SetOnTimer
 0001:000290F0       TTimer.Timer
 0001:00029408       Finalization
 0001:00029450       ExtCtrls
 0001:00029480       Finalization
 0001:000294B0       ComStrs
 0001:000294B8       Finalization
 0001:000294F4       Clipbrd
 0001:00029550       Finalization
 0001:00029580       StrUtils
 0001:00029588       DestroyLocals
 0001:0002962C       Finalization
 0001:00029664       Buttons
 0001:0002968C       Finalization
 0001:000296BC       ExtDlgs
 0001:000296DC       Finalization
 0001:00029724       IniFiles
 0001:00029744       Finalization
 0001:0002978C       Registry
 0001:000297A8       Finalization
 0001:000297F8       Mapi
 0001:00029804       Finalization
 0001:00029854       ExtActns
 0001:00029860       Finalization
 0001:00029890       ListActns
 0001:00029938       GetComCtlVersion
 0001:0002997C       TConversion.ConvertReadStream
 0001:000299A8       TConversion.ConvertWriteStream
 0001:000299D4       Finalization
 0001:00029A4C       ComCtrls
 0001:00029C80       ThemeServices
 0001:00029CAC       TThemeServices.Create
 0001:00029D0C       TThemeServices.Destroy
 0001:00029D4C       TThemeServices.GetTheme
 0001:00029DAC       TThemeServices.GetThemesEnabled
 0001:00029DE0       TThemeServices.DoOnThemeChange
 0001:00029E04       TThemeServices.UnloadThemeData
 0001:00029E54       TThemeServices.ApplyThemeChange
 0001:00029E70       TThemeServices.DrawEdge
 0001:00029EC0       TThemeServices.DrawElement
 0001:00029F08       TThemeServices.DrawParentBackground
 0001:00029F80       TThemeServices.GetElementDetails
 0001:00029FE8       TThemeServices.GetElementDetails
 0001:0002A454       TThemeServices.PaintBorder
 0001:0002A5C8       TThemeServices.UpdateThemes
 0001:0002A5F0       Finalization
 0001:0002A634       Themes
 0001:0002BD40       TCustomEdit.Create
 0001:0002BE14       TCustomEdit.DoSetMaxLength
 0001:0002BE40       TCustomEdit.SetAutoSize
 0001:0002BE74       TCustomEdit.SetBorderStyle
 0001:0002BEB0       TCustomEdit.SetHideSelection
 0001:0002BEE4       TCustomEdit.SetMaxLength
 0001:0002BF28       TCustomEdit.SetOEMConvert
 0001:0002BF5C       TCustomEdit.GetModified
 0001:0002BFA4       TCustomEdit.SetModified
 0001:0002BFEC       TCustomEdit.SetReadOnly
 0001:0002C040       TCustomEdit.GetSelStart
 0001:0002C06C       TCustomEdit.SetSelStart
 0001:0002C098       TCustomEdit.GetSelLength
 0001:0002C0CC       TCustomEdit.SetSelLength
 0001:0002C134       TCustomEdit.Clear
 0001:0002C158       TCustomEdit.SelectAll
 0001:0002C17C       TCustomEdit.GetSelTextBuf
 0001:0002C220       TCustomEdit.GetSelText
 0001:0002C2C8       TCustomEdit.CreateParams
 0001:0002C3B0       TCustomEdit.CreateWindowHandle
 0001:0002C440       TCustomEdit.CreateWnd
 0001:0002C4E4       TCustomEdit.DestroyWnd
 0001:0002C508       TCustomEdit.UpdateHeight
 0001:0002C560       TCustomEdit.AdjustHeight
 0001:0002C634       TCustomEdit.Change
 0001:0002C668       TCustomEdit.DefaultHandler
 0001:0002C6B0       TCustomEdit.WMSetFont
 0001:0002C700       TCustomEdit.CMCtl3DChanged
 0001:0002C744       TCustomEdit.CMFontChanged
 0001:0002C784       TCustomEdit.CNCommand
 0001:0002C7BC       TCustomEdit.CMEnter
 0001:0002C808       TCustomEdit.CMTextChanged
 0001:0002C854       TCustomEdit.WMContextMenu
 0001:0002C87C       TMemoStrings.GetCount
 0001:0002C908       TMemoStrings.Get
 0001:0002C960       TMemoStrings.Put
 0001:0002C9F4       TMemoStrings.Insert
 0001:0002CB2C       TMemoStrings.Delete
 0001:0002CBEC       TMemoStrings.Clear
 0001:0002CC04       TMemoStrings.SetUpdateState
 0001:0002CC68       TMemoStrings.GetTextStr
 0001:0002CC88       TMemoStrings.SetTextStr
 0001:0002CD6C       TCustomMemo.Create
 0001:0002CE1C       TCustomMemo.Destroy
 0001:0002CE5C       TCustomMemo.CreateParams
 0001:0002CED8       TCustomMemo.CreateWindowHandle
 0001:0002D00C       TCustomMemo.GetCaretPos
 0001:0002D07C       TCustomMemo.SetCaretPos
 0001:0002D0CC       TCustomMemo.GetControlsAlignment
 0001:0002D0E8       TCustomMemo.Loaded
 0001:0002D104       TCustomMemo.SetAlignment
 0001:0002D138       TCustomMemo.SetLines
 0001:0002D15C       TCustomMemo.SetScrollBars
 0001:0002D190       TCustomMemo.SetWordWrap
 0001:0002D1C4       TCustomMemo.WMGetDlgCode
 0001:0002D210       TCustomMemo.WMNCDestroy
 0001:0002D22C       TCustomMemo.KeyPress
 0001:0002D264       TButtonActionLink.AssignClient
 0001:0002D294       TButtonActionLink.IsCheckedLinked
 0001:0002D2E4       TButtonActionLink.SetChecked
 0001:0002D350       TButtonControl.Create
 0001:0002D3B8       TButtonControl.ActionChange
 0001:0002D414       TButtonControl.GetActionLinkClass
 0001:0002D42C       TButtonControl.GetChecked
 0001:0002D440       TButtonControl.SetChecked
 0001:0002D450       TButtonControl.WndProc
 0001:0002D4E0       TButtonControl.CNCtlColorStatic
 0001:0002D53C       TButtonControl.WMEraseBkGnd
 0001:0002D574       TButtonControl.CreateParams
 0001:0002D5A8       TButtonControl.SetWordWrap
 0001:0002D5DC       TButton.Create
 0001:0002D658       TButton.Click
 0001:0002D690       TButton.UseRightToLeftAlignment
 0001:0002D6A4       TButton.SetButtonStyle
 0001:0002D70C       TButton.SetDefault
 0001:0002D760       TButton.CreateParams
 0001:0002D7AC       TButton.CreateWnd
 0001:0002D7D0       TButton.CNCommand
 0001:0002D7F8       TButton.CMDialogKey
 0001:0002D884       TButton.CMDialogChar
 0001:0002D918       TButton.CMFocusChanged
 0001:0002D988       TButton.WMEraseBkgnd
 0001:0002D9C0       TButton.CNCtlColorBtn
 0001:0002DA1C       Finalization
 0001:0002DA4C       StdCtrls
 0001:0002DB48       THintAction.Create
 0001:0002DB98       Finalization
 0001:0002DBC8       StdActns
 0001:0002DD7C       TWinHelpViewer.HelpFile
 0001:0002DE5C       TWinHelpViewer.InternalShutDown
 0001:0002DE94       TWinHelpViewer.GetViewerName
 0001:0002DEB4       TWinHelpViewer.UnderstandsKeyword
 0001:0002DF40       TWinHelpViewer.GetHelpStrings
 0001:0002DFF0       TWinHelpViewer.CanShowTableOfContents
 0001:0002E004       TWinHelpViewer.ShowTableOfContents
 0001:0002E098       TWinHelpViewer.ShowHelp
 0001:0002E1F0       TWinHelpViewer.NotifyID
 0001:0002E20C       TWinHelpViewer.SoftShutDown
 0001:0002E234       TWinHelpViewer.ShutDown
 0001:0002E270       TWinHelpViewer.UnderstandsTopic
 0001:0002E2E4       TWinHelpViewer.DisplayTopic
 0001:0002E404       TWinHelpViewer.UnderstandsContext
 0001:0002E47C       TWinHelpViewer.DisplayHelpByContext
 0001:0002E528       TWinHelpViewer.CallWinHelp
 0001:0002E644       WindowEnumerationTester
 0001:0002E6AC       DialogEnumerationTester
 0001:0002E710       FindWinHelp
 0001:0002E740       TWinHelpViewer.IsNewQuery
 0001:0002E7D4       TWinHelpViewer.IsBusyWindow
 0001:0002E7F8       TWinHelpViewer.CouldBeUnstableWindow
 0001:0002E820       TWinHelpViewer.MakeWinHelpHappy
 0001:0002E888       TWinHelpViewer.RestartWinHelp
 0001:0002E91C       TWinHelpViewer.Create
 0001:0002E974       TWinHelpViewer.Destroy
 0001:0002E9AC       Finalization
 0001:0002EA24       WinHelpViewer
 0001:00030A64       InitWndProc
 0001:00030B18       ObjectFromHWnd
 0001:00030B60       FindControl
 0001:00030BD0       SendAppMessage
 0001:00030DB8       CursorToIdent
 0001:00030DE0       IdentToCursor
 0001:00030E08       GetShortHint
 0001:00030E5C       GetLongHint
 0001:00030EB0       GetCaptureControl
 0001:00030EEC       SetCaptureControl
 0001:00030FAC       TSiteList.Find
 0001:00031000       GetTopParent
 0001:00031040       TSiteList.AddSite
 0001:000310A4       TSiteList.Clear
 0001:000310EC       TSiteList.GetTopSite
 0001:0003117C       TDragObject.Assign
 0001:000311EC       TDragObject.Capture
 0001:00031218       TDragObject.Finished
 0001:00031230       TDragObject.GetName
 0001:00031264       TDragObject.ReleaseCapture
 0001:00031284       TDragObject.WndProc
 0001:00031394       TDragObject.GetDragImages
 0001:000313AC       TDragObject.GetDragCursor
 0001:000313DC       TDragObject.HideDragImage
 0001:000313E8       TDragObject.Instance
 0001:00031400       TDragObject.ShowDragImage
 0001:0003140C       TDragObject.MainWndProc
 0001:00031460       TDragObject.BeforeDestruction
 0001:0003147C       TDragObject.AfterConstruction
 0001:00031498       TBaseDragControlObject.Create
 0001:000314DC       TBaseDragControlObject.Assign
 0001:00031518       TBaseDragControlObject.EndDrag
 0001:00031548       TBaseDragControlObject.Finished
 0001:00031590       TDragControlObject.GetDragCursor
 0001:000315C8       TDragControlObject.GetDragImages
 0001:000315E8       TDragControlObject.HideDragImage
 0001:00031614       TDragControlObject.ShowDragImage
 0001:00031640       TDragControlObjectEx.BeforeDestruction
 0001:0003164C       TDragDockObject.Create
 0001:000316C0       TDragDockObject.Destroy
 0001:000316FC       TDragDockObject.Assign
 0001:00031784       TDragDockObject.EndDrag
 0001:000317B4       AbsMin
 0001:000317EC       TDragDockObject.AdjustDockRect
 0001:0003189C       TDragDockObject.DrawDragDockImage
 0001:000318BC       TDragDockObject.EraseDragDockImage
 0001:000318DC       TDragDockObject.GetDragCursor
 0001:000318FC       TDragDockObject.GetFrameWidth
 0001:00031914       TDragDockObjectEx.BeforeDestruction
 0001:00031920       IsBeforeTargetWindow
 0001:000319B4       ValidDockTarget
 0001:00031B78       IsSiteChildOfClient
 0001:00031BC4       GetDockSiteAtPos
 0001:00031D28       RegisterDockSite
 0001:00031D98       DragMessage
 0001:00031E00       IsDelphiHandle
 0001:00031E78       DragFindWindow
 0001:00031EBC       DragFindTarget
 0001:00031F28       DoDragOver
 0001:00031F78       GetDropCtl
 0001:00032048       DragTo
 0001:00032378       DragInit
 0001:00032520       DragInitControl
 0001:00032704       CheckUndock
 0001:00032784       DragDone
 0001:00032A80       CancelDrag
 0001:00032A98       FindVCLWindow
 0001:00032AE8       FindDragTarget
 0001:00032B44       ListAdd
 0001:00032B7C       ListRemove
 0001:00032BB8       MoveWindowOrg
 0001:00032BF4       FreeDeviceContext
 0001:00032CB0       FreeDeviceContexts
 0001:00032D5C       TControlCanvas.Destroy
 0001:00032D98       TControlCanvas.CreateHandle
 0001:00032E44       TControlCanvas.FreeHandle
 0001:00032E8C       TControlCanvas.SetControl
 0001:00032EB8       TControlCanvas.UpdateTextFlags
 0001:00032EF0       TSizeConstraints.Create
 0001:00032F40       TSizeConstraints.AssignTo
 0001:00032FA8       TSizeConstraints.SetConstraints
 0001:000330C8       TSizeConstraints.Change
 0001:000330EC       TControlActionLink.AssignClient
 0001:00033110       TControlActionLink.DoShowHint
 0001:00033214       TControlActionLink.IsCaptionLinked
 0001:00033298       TControlActionLink.IsEnabledLinked
 0001:000332E4       TControlActionLink.IsHintLinked
 0001:00033330       TControlActionLink.IsVisibleLinked
 0001:00033378       TControlActionLink.IsOnExecuteLinked
 0001:000333B4       TControlActionLink.SetCaption
 0001:000333E0       TControlActionLink.SetEnabled
 0001:0003340C       TControlActionLink.SetHint
 0001:0003343C       TControlActionLink.SetVisible
 0001:00033468       TControlActionLink.SetOnExecute
 0001:00033498       TControlActionLink.IsHelpLinked
 0001:0003351C       TControlActionLink.SetHelpKeyword
 0001:00033548       TControlActionLink.SetHelpContext
 0001:00033574       TControlActionLink.SetHelpType
 0001:000335A0       TControl.Create
 0001:000336C8       TControl.Destroy
 0001:000337B0       TControl.GetDragImages
 0001:000337C8       TControl.GetEnabled
 0001:000337E4       TControl.GetPalette
 0001:000337FC       TControl.HasParent
 0001:00033818       TControl.GetParentComponent
 0001:00033834       TControl.SetParentComponent
 0001:0003386C       TControl.PaletteChanged
 0001:00033900       TControl.GetAction
 0001:0003392C       TControl.SetAnchors
 0001:00033958       TControl.SetAction
 0001:00033A04       TControl.IsAnchorsStored
 0001:00033A2C       TControl.SetDragMode
 0001:00033A48       TControl.RequestAlign
 0001:00033A6C       TControl.Resize
 0001:00033A98       TControl.ReadState
 0001:00033B44       TControl.Notification
 0001:00033B9C       TControl.SetAlign
 0001:00033C80       TControl.SetBounds
 0001:00033D50       TControl.UpdateAnchorRules
 0001:00033EDC       TControl.SetLeft
 0001:00033F1C       TControl.SetTop
 0001:00033F5C       TControl.SetWidth
 0001:00033F9C       TControl.SetHeight
 0001:00033FDC       TControl.Dock
 0001:00034118       TControl.DoDock
 0001:00034188       TControl.SetHelpContext
 0001:000341B8       TControl.SetHelpKeyword
 0001:000341EC       TControl.GetBoundsRect
 0001:00034238       TControl.SetBoundsRect
 0001:0003427C       TControl.GetClientRect
 0001:000342B4       TControl.GetClientWidth
 0001:000342D8       TControl.SetClientWidth
 0001:00034308       TControl.GetClientHeight
 0001:0003432C       TControl.SetClientHeight
 0001:0003435C       TControl.GetClientOrigin
 0001:00034400       TControl.ClientToScreen
 0001:0003443C       TControl.ScreenToClient
 0001:00034478       TControl.SendCancelMode
 0001:000344C0       TControl.SendDockNotification
 0001:00034538       TControl.Changed
 0001:00034558       TControl.ChangeScale
 0001:00034770       TControl.SetAutoSize
 0001:000347A8       TControl.SetName
 0001:00034864       TControl.SetClientSize
 0001:000348BC       TControl.SetParent
 0001:00034928       TControl.SetVisible
 0001:0003497C       TControl.SetEnabled
 0001:000349B4       TControl.GetTextLen
 0001:000349D8       TControl.GetTextBuf
 0001:00034A08       TControl.GetUndockHeight
 0001:00034A3C       TControl.GetUndockWidth
 0001:00034A70       TControl.SetPopupMenu
 0001:00034AA8       TControl.SetTextBuf
 0001:00034ADC       TControl.GetText
 0001:00034B1C       TControl.SetText
 0001:00034B88       TControl.SetBiDiMode
 0001:00034BC4       TControl.FontChanged
 0001:00034C28       TControl.SetFont
 0001:00034C48       TControl.IsFontStored
 0001:00034C74       TControl.IsShowHintStored
 0001:00034C94       TControl.IsBiDiModeStored
 0001:00034CB0       TControl.SetParentFont
 0001:00034CF8       TControl.SetShowHint
 0001:00034D40       TControl.SetParentShowHint
 0001:00034D90       TControl.SetColor
 0001:00034DCC       TControl.IsColorStored
 0001:00034DE8       TControl.SetParentColor
 0001:00034E30       TControl.SetParentBiDiMode
 0001:00034E78       TControl.SetCursor
 0001:00034EB4       TControl.GetMouseCapture
 0001:00034ED0       TControl.SetMouseCapture
 0001:00034F04       TControl.BringToFront
 0001:00034F20       TControl.SetZOrderPosition
 0001:00034FF4       TControl.SetZOrder
 0001:00035038       TControl.GetDeviceContext
 0001:00035100       BackgroundClipped
 0001:0003519C       TControl.InvalidateControl
 0001:00035228       TControl.Invalidate
 0001:0003524C       TControl.MouseWheelHandler
 0001:000352A8       TControl.Update
 0001:000352CC       TControl.Refresh
 0001:000352E4       TControl.Repaint
 0001:000353E4       TControl.GetControlsAlignment
 0001:000353F8       TControl.UseRightToLeftReading
 0001:00035428       TControl.UseRightToLeftAlignment
 0001:00035458       TControl.UseRightToLeftScrollBar
 0001:00035488       TControl.BeginAutoDrag
 0001:000354AC       TControl.BeginDrag
 0001:00035584       TControl.DragCanceled
 0001:00035590       TControl.Dragging
 0001:000355AC       TControl.DragOver
 0001:00035604       TControl.DragDrop
 0001:00035648       TControl.DoStartDrag
 0001:0003567C       TControl.DoEndDrag
 0001:000356C0       TControl.PositionDockRect
 0001:000357E8       TControl.DockTrackNoTarget
 0001:00035810       TControl.DoEndDock
 0001:00035854       TControl.DoStartDock
 0001:00035888       TControl.DoMouseWheel
 0001:00035980       TControl.DoMouseWheelDown
 0001:000359D0       TControl.DoMouseWheelUp
 0001:00035A20       TControl.DefaultDockImage
 0001:00035B70       TControl.DrawDragDockImage
 0001:00035B94       TControl.EraseDragDockImage
 0001:00035BB8       TControl.DoDragMsg
 0001:00035CC8       TControl.ManualDock
 0001:00035F00       TControl.ManualFloat
 0001:00035FB0       TControl.DoConstraintsChange
 0001:00035FD0       TControl.CanAutoSize
 0001:00035FEC       TControl.CanResize
 0001:00036034       TControl.DoCanAutoSize
 0001:000360A8       TControl.DoCanResize
 0001:000360E8       TControl.ConstrainedResize
 0001:00036130       TControl.CalcCursorPos
 0001:00036168       TControl.DesignWndProc
 0001:000361BC       TControl.DoConstrainedResize
 0001:000362C8       TControl.Perform
 0001:00036314       TControl.CalcDockSizes
 0001:000363B4       TControl.UpdateBoundsRect
 0001:00036408       TControl.VisibleChanging
 0001:00036414       TControl.WndProc
 0001:000365FC       TControl.DefaultHandler
 0001:000366C8       TControl.ReadIsControl
 0001:000366E8       TControl.WriteIsControl
 0001:00036708       DoWriteIsControl
 0001:00036748       TControl.DefineProperties
 0001:00036798       TControl.Click
 0001:00036828       TControl.DblClick
 0001:00036854       TControl.MouseDown
 0001:0003689C       TControl.DoMouseDown
 0001:0003693C       TControl.WMLButtonDown
 0001:000369A0       TControl.WMNCLButtonDown
 0001:000369C8       TControl.WMLButtonDblClk
 0001:00036A30       TControl.GetPopupMenu
 0001:00036A4C       TControl.CheckNewSize
 0001:00036AF0       TControl.WMRButtonDown
 0001:00036B24       TControl.WMRButtonDblClk
 0001:00036B58       TControl.WMMButtonDown
 0001:00036B8C       TControl.WMMButtonDblClk
 0001:00036BC0       TControl.MouseMove
 0001:00036C04       TControl.WMMouseMove
 0001:00036C9C       TControl.MouseUp
 0001:00036CE4       TControl.DoMouseUp
 0001:00036D30       TControl.WMLButtonUp
 0001:00036DB8       TControl.WMRButtonUp
 0001:00036DE0       TControl.WMMButtonUp
 0001:00036E08       TControl.WMMouseWheel
 0001:00036E74       TControl.WMCancelMode
 0001:00036ECC       TControl.WMWindowPosChanged
 0001:00036FF0       TControl.CMVisibleChanged
 0001:00037034       TControl.CMEnabledChanged
 0001:0003704C       TControl.CMFontChanged
 0001:00037064       TControl.CMColorChanged
 0001:0003707C       TControl.CMParentColorChanged
 0001:000370C8       TControl.CMParentBiDiModeChanged
 0001:00037104       TControl.CMMouseWheel
 0001:00037188       TControl.CMBiDiModeChanged
 0001:000371B4       TControl.CMParentShowHintChanged
 0001:000371F0       TControl.CMParentFontChanged
 0001:0003723C       TControl.CMSysFontChanged
 0001:00037274       TControl.CMHitTest
 0001:00037290       TControl.CMMouseEnter
 0001:000372C0       TControl.CMMouseLeave
 0001:000372F0       TControl.CMDesignHitTest
 0001:00037308       TControl.CreateFloatingDockSite
 0001:00037398       UpdateFloatingDockSitePos
 0001:00037468       TControl.CMFloat
 0001:000374D0       TControl.ActionChange
 0001:00037604       TControl.DoActionChange
 0001:00037634       TControl.GetActionLinkClass
 0001:0003764C       TControl.IsCaptionStored
 0001:00037680       TControl.IsEnabledStored
 0001:000376B4       TControl.IsHintStored
 0001:000376E8       TControl.IsHelpContextStored
 0001:0003771C       TControl.IsVisibleStored
 0001:00037750       TControl.IsOnClickStored
 0001:00037784       TControl.Loaded
 0001:000377C4       TControl.AssignTo
 0001:00037884       MinVar
 0001:000378D4       TControl.GetDockEdge
 0001:000379A8       TControl.GetFloating
 0001:000379EC       TControl.GetFloatingDockSiteClass
 0001:00037A08       TControl.AdjustSize
 0001:00037A44       TControl.DrawTextBiDiModeFlagsReadingOnly
 0001:00037A70       TControl.InitiateAction
 0001:00037A90       TControl.CMHintShow
 0001:00037ACC       TControl.WMContextMenu
 0001:00037C18       TControl.DoContextPopup
 0001:00037C5C       TControl.SetConstraints
 0001:00037C7C       TWinControlActionLink.AssignClient
 0001:00037CAC       TWinControlActionLink.IsHelpContextLinked
 0001:00037CC8       TWinControlActionLink.SetHelpContext
 0001:00037CE4       TWinControl.Create
 0001:00037E40       TWinControl.Destroy
 0001:00037F4C       TWinControl.FixupTabList
 0001:00038050       TWinControl.ReadState
 0001:000380C8       TWinControl.AdjustClientRect
 0001:000380D8       InsertBefore
 0001:000381A0       DoPosition
 0001:000385F0       DoAlign
 0001:0003878C       AlignWork
 0001:000387F0       TWinControl.AlignControls
 0001:000388F4       TWinControl.AlignControl
 0001:0003898C       TWinControl.DisableAlign
 0001:000389A0       TWinControl.EnableAlign
 0001:000389D4       TWinControl.Realign
 0001:000389E8       TWinControl.DoFlipChildren
 0001:00038ADC       TWinControl.FlipChildren
 0001:00038C44       TWinControl.ContainsControl
 0001:00038C78       TWinControl.RemoveFocus
 0001:00038CA8       TWinControl.Insert
 0001:00038D0C       TWinControl.Remove
 0001:00038D68       TWinControl.InsertControl
 0001:00038E58       TWinControl.RemoveControl
 0001:00038EE4       TWinControl.GetControl
 0001:00038F50       TWinControl.GetControlCount
 0001:00038F9C       TWinControl.Broadcast
 0001:00038FF0       TWinControl.NotifyControls
 0001:00039024       TWinControl.CreateSubClass
 0001:000390CC       TWinControl.AddBiDiModeExStyle
 0001:0003914C       TWinControl.CreateParams
 0001:000392D8       TWinControl.CreateWnd
 0001:000394F0       TWinControl.CreateWindowHandle
 0001:0003955C       TWinControl.ReadDesignSize
 0001:000395A8       TWinControl.WriteDesignSize
 0001:0003960C       PointsEqual
 0001:00039644       DoWriteDesignSize
 0001:00039760       TWinControl.DefineProperties
 0001:000397BC       TWinControl.DestroyWnd
 0001:0003982C       TWinControl.DestroyWindowHandle
 0001:00039890       TWinControl.PrecedingWindow
 0001:000398FC       TWinControl.CreateHandle
 0001:000399BC       TWinControl.CustomAlignInsertBefore
 0001:000399D8       TWinControl.CustomAlignPosition
 0001:000399FC       TWinControl.DestroyHandle
 0001:00039A68       TWinControl.RecreateWnd
 0001:00039A90       TWinControl.CMRecreateWnd
 0001:00039AE4       TWinControl.UpdateShowing
 0001:00039BF4       TWinControl.UpdateControlState
 0001:00039C50       TWinControl.SetParentWindow
 0001:00039D0C       TWinControl.MainWndProc
 0001:00039D8C       GetControlAtPos
 0001:00039E64       TWinControl.ControlAtPos
 0001:00039F20       TWinControl.IsControlMouseMsg
 0001:00039FE0       TWinControl.WndProc
 0001:0003A178       TWinControl.DefaultHandler
 0001:0003A2F4       DoControlMsg
 0001:0003A348       TWinControl.PaintHandler
 0001:0003A4B4       TWinControl.PaintWindow
 0001:0003A4E8       TWinControl.PaintControls
 0001:0003A7CC       TWinControl.PaintTo
 0001:0003A974       TWinControl.WMPaint
 0001:0003AAF8       TWinControl.WMCommand
 0001:0003AB28       TWinControl.WMNotify
 0001:0003AB58       TWinControl.WMSysColorChange
 0001:0003AB80       TWinControl.WMWinIniChange
 0001:0003ABAC       TWinControl.WMFontChange
 0001:0003ABD0       TWinControl.WMTimeChange
 0001:0003ABF4       TWinControl.WMHScroll
 0001:0003AC24       TWinControl.WMVScroll
 0001:0003AC54       TWinControl.WMCompareItem
 0001:0003AC84       TWinControl.WMDeleteItem
 0001:0003ACB4       TWinControl.WMDrawItem
 0001:0003ACE4       TWinControl.WMMeasureItem
 0001:0003AD14       TWinControl.WMEraseBkgnd
 0001:0003ADB8       TWinControl.WMWindowPosChanged
 0001:0003AEA0       TWinControl.WMWindowPosChanging
 0001:0003AF10       TWinControl.WMSize
 0001:0003AF54       TWinControl.WMMove
 0001:0003AF78       TWinControl.WMSetCursor
 0001:0003B0B4       TWinControl.WMSetFocus
 0001:0003B0D8       TWinControl.WMKillFocus
 0001:0003B0FC       TWinControl.WMIMEStartComp
 0001:0003B124       TWinControl.WMIMEEndComp
 0001:0003B14C       TWinControl.SetIme
 0001:0003B258       TWinControl.ResetIme
 0001:0003B300       TWinControl.DoAddDockClient
 0001:0003B320       TWinControl.DoRemoveDockClient
 0001:0003B330       TWinControl.DoEnter
 0001:0003B35C       TWinControl.DoExit
 0001:0003B388       TWinControl.DockDrop
 0001:0003B3EC       TWinControl.DoDockOver
 0001:0003B438       TWinControl.DockOver
 0001:0003B47C       TWinControl.DoUnDock
 0001:0003B4EC       TWinControl.ReloadDockedControl
 0001:0003B520       TWinControl.GetDockClientCount
 0001:0003B554       TWinControl.GetDockClients
 0001:0003B590       TWinControl.GetSiteInfo
 0001:0003B600       TWinControl.GetVisibleDockClientCount
 0001:0003B650       TWinControl.ControlsAligned
 0001:0003B65C       TWinControl.CreateDockManager
 0001:0003B6E4       TWinControl.SetDockSite
 0001:0003B7C8       TWinControl.CMDockClient
 0001:0003B8C4       TWinControl.CMUnDockClient
 0001:0003B908       TWinControl.CMFloat
 0001:0003B990       TWinControl.KeyDown
 0001:0003B9CC       TWinControl.DoKeyDown
 0001:0003BA54       TWinControl.WMKeyDown
 0001:0003BA90       TWinControl.WMSysKeyDown
 0001:0003BACC       TWinControl.KeyUp
 0001:0003BB08       TWinControl.DoKeyUp
 0001:0003BB90       TWinControl.WMKeyUp
 0001:0003BBBC       TWinControl.WMSysKeyUp
 0001:0003BBE8       TWinControl.KeyPress
 0001:0003BC1C       TWinControl.DoKeyPress
 0001:0003BCA4       TWinControl.WMChar
 0001:0003BCD0       TraverseControls
 0001:0003BD98       TWinControl.WMSysCommand
 0001:0003BE4C       TWinControl.WMCharToItem
 0001:0003BE7C       TWinControl.WMParentNotify
 0001:0003BEC0       TWinControl.WMVKeyToItem
 0001:0003BEF0       TWinControl.WMDestroy
 0001:0003BF3C       TWinControl.WMNCDestroy
 0001:0003BF6C       TWinControl.WMNCHitTest
 0001:0003BFA8       TWinControl.PaletteChanged
 0001:0003C014       TWinControl.WMQueryNewPalette
 0001:0003C048       TWinControl.WMPaletteChanged
 0001:0003C074       TWinControl.CMShowHintChanged
 0001:0003C09C       TWinControl.CMBiDiModeChanged
 0001:0003C0E0       TWinControl.CMEnter
 0001:0003C160       TWinControl.CMExit
 0001:0003C180       TWinControl.CMDesignHitTest
 0001:0003C1AC       TWinControl.CMChanged
 0001:0003C1D8       TWinControl.CMChildKey
 0001:0003C204       TWinControl.CMDialogKey
 0001:0003C220       TWinControl.CMDialogChar
 0001:0003C23C       TWinControl.CMFocusChanged
 0001:0003C258       TWinControl.CMVisibleChanged
 0001:0003C2A0       TWinControl.CMShowingChanged
 0001:0003C2DC       TWinControl.CMEnabledChanged
 0001:0003C33C       TWinControl.CMColorChanged
 0001:0003C378       TWinControl.CMFontChanged
 0001:0003C3C8       TWinControl.CMCursorChanged
 0001:0003C414       TWinControl.CMBorderChanged
 0001:0003C468       TWinControl.CMCtl3DChanged
 0001:0003C4C0       TWinControl.CMParentCtl3DChanged
 0001:0003C518       TWinControl.CMSysColorChange
 0001:0003C534       TWinControl.CMWinIniChange
 0001:0003C550       TWinControl.CMFontChange
 0001:0003C56C       TWinControl.CMTimeChange
 0001:0003C588       TWinControl.CMDrag
 0001:0003C604       TWinControl.CMControlListChange
 0001:0003C630       TWinControl.CMSysFontChanged
 0001:0003C658       TWinControl.IsMenuKey
 0001:0003C70C       TWinControl.CNKeyDown
 0001:0003C824       TWinControl.CNKeyUp
 0001:0003C888       TWinControl.CNChar
 0001:0003C8EC       TWinControl.CNSysKeyDown
 0001:0003C968       TWinControl.CNSysChar
 0001:0003C9B4       TWinControl.SetBounds
 0001:0003CAC8       TWinControl.ScaleControls
 0001:0003CB18       TWinControl.ChangeScale
 0001:0003CBD8       TWinControl.ScrollBy
 0001:0003CCE0       TWinControl.ShowControl
 0001:0003CD0C       TWinControl.SetZOrderPosition
 0001:0003CE6C       TWinControl.SetZOrder
 0001:0003CF10       TWinControl.GetDeviceContext
 0001:0003CF80       TWinControl.Invalidate
 0001:0003CF9C       TWinControl.CMInvalidate
 0001:0003D058       TWinControl.Update
 0001:0003D080       TWinControl.Repaint
 0001:0003D0A0       TWinControl.InvalidateFrame
 0001:0003D0E0       TWinControl.CanFocus
 0001:0003D140       TWinControl.SetFocus
 0001:0003D190       TWinControl.Focused
 0001:0003D1C8       TWinControl.HandleNeeded
 0001:0003D200       TWinControl.GetHandle
 0001:0003D224       TWinControl.GetControlExtents
 0001:0003D320       TWinControl.GetClientOrigin
 0001:0003D354       TWinControl.GetClientRect
 0001:0003D378       TWinControl.AdjustSize
 0001:0003D3CC       TWinControl.SetBorderWidth
 0001:0003D408       TWinControl.SetCtl3D
 0001:0003D450       TWinControl.IsCtl3DStored
 0001:0003D470       TWinControl.SetParentCtl3D
 0001:0003D4C0       TWinControl.GetTabOrder
 0001:0003D4FC       TWinControl.UpdateTabOrder
 0001:0003D588       TWinControl.SetTabOrder
 0001:0003D5C0       TWinControl.SetTabStop
 0001:0003D644       TWinControl.SetUseDockManager
 0001:0003D6D0       TWinControl.HandleAllocated
 0001:0003D6F0       TWinControl.UpdateBounds
 0001:0003D7CC       TWinControl.GetTabOrderList
 0001:0003D83C       TWinControl.FindNextControl
 0001:0003D968       TWinControl.SelectNext
 0001:0003D9AC       TWinControl.GetChildren
 0001:0003DA00       TWinControl.SetChildOrder
 0001:0003DA50       TWinControl.CanResize
 0001:0003DA78       DoCalcConstraints
 0001:0003DB34       TWinControl.CalcConstraints
 0001:0003DF78       TWinControl.ConstrainedResize
 0001:0003DFBC       TWinControl.ActionChange
 0001:0003E010       TWinControl.GetActionLinkClass
 0001:0003E028       TWinControl.AssignTo
 0001:0003E068       TWinControl.CanAutoSize
 0001:0003E270       TWinControl.SetBevelCut
 0001:0003E2E8       TWinControl.SetBevelEdges
 0001:0003E324       TWinControl.SetBevelKind
 0001:0003E360       TWinControl.WMNCCalcSize
 0001:0003E444       TWinControl.WMNCPaint
 0001:0003E704       TWinControl.WMContextMenu
 0001:0003E784       TWinControl.UpdateUIState
 0001:0003E800       TWinControl.WMPrintClient
 0001:0003E850       TWinControl.GetParentBackground
 0001:0003E870       TWinControl.SetParentBackground
 0001:0003E8C8       THintWindow.Create
 0001:0003E94C       THintWindow.CreateParams
 0001:0003E9CC       THintWindow.WMNCHitTest
 0001:0003E9E8       THintWindow.WMNCPaint
 0001:0003EA4C       THintWindow.Paint
 0001:0003EAFC       THintWindow.IsHintMsg
 0001:0003EB90       THintWindow.ReleaseHandle
 0001:0003EBA4       THintWindow.CMTextChanged
 0001:0003EC58       THintWindow.ActivateHint
 0001:0003EE70       THintWindow.ActivateHintData
 0001:0003EEA4       THintWindow.CalcHintRect
 0001:0003EF0C       THintWindow.NCPaint
 0001:0003EF80       THintWindow.WMPrint
 0001:0003EFB4       ClientToWindow
 0001:0003F008       TDragImageList.CombineDragCursor
 0001:0003F0DC       TDragImageList.SetDragImage
 0001:0003F148       TDragImageList.SetDragCursor
 0001:0003F184       TDragImageList.BeginDrag
 0001:0003F1FC       TDragImageList.DragLock
 0001:0003F274       TDragImageList.DragUnlock
 0001:0003F2A8       TDragImageList.DragMove
 0001:0003F2FC       TDragImageList.ShowDragImage
 0001:0003F31C       TDragImageList.HideDragImage
 0001:0003F33C       TDragImageList.EndDrag
 0001:0003F398       TCustomControl.Create
 0001:0003F408       TCustomControl.Destroy
 0001:0003F448       TCustomControl.WMPaint
 0001:0003F478       TCustomControl.PaintWindow
 0001:0003F524       TCustomControl.Paint
 0001:0003F530       NextVisibleZone
 0001:0003F564       IsOrientationSet
 0001:0003F5AC       TDockZone.Create
 0001:0003F5F0       TDockZone.GetChildCount
 0001:0003F628       TDockZone.GetVisibleChildCount
 0001:0003F664       TDockZone.GetVisible
 0001:0003F6C0       TDockZone.GetLimitBegin
 0001:0003F738       TDockZone.GetLimitSize
 0001:0003F7B0       TDockZone.GetTopLeft
 0001:0003F850       TDockZone.GetHeightWidth
 0001:0003F958       TDockZone.ResetChildren
 0001:0003FA28       TDockZone.GetControlName
 0001:0003FA80       TDockZone.SetControlName
 0001:0003FB0C       ParentNotLast
 0001:0003FB50       TDockZone.Update
 0001:0003FCE0       TDockZone.GetZoneLimit
 0001:0003FD20       TDockZone.SetZoneLimit
 0001:0003FD3C       GetLastChildZone
 0001:0003FD6C       TDockZone.ExpandZoneLimit
 0001:0003FDCC       TDockZone.ResetZoneLimits
 0001:0003FE50       TDockZone.NextVisible
 0001:0003FE70       TDockZone.PrevVisible
 0001:0003FEA8       TDockZone.FirstVisibleChild
 0001:0003FEC8       TDockTree.Create
 0001:0004003C       TDockTree.Destroy
 0001:000400B0       TDockTree.AdjustDockRect
 0001:000400E0       TDockTree.BeginUpdate
 0001:000400F0       TDockTree.EndUpdate
 0001:0004011C       DoFindControlZone
 0001:00040184       TDockTree.FindControlZone
 0001:000401C0       DoForEach
 0001:0004020C       TDockTree.ForEachAt
 0001:00040238       TDockTree.GetControlBounds
 0001:000402C4       TDockTree.HitTest
 0001:00040304       TDockTree.InsertControl
 0001:000405B0       TDockTree.InsertNewParent
 0001:0004083C       TDockTree.InsertSibling
 0001:00040934       DoFindZone
 0001:00040BAC       FindControlAtPos
 0001:00040C64       TDockTree.InternalHitTest
 0001:00040CF8       ReadControlName
 0001:00040D48       TDockTree.LoadFromStream
 0001:00040FA8       DrawCloseButton
 0001:00041000       DrawGrabberLine
 0001:00041094       TDockTree.PaintDockFrame
 0001:000411A8       TDockTree.PaintSite
 0001:00041338       TDockTree.PositionDockRect
 0001:000414DC       DoPrune
 0001:00041520       TDockTree.PruneZone
 0001:000415B4       TDockTree.RemoveControl
 0001:00041610       TDockTree.RemoveZone
 0001:000419A4       TDockTree.ResetBounds
 0001:00041ABC       TDockTree.ScaleZone
 0001:00041B0C       WriteControlName
 0001:00041B84       DoSaveZone
 0001:00041C58       TDockTree.SaveToStream
 0001:00041DC0       DoSetNewBounds
 0001:00041E5C       TDockTree.SetNewBounds
 0001:00041E94       TDockTree.SetReplacingControl
 0001:00041EB8       TDockTree.ShiftZone
 0001:00041F04       TDockTree.SplitterMouseDown
 0001:00041F80       TDockTree.SplitterMouseUp
 0001:00042034       TDockTree.UpdateAll
 0001:0004206C       TDockTree.UpdateZone
 0001:00042090       TDockTree.DrawSizeSplitter
 0001:000421A8       DoGetNextLimit
 0001:0004225C       TDockTree.GetNextLimit
 0001:000422B8       GetDockAlign
 0001:00042340       HideZone
 0001:000423DC       ShowZone
 0001:0004255C       TDockTree.ControlVisibilityChanged
 0001:00042610       CalcSplitterPos
 0001:00042708       TDockTree.WindowProc
 0001:00042B74       TMouse.Create
 0001:00042C18       TMouse.Destroy
 0001:00042C54       TMouse.GetCapture
 0001:00042C6C       TMouse.GetCursorPos
 0001:00042C8C       TMouse.GetMouseData
 0001:00042CB0       TMouse.GetNativeData
 0001:00042CEC       TMouse.GetRegisteredData
 0001:00042D34       TMouse.SetCapture
 0001:00042D68       TMouse.SettingChanged
 0001:00042DF0       InitIMM32
 0001:0004305C       Win32NLSEnableIME
 0001:00043094       SetImeMode
 0001:00043190       Imm32IsIME
 0001:000431BC       DoneControls
 0001:00043244       InitControls
 0001:00043414       Finalization
 0001:0004347C       Controls
 0001:00043A00       TContainedAction.Destroy
 0001:00043A48       TContainedAction.GetIndex
 0001:00043A80       TContainedAction.IsCategoryStored
 0001:00043A94       TContainedAction.GetParentComponent
 0001:00043AC4       TContainedAction.HasParent
 0001:00043AF0       TContainedAction.ReadState
 0001:00043B30       TContainedAction.SetIndex
 0001:00043BA8       TContainedAction.SetCategory
 0001:00043BEC       TContainedAction.SetActionList
 0001:00043C30       TContainedAction.SetParentComponent
 0001:00043C68       TContainedAction.Execute
 0001:00043CD4       TContainedAction.Update
 0001:00043D40       TCustomActionList.Create
 0001:00043DC8       TCustomActionList.Destroy
 0001:00043E30       TCustomActionList.GetChildren
 0001:00043E8C       TCustomActionList.SetChildOrder
 0001:00043EC8       TCustomActionList.GetAction
 0001:00043EEC       TCustomActionList.GetActionCount
 0001:00043F08       TCustomActionList.SetImages
 0001:00043F64       TCustomActionList.ImageListChange
 0001:00043F88       TCustomActionList.Notification
 0001:00043FE4       TCustomActionList.AddAction
 0001:00044018       TCustomActionList.RemoveAction
 0001:00044044       TCustomActionList.Change
 0001:000440DC       TCustomActionList.IsShortCut
 0001:000441A4       TCustomActionList.ExecuteAction
 0001:000441D8       TCustomActionList.UpdateAction
 0001:0004420C       TActionLink.IsCaptionLinked
 0001:00044230       TActionLink.IsCheckedLinked
 0001:00044254       TActionLink.IsEnabledLinked
 0001:00044278       TActionLink.IsGroupIndexLinked
 0001:0004429C       TActionLink.IsHelpContextLinked
 0001:000442C0       TActionLink.IsHelpLinked
 0001:000442E4       TActionLink.IsHintLinked
 0001:00044308       TActionLink.IsImageIndexLinked
 0001:0004432C       TActionLink.IsShortCutLinked
 0001:00044350       TActionLink.IsVisibleLinked
 0001:00044374       TActionLink.SetAutoCheck
 0001:00044384       TActionLink.SetCaption
 0001:00044394       TActionLink.SetChecked
 0001:000443A4       TActionLink.SetEnabled
 0001:000443B4       TActionLink.SetGroupIndex
 0001:000443C4       TActionLink.SetHelpContext
 0001:000443D4       TActionLink.SetHelpKeyword
 0001:000443E4       TActionLink.SetHelpType
 0001:000443F4       TActionLink.SetHint
 0001:00044404       TActionLink.SetImageIndex
 0001:00044414       TActionLink.SetShortCut
 0001:00044428       TActionLink.SetVisible
 0001:00044438       TCustomAction.Create
 0001:000444A8       TCustomAction.Destroy
 0001:00044510       TCustomAction.AssignTo
 0001:000445F4       TCustomAction.SetCaption
 0001:0004467C       TCustomAction.SetChecked
 0001:000447B4       TCustomAction.SetEnabled
 0001:00044864       TCustomAction.SetHelpKeyword
 0001:000448F0       TCustomAction.SetHelpContext
 0001:0004496C       TCustomAction.SetHint
 0001:000449F4       TCustomAction.SetImageIndex
 0001:00044A78       TCustomAction.SetShortCut
 0001:00044B00       TCustomAction.SetVisible
 0001:00044B8C       TCustomAction.SetName
 0001:00044BF8       TCustomAction.DoHint
 0001:00044C34       TCustomAction.Execute
 0001:00044CC4       TCustomAction.GetSecondaryShortCuts
 0001:00044D04       TCustomAction.HandleShortCut
 0001:00044D28       TShortCutList.Add
 0001:00044D64       TShortCutList.IndexOfShortCut
 0001:00044DB8       Finalization
 0001:00044DE8       ActnList
 0001:00044F6C       GetRGBColor
 0001:00044FA8       GetColor
 0001:00044FE4       TCustomImageList.Create
 0001:00045048       TCustomImageList.Destroy
 0001:000450D8       TCustomImageList.Initialize
 0001:000451B8       TCustomImageList.HandleAllocated
 0001:000451D4       TCustomImageList.HandleNeeded
 0001:000451F0       TCustomImageList.InitBitmap
 0001:000452C0       TCustomImageList.SetNewDimensions
 0001:00045310       TCustomImageList.SetHandle
 0001:00045350       TCustomImageList.GetHandle
 0001:00045374       TCustomImageList.GetImageHandle
 0001:000453E4       TCustomImageList.FreeHandle
 0001:00045428       TCustomImageList.CreateImageList
 0001:000454E8       TCustomImageList.Add
 0001:000455B8       TCustomImageList.GetCount
 0001:000455EC       TCustomImageList.Delete
 0001:00045688       TCustomImageList.Clear
 0001:000456A0       TCustomImageList.SetBkColor
 0001:000456EC       TCustomImageList.GetBkColor
 0001:0004572C       TCustomImageList.DoDraw
 0001:0004595C       TCustomImageList.Draw
 0001:0004599C       TCustomImageList.Draw
 0001:000459F4       TCustomImageList.CopyImages
 0001:00045BB4       TCustomImageList.AddImages
 0001:00045BE0       TCustomImageList.Assign
 0001:00045CE0       TCustomImageList.AssignTo
 0001:00045DCC       TCustomImageList.CheckImage
 0001:00045E54       TCustomImageList.SetDrawingStyle
 0001:00045E88       TCustomImageList.GetHotSpot
 0001:00045EA4       TCustomImageList.Change
 0001:00045F1C       TCustomImageList.UnRegisterChanges
 0001:00045F84       TCustomImageList.RegisterChanges
 0001:00045FB4       StreamsEqual
 0001:0004600C       TCustomImageList.Equal
 0001:00046104       DoWrite
 0001:00046168       TCustomImageList.DefineProperties
 0001:000461C0       TCustomImageList.ReadD2Stream
 0001:0004646C       TCustomImageList.ReadD3Stream
 0001:00046638       TCustomImageList.ReadData
 0001:000466CC       TCustomImageList.WriteData
 0001:00046818       TCustomImageList.BeginUpdate
 0001:00046828       TCustomImageList.EndUpdate
 0001:00046860       TChangeLink.Destroy
 0001:000468A8       TChangeLink.Change
 0001:000468D0       Finalization
 0001:00046900       ImgList
 0001:00047838       FindPopupControl
 0001:0004787C       ReturnAddr
 0001:00047888       Error
 0001:000478B0       ShortCut
 0001:00047900       GetSpecialName
 0001:00047960       ShortCutToText
 0001:00047B80       CompareFront
 0001:00047BF4       TextToShortCut
 0001:00047D10       UniqueCommand
 0001:00047D3C       Iterate
 0001:00047DA8       IterateMenus
 0001:00047EC8       TMenuActionLink.AssignClient
 0001:00047EEC       TMenuActionLink.IsAutoCheckLinked
 0001:00047F24       TMenuActionLink.IsCaptionLinked
 0001:00047F70       TMenuActionLink.IsCheckedLinked
 0001:00047FB4       TMenuActionLink.IsEnabledLinked
 0001:00047FF8       TMenuActionLink.IsHelpContextLinked
 0001:0004803C       TMenuActionLink.IsHintLinked
 0001:00048088       TMenuActionLink.IsGroupIndexLinked
 0001:000480DC       TMenuActionLink.IsImageIndexLinked
 0001:00048124       TMenuActionLink.IsShortCutLinked
 0001:00048170       TMenuActionLink.IsVisibleLinked
 0001:000481B8       TMenuActionLink.IsOnExecuteLinked
 0001:000481F4       TMenuActionLink.SetAutoCheck
 0001:00048220       TMenuActionLink.SetCaption
 0001:0004824C       TMenuActionLink.SetChecked
 0001:00048278       TMenuActionLink.SetEnabled
 0001:000482A4       TMenuActionLink.SetHelpContext
 0001:000482CC       TMenuActionLink.SetHint
 0001:000482FC       TMenuActionLink.SetImageIndex
 0001:00048328       TMenuActionLink.SetShortCut
 0001:00048354       TMenuActionLink.SetVisible
 0001:00048380       TMenuActionLink.SetOnExecute
 0001:000483B0       TMenuItem.Create
 0001:00048450       TMenuItem.Destroy
 0001:0004853C       TMenuItem.AppendTo
 0001:0004881C       AddIn
 0001:00048848       TMenuItem.PopulateMenu
 0001:000488BC       TMenuItem.ReadShortCutText
 0001:0004891C       TMenuItem.MergeWith
 0001:00048990       TMenuItem.Loaded
 0001:000489DC       TMenuItem.RebuildHandle
 0001:00048AE4       TMenuItem.VerifyGroupIndex
 0001:00048B64       TMenuItem.GetHandle
 0001:00048BD0       TMenuItem.DefineProperties
 0001:00048C24       TMenuItem.DoDrawText
 0001:00048E58       TMenuItem.DrawItem
 0001:00048EA4       NormalDraw
 0001:000497B4       BiDiDraw
 0001:0004A0E4       TMenuItem.AdvancedDrawItem
 0001:0004A218       TMenuItem.GetImageList
 0001:0004A27C       GetMenuSize
 0001:0004A2C8       TMenuItem.MeasureItem
 0001:0004A518       TMenuItem.HasParent
 0001:0004A52C       TMenuItem.SetBreak
 0001:0004A55C       TMenuItem.SetCaption
 0001:0004A594       TMenuItem.TurnSiblingsOff
 0001:0004A608       TMenuItem.SetChecked
 0001:0004A680       TMenuItem.SetEnabled
 0001:0004A724       TMenuItem.SetGroupIndex
 0001:0004A78C       TMenuItem.GetAction
 0001:0004A7B8       TMenuItem.GetActionLinkClass
 0001:0004A7D0       TMenuItem.GetCount
 0001:0004A7FC       TMenuItem.GetItem
 0001:0004A834       TMenuItem.SetShortCut
 0001:0004A868       TMenuItem.SetVisible
 0001:0004A898       TMenuItem.SetImageIndex
 0001:0004A8C8       TMenuItem.GetMenuIndex
 0001:0004A8FC       TMenuItem.SetMenuIndex
 0001:0004A96C       TMenuItem.GetChildren
 0001:0004A9B4       TMenuItem.SetChildOrder
 0001:0004A9E0       TMenuItem.SetDefault
 0001:0004AA68       TMenuItem.InitiateAction
 0001:0004AA88       TMenuItem.Insert
 0001:0004AB78       TMenuItem.Delete
 0001:0004AC0C       TMenuItem.Click
 0001:0004ACF4       TMenuItem.IndexOf
 0001:0004AD28       TMenuItem.Add
 0001:0004AD50       TMenuItem.Remove
 0001:0004AD8C       TMenuItem.MenuChanged
 0001:0004ADF0       TMenuItem.SubItemChanged
 0001:0004AE64       TMenuItem.GetBitmap
 0001:0004AEA8       TMenuItem.SetAction
 0001:0004AF40       TMenuItem.SetBitmap
 0001:0004AF84       TMenuItem.InitiateActions
 0001:0004AFC4       TMenuItem.GetParentComponent
 0001:0004B000       TMenuItem.SetParentComponent
 0001:0004B06C       TMenuItem.GetParentMenu
 0001:0004B0A0       TMenuItem.SetRadioItem
 0001:0004B0E8       TMenuItem.ActionChange
 0001:0004B27C       TMenuItem.DoActionChange
 0001:0004B2AC       TMenuItem.IsCaptionStored
 0001:0004B2E0       TMenuItem.IsCheckedStored
 0001:0004B314       TMenuItem.IsEnabledStored
 0001:0004B348       TMenuItem.IsHintStored
 0001:0004B37C       TMenuItem.IsHelpContextStored
 0001:0004B3B0       TMenuItem.IsImageIndexStored
 0001:0004B3E4       TMenuItem.IsShortCutStored
 0001:0004B418       TMenuItem.IsVisibleStored
 0001:0004B44C       TMenuItem.IsOnClickStored
 0001:0004B480       TMenuItem.AssignTo
 0001:0004B51C       TMenuItem.Notification
 0001:0004B588       TMenuItem.SetSubMenuImages
 0001:0004B5EC       TMenuItem.ImageListChange
 0001:0004B610       UpdateItem
 0001:0004B648       TMenuItem.UpdateItems
 0001:0004B668       IfHotkeyAvailable
 0001:0004B6AC       CopyToBest
 0001:0004B73C       InsertHotkeyFarEastFormat
 0001:0004B8C4       TMenuItem.InternalRethinkHotkeys
 0001:0004BDE0       TMenuItem.SetAutoHotkeys
 0001:0004BE10       TMenuItem.IsLine
 0001:0004BE40       TMenuItem.InternalRethinkLines
 0001:0004BFD8       TMenuItem.SetAutoLineReduction
 0001:0004C008       TMenuItem.GetAutoHotkeys
 0001:0004C058       TMenuItem.GetAutoLineReduction
 0001:0004C0A8       TMenu.Create
 0001:0004C174       TMenu.Destroy
 0001:0004C1BC       TMenu.GetChildren
 0001:0004C1E8       TMenu.GetHandle
 0001:0004C208       TMenu.SetChildOrder
 0001:0004C234       UpdateItem
 0001:0004C26C       TMenu.UpdateItems
 0001:0004C290       Find
 0001:0004C340       TMenu.FindItem
 0001:0004C37C       TMenu.GetHelpContext
 0001:0004C414       TMenu.DispatchCommand
 0001:0004C450       TMenu.DispatchPopup
 0001:0004C550       TMenu.IsOwnerDraw
 0001:0004C57C       NthParentOf
 0001:0004C5B0       DoClick
 0001:0004C72C       TMenu.IsShortCut
 0001:0004C854       TMenu.IsBiDiModeStored
 0001:0004C870       TMenu.DoBiDiModeChanged
 0001:0004C93C       BuildImage
 0001:0004CA20       TMenu.UpdateImage
 0001:0004CAB0       TMenu.SetOwnerDraw
 0001:0004CADC       TMenu.AdjustBiDiBehavior
 0001:0004CB5C       TMenu.SetWindowHandle
 0001:0004CBAC       TMenu.DoChange
 0001:0004CBE0       TMenu.Loaded
 0001:0004CC00       TMenu.MenuChanged
 0001:0004CC48       TMenu.ImageListChange
 0001:0004CC6C       TMenu.SetImages
 0001:0004CCD0       TMenu.Notification
 0001:0004CD0C       TMenu.IsRightToLeft
 0001:0004CD3C       IsAccelChar
 0001:0004CDD0       IsInitialChar
 0001:0004CEE4       TMenu.ProcessMenuChar
 0001:0004D0DC       TMenu.DoGetMenuString
 0001:0004D1BC       TMenu.SetBiDiMode
 0001:0004D1F0       TMenu.SetParentBiDiMode
 0001:0004D21C       TMenu.ParentBiDiModeChanged
 0001:0004D25C       TMenu.ParentBiDiModeChanged
 0001:0004D298       TMenu.GetAutoHotkeys
 0001:0004D2BC       TMenu.SetAutoHotkeys
 0001:0004D2E0       TMenu.GetAutoLineReduction
 0001:0004D304       TMenu.SetAutoLineReduction
 0001:0004D328       TMainMenu.SetAutoMerge
 0001:0004D36C       TMainMenu.MenuChanged
 0001:0004D3D4       TMainMenu.Merge
 0001:0004D40C       TMainMenu.Unmerge
 0001:0004D440       TMainMenu.ItemChanged
 0001:0004D478       TMainMenu.GetHandle
 0001:0004D4A8       TPopupList.MainWndProc
 0001:0004D4FC       TPopupList.WndProc
 0001:0004DAF0       TPopupList.Add
 0001:0004DB28       TPopupList.Remove
 0001:0004DB58       TPopupMenu.Create
 0001:0004DBF4       TPopupMenu.Destroy
 0001:0004DC34       TPopupMenu.DoPopup
 0001:0004DC5C       TPopupMenu.GetHelpContext
 0001:0004DC78       TPopupMenu.SetHelpContext
 0001:0004DC94       TPopupMenu.SetBiDiModeFromPopupControl
 0001:0004DCFC       TPopupMenu.UseRightToLeftAlignment
 0001:0004DD68       TPopupMenu.Popup
 0001:0004DE44       TMenuItemStack.ClearItem
 0001:0004DE9C       DrawMenuItem
 0001:0004DFA0       StripHotkey
 0001:0004E074       GetHotkey
 0001:0004E108       AnsiSameCaption
 0001:0004E210       Finalization
 0001:0004E280       Menus
 0001:000500BC       SaveFocusState
 0001:000500D0       RestoreFocusState
 0001:000500E4       ShowMDIClientEdge
 0001:00050150       DoneApplication
 0001:0005018C       DoDisableWindow
 0001:000501FC       DisableTaskWindows
 0001:000502B4       EnableTaskWindows
 0001:00050308       DoFindWindow
 0001:00050380       FindTopMostWindow
 0001:000503D4       SendFocusMessage
 0001:00050410       CheckTaskWindow
 0001:0005043C       ForegroundTask
 0001:00050470       FindGlobalComponent
 0001:00050518       KeysToShiftState
 0001:00050574       KeyDataToShiftState
 0001:000505BC       KeyboardStateToShiftState
 0001:00050628       IsAccel
 0001:000506A0       GetParentForm
 0001:000506E4       ValidParentForm
 0001:0005076C       TControlScrollBar.Create
 0001:00050824       TControlScrollBar.IsIncrementStored
 0001:00050840       TControlScrollBar.Assign
 0001:000508A8       TControlScrollBar.ChangeBiDiPosition
 0001:000508F0       ProcessHorz
 0001:00050974       ProcessVert
 0001:000509F0       TControlScrollBar.CalcAutoRange
 0001:00050AA8       TControlScrollBar.IsScrollBarVisible
 0001:00050AFC       ScrollBarVisible
 0001:00050B40       Adjustment
 0001:00050BCC       TControlScrollBar.ControlSize
 0001:00050C50       TControlScrollBar.NeedsScrollBarVisible
 0001:00050C78       GetRealScrollPosition
 0001:00050CE4       TControlScrollBar.ScrollMessage
 0001:00051014       TControlScrollBar.SetButtonSize
 0001:00051080       TControlScrollBar.SetColor
 0001:000510C0       TControlScrollBar.SetParentColor
 0001:000510F8       TControlScrollBar.SetPosition
 0001:00051228       TControlScrollBar.SetSize
 0001:00051294       TControlScrollBar.SetStyle
 0001:000512CC       TControlScrollBar.SetThumbSize
 0001:00051304       TControlScrollBar.DoSetRange
 0001:0005133C       TControlScrollBar.SetRange
 0001:0005136C       TControlScrollBar.IsRangeStored
 0001:00051390       TControlScrollBar.SetVisible
 0001:000513B4       UpdateScrollProperties
 0001:00051500       TControlScrollBar.Update
 0001:00051638       TScrollingWinControl.Create
 0001:000516D4       TScrollingWinControl.Destroy
 0001:00051724       TScrollingWinControl.CreateParams
 0001:00051748       TScrollingWinControl.CreateWnd
 0001:00051790       TScrollingWinControl.AlignControls
 0001:000517BC       TScrollingWinControl.AutoScrollEnabled
 0001:000517F8       TScrollingWinControl.DoFlipChildren
 0001:00051934       TScrollingWinControl.CalcAutoRange
 0001:00051968       TScrollingWinControl.SetAutoScroll
 0001:000519C4       TScrollingWinControl.SetHorzScrollBar
 0001:000519E8       TScrollingWinControl.SetVertScrollBar
 0001:00051A0C       TScrollingWinControl.UpdateScrollBars
 0001:00051B04       TScrollingWinControl.AutoScrollInView
 0001:00051B38       TScrollingWinControl.ScrollInView
 0001:00051CE0       TScrollingWinControl.ScaleScrollBars
 0001:00051DD0       TScrollingWinControl.ChangeScale
 0001:00051E00       TScrollingWinControl.Resizing
 0001:00051E10       TScrollingWinControl.WMSize
 0001:00051EFC       TScrollingWinControl.WMHScroll
 0001:00051F44       TScrollingWinControl.WMVScroll
 0001:00051F8C       TScrollingWinControl.AdjustClientRect
 0001:00052014       TScrollingWinControl.CMBiDiModeChanged
 0001:000520A4       TCustomForm.Create
 0001:00052234       TCustomForm.AfterConstruction
 0001:0005227C       TCustomForm.CreateNew
 0001:00052448       TCustomForm.BeforeDestruction
 0001:000524C8       TCustomForm.Destroy
 0001:000525AC       TCustomForm.DoCreate
 0001:00052628       TCustomForm.DoDestroy
 0001:00052688       TCustomForm.Loaded
 0001:000526E0       TCustomForm.Notification
 0001:00052848       TCustomForm.ReadState
 0001:00052ADC       TCustomForm.DefineProperties
 0001:00052BA8       TCustomForm.ReadIgnoreFontProperty
 0001:00052BD0       TCustomForm.ReadTextHeight
 0001:00052BF4       TCustomForm.WriteTextHeight
 0001:00052C18       TCustomForm.WritePixelsPerInch
 0001:00052C3C       TCustomForm.GetTextHeight
 0001:00052C70       TCustomForm.BeginAutoDrag
 0001:00052C7C       TCustomForm.ChangeScale
 0001:00052D24       TCustomForm.IconChanged
 0001:00052D90       TCustomForm.IsClientSizeStored
 0001:00052DB0       TCustomForm.IsFormSizeStored
 0001:00052DF4       TCustomForm.IsAutoScrollStored
 0001:00052E3C       TCustomForm.DoClose
 0001:00052E70       TCustomForm.DoHide
 0001:00052E9C       TCustomForm.DoShow
 0001:00052EC8       TCustomForm.GetClientRect
 0001:00052F7C       TCustomForm.GetChildren
 0001:00052FF0       TCustomForm.GetFloating
 0001:00053030       TCustomForm.SetChildOrder
 0001:000530CC       TCustomForm.SetParentBiDiMode
 0001:0005310C       TCustomForm.SetClientWidth
 0001:0005315C       TCustomForm.SetClientHeight
 0001:000531AC       TCustomForm.SetVisible
 0001:0005320C       TCustomForm.VisibleChanging
 0001:00053280       TCustomForm.WantChildKey
 0001:0005329C       TCustomForm.SetParent
 0001:000532EC       TCustomForm.ValidateRename
 0001:0005333C       TCustomForm.WndProc
 0001:000537C8       Default
 0001:00053814       MaximizedChildren
 0001:00053868       TCustomForm.ClientWndProc
 0001:00053A48       TCustomForm.AlignControls
 0001:00053AE4       TCustomForm.CMBiDiModeChanged
 0001:00053B98       TCustomForm.CMParentBiDiModeChanged
 0001:00053C2C       TCustomForm.SetBorderIcons
 0001:00053C68       TCustomForm.SetBorderStyle
 0001:00053CC4       TCustomForm.Dock
 0001:00053D30       TCustomForm.DoDock
 0001:00053DA8       TCustomForm.GetActiveMDIChild
 0001:00053DF8       TCustomForm.GetMDIChildCount
 0001:00053E60       TCustomForm.GetMDIChildren
 0001:00053ED8       EnumMonitorsProc
 0001:00053F20       TCustomForm.GetMonitor
 0001:00054044       TCustomForm.GetCanvas
 0001:00054060       TCustomForm.SetIcon
 0001:00054084       TCustomForm.IsForm
 0001:000540A0       TCustomForm.IsIconStored
 0001:000540D8       TCustomForm.SetFormStyle
 0001:0005418C       TCustomForm.RefreshMDIMenu
 0001:00054244       TCustomForm.SetObjectMenuItem
 0001:0005427C       TCustomForm.SetWindowMenu
 0001:000542C0       TCustomForm.SetMenu
 0001:000544F0       TCustomForm.GetPixelsPerInch
 0001:00054520       TCustomForm.SetPixelsPerInch
 0001:0005456C       TCustomForm.SetPosition
 0001:000545A8       TCustomForm.GetScaled
 0001:000545C8       TCustomForm.SetScaled
 0001:00054608       TCustomForm.CMColorChanged
 0001:00054648       TCustomForm.NormalColor
 0001:00054674       TCustomForm.CMCtl3DChanged
 0001:000546D8       TCustomForm.CMFontChanged
 0001:00054714       TCustomForm.CMMenuChanged
 0001:00054740       TCustomForm.SetWindowState
 0001:0005479C       TCustomForm.SetWindowToMonitor
 0001:00054B60       TCustomForm.CreateParams
 0001:00054E24       TCustomForm.CreateWnd
 0001:00054F94       TCustomForm.CreateWindowHandle
 0001:00055100       TCustomForm.DestroyWindowHandle
 0001:00055150       TCustomForm.DefaultHandler
 0001:000551E0       TCustomForm.SetActiveControl
 0001:000552C0       TCustomForm.DefocusControl
 0001:0005531C       TCustomForm.FocusControl
 0001:00055354       TCustomForm.SetFocusedControl
 0001:00055674       TCustomForm.ActiveChanged
 0001:00055680       TCustomForm.SetWindowFocus
 0001:000556F0       TCustomForm.SetActive
 0001:0005577C       TCustomForm.SendCancelMode
 0001:000557E8       TCustomForm.MergeMenu
 0001:000558CC       DoNestedActivation
 0001:00055930       TCustomForm.Activate
 0001:00055974       TCustomForm.Deactivate
 0001:000559B8       TCustomForm.Paint
 0001:000559E4       TCustomForm.GetIconHandle
 0001:00055A18       TCustomForm.PaintWindow
 0001:00055AD8       TCustomForm.PaletteChanged
 0001:00055B80       TCustomForm.WMPaint
 0001:00055C1C       TCustomForm.WMIconEraseBkgnd
 0001:00055C8C       TCustomForm.WMEraseBkgnd
 0001:00055CD0       TCustomForm.WMQueryDragIcon
 0001:00055CF0       ModifySystemMenu
 0001:00055E08       TCustomForm.WMNCCreate
 0001:00055E44       TCustomForm.WMNCLButtonDown
 0001:00055EF4       TCustomForm.WMDestroy
 0001:00055F68       TCustomForm.WMCommand
 0001:00055FB4       TCustomForm.WMInitMenuPopup
 0001:00055FE4       TCustomForm.WMMenuChar
 0001:00056034       TCustomForm.WMMenuSelect
 0001:00056114       TCustomForm.WMActivate
 0001:0005614C       TCustomForm.Resizing
 0001:000561A0       TCustomForm.WMClose
 0001:000561B8       TCustomForm.WMQueryEndSession
 0001:000561F0       TCustomForm.CMAppSysCommand
 0001:00056270       TCustomForm.WMSysCommand
 0001:00056330       TCustomForm.WMShowWindow
 0001:000563EC       TCustomForm.WMMDIActivate
 0001:0005645C       TCustomForm.WMNextDlgCtl
 0001:000564A4       TCustomForm.WMEnterMenuLoop
 0001:000564CC       GetMenuHelpContext
 0001:00056520       ControlHasHelp
 0001:00056570       GetHelpInfo
 0001:000565C0       TCustomForm.WMHelp
 0001:00056744       TCustomForm.WMGetMinMaxInfo
 0001:00056818       HandleEdge
 0001:00056854       TCustomForm.WMWindowPosChanging
 0001:00056928       TCustomForm.CMActivate
 0001:0005695C       TCustomForm.CMDeactivate
 0001:00056990       TCustomForm.CMDialogKey
 0001:00056A5C       TCustomForm.CMShowingChanged
 0001:00057038       TCustomForm.CMIconChanged
 0001:00057064       TCustomForm.CMRelease
 0001:0005707C       TCustomForm.CMTextChanged
 0001:000570DC       TCustomForm.CMUIActivate
 0001:000570F8       TCustomForm.CMParentFontChanged
 0001:00057178       TCustomForm.CMIsShortCut
 0001:000571B4       TCustomForm.Close
 0001:00057274       TCustomForm.CloseQuery
 0001:000572F4       TCustomForm.CloseModal
 0001:0005738C       TCustomForm.Hide
 0001:000573A0       TCustomForm.Show
 0001:000573BC       TCustomForm.SetFocus
 0001:00057444       TCustomForm.Release
 0001:00057468       TCustomForm.ShowModal
 0001:00057754       TraverseClients
 0001:000577D4       TCustomForm.UpdateActions
 0001:00057868       TCustomForm.RequestAlign
 0001:00057894       TCustomForm.WMSettingChange
 0001:000578C8       ProcessExecute
 0001:00057904       TraverseClients
 0001:00057998       TCustomForm.CMActionExecute
 0001:000579F8       ProcessUpdate
 0001:00057A34       TraverseClients
 0001:00057AC8       TCustomForm.CMActionUpdate
 0001:00057B28       DispatchShortCut
 0001:00057B98       TCustomForm.IsShortCut
 0001:00057C24       TCustomForm.QueryInterface
 0001:00057C74       TCustomForm.MouseWheelHandler
 0001:00057CC4       TCustomForm.HandleCreateException
 0001:00057CE8       TCustomForm.SetLayeredAttribs
 0001:00057DE4       TCustomForm.SetAlphaBlend
 0001:00057E18       TCustomForm.SetAlphaBlendValue
 0001:00057E4C       TCustomForm.SetTransparentColorValue
 0001:00057E80       TCustomForm.SetTransparentColor
 0001:00057EB4       TCustomForm.InitAlphaBlending
 0001:00057EF8       TCustomDockForm.Create
 0001:00057F70       TCustomDockForm.DoAddDockClient
 0001:00058068       TCustomDockForm.DoRemoveDockClient
 0001:00058098       TCustomDockForm.Loaded
 0001:000580F8       TCustomDockForm.GetSiteInfo
 0001:0005812C       TCustomDockForm.WMNCHitTest
 0001:00058164       TCustomDockForm.WMNCLButtonDown
 0001:00058220       TCustomDockForm.CMControlListChange
 0001:00058290       TCustomDockForm.CMDockNotification
 0001:0005838C       TCustomDockForm.CMUnDockClient
 0001:000583B4       TCustomDockForm.CMVisibleChanged
 0001:00058410       TMonitor.GetLeft
 0001:00058434       TMonitor.GetHeight
 0001:00058458       TMonitor.GetTop
 0001:0005847C       TMonitor.GetWidth
 0001:000584A0       TMonitor.GetBoundsRect
 0001:000584DC       TMonitor.GetWorkareaRect
 0001:00058518       TScreen.Create
 0001:000586BC       TScreen.Destroy
 0001:000587C4       TScreen.GetHeight
 0001:000587E4       TScreen.GetWidth
 0001:00058804       TScreen.GetDesktopTop
 0001:00058824       TScreen.GetDesktopLeft
 0001:00058844       TScreen.GetDesktopHeight
 0001:00058864       TScreen.GetDesktopWidth
 0001:00058884       TScreen.GetMonitor
 0001:000588A8       TScreen.GetMonitorCount
 0001:000588E0       TScreen.GetForm
 0001:00058904       TScreen.GetFormCount
 0001:00058920       TScreen.GetCustomForms
 0001:00058944       TScreen.GetCustomFormCount
 0001:00058960       TScreen.UpdateLastActive
 0001:000589E0       TScreen.AddForm
 0001:00058A28       TScreen.RemoveForm
 0001:00058A88       TScreen.AddDataModule
 0001:00058AA8       TScreen.RemoveDataModule
 0001:00058AC8       TScreen.CreateCursors
 0001:00058B3C       TScreen.DestroyCursors
 0001:00058BD0       TScreen.InsertCursor
 0001:00058C18       TScreen.GetImes
 0001:00058E38       TScreen.GetDefaultIME
 0001:00058E60       TScreen.IconFontChanged
 0001:00058EBC       TScreen.GetDataModule
 0001:00058EE0       TScreen.GetDataModuleCount
 0001:00058EFC       TScreen.GetCursors
 0001:00058F58       TScreen.SetCursor
 0001:00059014       TScreen.GetMetricSettings
 0001:0005917C       TScreen.DisableAlign
 0001:00059190       TScreen.EnableAlign
 0001:000591C8       TScreen.Realign
 0001:000591DC       InsertBefore
 0001:00059270       DoPosition
 0001:00059474       DoAlign
 0001:000595F0       AlignWork
 0001:00059664       TScreen.AlignForms
 0001:000596EC       TScreen.AlignForm
 0001:00059774       TScreen.ResetFonts
 0001:0005978C       GetHint
 0001:000597DC       GetHintControl
 0001:00059824       HintTimerProc
 0001:00059878       HintMouseThread
 0001:000598D8       HintGetMsgHook
 0001:0005991C       HookHintHooks
 0001:00059998       UnhookHintHooks
 0001:000599F4       GetAnimation
 0001:00059A2C       SetAnimation
 0001:00059A5C       ShowWinNoAnimate
 0001:00059AAC       TApplication.Create
 0001:00059CFC       TApplication.Destroy
 0001:00059E5C       TApplication.CreateHandle
 0001:0005A038       TApplication.ControlDestroyed
 0001:0005A0DC       GetTopMostWindows
 0001:0005A15C       TApplication.DoNormalizeTopMosts
 0001:0005A22C       TApplication.ModalStarted
 0001:0005A26C       TApplication.ModalFinished
 0001:0005A2AC       TApplication.NormalizeTopMosts
 0001:0005A2C0       TApplication.NormalizeAllTopMosts
 0001:0005A2D4       TApplication.RestoreTopMosts
 0001:0005A360       TApplication.UseRightToLeftReading
 0001:0005A390       TApplication.UseRightToLeftAlignment
 0001:0005A3C0       TApplication.CheckIniChange
 0001:0005A430       TApplication.SettingChange
 0001:0005A4B0       Default
 0001:0005A4EC       DrawAppIcon
 0001:0005A538       TApplication.WndProc
 0001:0005AC7C       TApplication.GetIconHandle
 0001:0005ACB4       TApplication.Minimize
 0001:0005ADA0       TApplication.Restore
 0001:0005AEE4       TApplication.BringToFront
 0001:0005AF40       TApplication.GetTitle
 0001:0005AF9C       TApplication.IsDlgMsg
 0001:0005AFDC       TApplication.IsMDIMsg
 0001:0005B048       TApplication.IsKeyMsg
 0001:0005B15C       TApplication.IsHintMsg
 0001:0005B1A0       TApplication.IsShortCut
 0001:0005B220       TApplication.ProcessMessage
 0001:0005B2E8       TApplication.HandleMessage
 0001:0005B310       TApplication.HookMainWindow
 0001:0005B388       TApplication.UnhookMainWindow
 0001:0005B438       TApplication.Initialize
 0001:0005B458       TApplication.CreateForm
 0001:0005B4EC       TApplication.Run
 0001:0005B5E8       TApplication.Terminate
 0001:0005B604       TApplication.HandleException
 0001:0005B6A4       TApplication.MessageBox
 0001:0005B80C       TApplication.ShowException
 0001:0005B8E8       TApplication.InvokeHelp
 0001:0005BA9C       TApplication.HelpKeyword
 0001:0005BB14       TApplication.HelpContext
 0001:0005BB8C       TApplication.HelpCommand
 0001:0005BBB4       TApplication.GetExeName
 0001:0005BBD0       TApplication.SetShowHint
 0001:0005BC4C       TApplication.DoActionIdle
 0001:0005BCC8       TApplication.DoMouseIdle
 0001:0005BD74       TApplication.Idle
 0001:0005BE98       TApplication.NotifyForms
 0001:0005BEE8       TApplication.IconChanged
 0001:0005BF64       TApplication.SetHint
 0001:0005C010       SetVisible
 0001:0005C070       TApplication.UpdateVisible
 0001:0005C110       TApplication.ValidateHelpSystem
 0001:0005C14C       TApplication.StartHintTimer
 0001:0005C1A4       TApplication.StopHintTimer
 0001:0005C1DC       TApplication.HintMouseMessage
 0001:0005C314       TApplication.HintTimerExpired
 0001:0005C358       TApplication.HideHint
 0001:0005C3B0       TApplication.CancelHint
 0001:0005C3E8       FindScanline
 0001:0005C3FC       GetCursorHeightMargin
 0001:0005C580       ValidateHintWindow
 0001:0005C5E8       MultiLineWidth
 0001:0005C6C0       TApplication.ActivateHint
 0001:0005CA94       TApplication.GetCurrentHelpFile
 0001:0005CAE4       TApplication.DispatchAction
 0001:0005CB90       TApplication.ExecuteAction
 0001:0005CBCC       TApplication.UpdateAction
 0001:0005CC08       InitProcs
 0001:0005CC60       TApplication.WakeMainThread
 0001:0005CC84       TApplication.HookSynchronizeWakeup
 0001:0005CCA0       TApplication.UnhookSynchronizeWakeup
 0001:0005CCC8       Finalization
 0001:0005CD24       Forms
 0001:0005CD68       PYunAPIHookEvent
 0001:0005CD70       PYunAPIHookRequest
 0001:0005CD78       PYunAPISetOpt
 0001:0005CD80       PYunAPIStart
 0001:0005CD88       PYunAPIDestroy
 0001:0005CD90       PYunAPIReply
 0001:0005CD98       Finalization
 0001:0005CDC8       PPSDK
 0001:0005CDD0       send
 0001:0005CDD8       Finalization
 0001:0005CE08       WinSock
 0001:0005D9BC       StrLComp
 0001:0005DA38       StrComp
 0001:0005DA98       StrLen
 0001:0005DAD8       FloatToJson
 0001:0005DB78       CurrToJson
 0001:0005DC14       SO
 0001:0005DC50       ObjectIsType
 0001:0005DC84       ObjectGetType
 0001:0005DCAC       ObjectFindFirst
 0001:0005DD74       ObjectFindNext
 0001:0005DE04       ObjectFindClose
 0001:0005DE24       TSuperEnumerator.Create
 0001:0005DEAC       TSuperEnumerator.Destroy
 0001:0005DEE4       TSuperObject.Create
 0001:0005DF94       TSuperObject.Create
 0001:0005DFE8       TSuperObject.Create
 0001:0005E040       TSuperObject.Create
 0001:0005E098       TSuperObject.CreateCurrency
 0001:0005E0F0       TSuperObject.Destroy
 0001:0005E14C       DoEscape
 0001:0005E46C       DoMinimalEscape
 0001:0005E5D4       _indent
 0001:0005E648       TSuperObject.Write
 0001:0005EBA8       TSuperObject.IsType
 0001:0005EBC8       TSuperObject.AsBoolean
 0001:0005EC7C       TSuperObject.AsInteger
 0001:0005EDA0       TSuperObject.AsDouble
 0001:0005EEA4       TSuperObject.AsCurrency
 0001:0005EFB8       TSuperObject.AsString
 0001:0005EFF4       TSuperObject.GetEnumerator
 0001:0005F020       TSuperObject.AfterConstruction
 0001:0005F038       TSuperObject.BeforeDestruction
 0001:0005F07C       TSuperObject.AsArray
 0001:0005F0A8       TSuperObject.AsObject
 0001:0005F0D4       TSuperObject.AsJSon
 0001:0005F170       TSuperObject.ParseString
 0001:0005F22C       hexdigit
 0001:0005F258       min
 0001:0005F284       IsEndDelimiter
 0001:0005F304       TSuperObject.ParseEx
 0001:00061268       TSuperObject.PutO
 0001:000612E4       TSuperObject.PutB
 0001:00061374       TSuperObject.PutD
 0001:00061404       TSuperObject.PutC
 0001:00061494       TSuperObject.PutI
 0001:00061524       TSuperObject.PutS
 0001:000615B4       TSuperObject.QueryInterface
 0001:000615E0       TSuperObject.SaveTo
 0001:00061668       TSuperObject.CalcSize
 0001:000616C8       TSuperObject.SaveTo
 0001:0006172C       TSuperObject.Create
 0001:00061784       TSuperObject.Clear
 0001:00061878       TSuperObject.Pack
 0001:000618F0       TSuperObject.GetN
 0001:00061960       TSuperObject.PutN
 0001:00061A38       TSuperObject.Delete
 0001:00061A80       TSuperObject.Clone
 0001:00061D24       TSuperObject.Merge
 0001:00062034       TSuperObject.Merge
 0001:000620B0       TSuperObject.NewInstance
 0001:000620D8       TSuperObject.ForcePath
 0001:00062124       TSuperObject.Format
 0001:000622AC       TSuperObject.GetO
 0001:000622F4       TSuperObject.GetA
 0001:00062388       TSuperObject.GetB
 0001:000623F0       TSuperObject.GetD
 0001:00062460       TSuperObject.GetC
 0001:000624D0       TSuperObject.GetI
 0001:0006254C       TSuperObject.GetDataPtr
 0001:00062568       TSuperObject.GetDataType
 0001:00062584       TSuperObject.GetS
 0001:000625F8       TSuperObject.SaveTo
 0001:00062668       TSuperObject.Validate
 0001:00062730       FindInheritedProperty
 0001:00062878       FindDataType
 0001:00062968       GetNames
 0001:00062B00       FindInheritedField
 0001:00062C7C       InheritedFieldExist
 0001:00062E98       getInheritedBool
 0001:00062F60       GetInheritedFieldList
 0001:00063158       CheckEnum
 0001:000632E4       CheckLength
 0001:0006356C       CheckRange
 0001:000637BC       process
 0001:000643F4       TSuperObject.Validate
 0001:000646F8       TSuperObject._AddRef
 0001:00064714       TSuperObject._Release
 0001:00064740       TSuperObject.Compare
 0001:000647C0       GetIntCompResult
 0001:000647F8       GetDblCompResult
 0001:00064834       TSuperObject.Compare
 0001:00064E58       TSuperObject.AsMethod
 0001:00064E84       TSuperObject.Create
 0001:00064ED8       TSuperObject.GetM
 0001:00064F78       TSuperObject.PutM
 0001:00065008       TSuperObject.call
 0001:00065054       TSuperObject.call
 0001:00065100       TSuperObject.GetProcessing
 0001:0006511C       TSuperObject.SetDataPtr
 0001:00065138       TSuperObject.SetProcessing
 0001:00065154       TSuperArray.Add
 0001:00065180       TSuperArray.Delete
 0001:0006521C       TSuperArray.Clear
 0001:00065290       TSuperArray.Pack
 0001:000653C0       TSuperArray.Create
 0001:00065440       TSuperArray.Destroy
 0001:00065488       TSuperArray.Expand
 0001:00065500       TSuperArray.GetO
 0001:0006553C       TSuperArray.PutO
 0001:00065584       max
 0001:000655B0       TSuperWriterString.Append
 0001:000656B0       TSuperWriterString.Append
 0001:000656DC       TSuperWriterString.Create
 0001:00065744       TSuperWriterString.Destroy
 0001:0006578C       TSuperWriterString.GetString
 0001:000657B0       TSuperWriterString.Reset
 0001:000657D0       TSuperWriterString.TrimRight
 0001:00065830       TSuperWriterStream.Append
 0001:0006585C       TSuperWriterStream.Create
 0001:000658AC       TSuperWriterStream.Reset
 0001:000658C8       TSuperAnsiWriterStream.Append
 0001:00065998       TSuperUnicodeWriterStream.Append
 0001:000659C8       TSuperWriterFake.Append
 0001:000659F0       TSuperWriterFake.Append
 0001:00065A1C       TSuperWriterFake.Create
 0001:00065A68       TSuperWriterFake.Reset
 0001:00065A7C       TSuperWriterSock.Append
 0001:00065B60       TSuperWriterSock.Append
 0001:00065B8C       TSuperWriterSock.Create
 0001:00065BE4       TSuperWriterSock.Reset
 0001:00065BF8       TSuperTokenizer.Create
 0001:00065C64       TSuperTokenizer.Destroy
 0001:00065CA8       TSuperTokenizer.Reset
 0001:00065CE8       TSuperTokenizer.ResetLevel
 0001:00065D70       TSuperAvlTree.Create
 0001:00065DB8       TSuperAvlTree.Destroy
 0001:00065DF4       TSuperAvlTree.balance
 0001:00066008       TSuperAvlTree.Insert
 0001:000662E4       TSuperAvlTree.Search
 0001:00066430       TSuperAvlTree.Delete
 0001:000667FC       TSuperAvlTree.Pack
 0001:0006691C       TSuperAvlTree.Clear
 0001:00066998       TSuperAvlTree.CompareKeyNode
 0001:000669CC       TSuperAvlTree.CompareNodeNode
 0001:00066A04       TSuperAvlIterator.Create
 0001:00066A54       TSuperAvlIterator.First
 0001:00066ABC       TSuperAvlIterator.GetIter
 0001:00066B04       TSuperAvlIterator.Next
 0001:00066BE4       TSuperAvlTree.doDeleteEntry
 0001:00066C00       TSuperAvlTree.GetEnumerator
 0001:00066C24       TSuperAvlEntry.Create
 0001:00066C8C       TSuperAvlEntry.GetValue
 0001:00066CAC       TSuperAvlEntry.Hash
 0001:00066D08       TSuperAvlEntry.SetValue
 0001:00066D28       TSuperTableString.doDeleteEntry
 0001:00066DAC       TSuperTableString.GetO
 0001:00066DF4       TSuperTableString.PutO
 0001:00066E3C       Finalization
 0001:00066E6C       superobject
 0001:00067058       PYunAPIEventCallback
 0001:00067144       PYunAPIRequestCallback
 0001:00067474       TPPDemo_Frm.PP_PayFinish
 0001:000674B8       TPPDemo_Frm.PP_SumPayJE
 0001:00067B80       TPPDemo_Frm.Button1Click
 0001:00067F14       TPPDemo_Frm.Button2Click
 0001:00067F2C       TPPDemo_Frm.FormShow
 0001:00067F48       Finalization
 0001:00067F78       PPDemo_Unt
 0001:00067F80       Finalization
 0001:000681A0       D7_PP
 0002:00000000       ExitCode
 0002:00000004       ErrorAddr
 0002:00000008       FileMode
 0002:0000000C       VarClearProc
 0002:00000010       VarAddRefProc
 0002:00000014       VarCopyProc
 0002:00000018       VarToLStrProc
 0002:0000001C       VarToWStrProc
 0002:00000020       Default8087CW
 0002:00000024       HeapAllocFlags
 0002:00000028       DebugHook
 0002:0000002C       JITEnable
 0002:00000030       NoErrMsg
 0002:00000034       LibModuleList
 0002:00000038       ModuleUnloadList
 0002:0000003C       MemoryManager
 0002:00000048       reMap
 0002:00000064       Ten
 0002:0000006C       errCaption
 0002:00000074       runErrMsg
 0002:00000094       dig
 0002:000000A4       TlsIndex
 0002:000000A8       PtrToNil
 0002:000000AC       Module
 0002:000000C4       EmptyStr
 0002:000000C8       EmptyWideStr
 0002:000000CC       Win32Platform
 0002:000000D0       Win32MajorVersion
 0002:000000D4       Win32MinorVersion
 0002:000000D8       Win32BuildNumber
 0002:000000DC       Win32CSDVersion
 0002:000000E0       TwoDigitYearCenturyWindow
 0002:000000E4       MonthDays
 0002:00000114       LeadBytes
 0002:00000134       HexDisplayPrefix
 0002:00000138       GetDiskFreeSpaceEx
 0002:0000013C       ExitProcList
 0002:00000140       cSimpleBoolStrs
 0002:00000148       AccessMode
 0002:00000154       ShareMode
 0002:00000168       FormatErrorStrs
 0002:00000170       FCon1E18
 0002:0000017C       DCon10
 0002:00000180       CWNear
 0002:00000184       FMSecsPerDay
 0002:00000188       IMSecsPerDay
 0002:0000018C       Format
 0002:00000190       DefShortMonthNames
 0002:000001C0       DefLongMonthNames
 0002:000001F0       DefShortDayNames
 0002:0000020C       DefLongDayNames
 0002:00000228       ErrorMap
 0002:00000260       ExceptMap
 0002:00000310       WesternGroups
 0002:00000314       TerminateProcList
 0002:00000318       CResult
 0002:00000320       NullStrictConvert
 0002:00000324       NullAsStringValue
 0002:00000328       PackVarCreation
 0002:0000032C       BooleanToStringRule
 0002:00000330       CInvalidCustomVariantType
 0002:00000334       CRangeToType
 0002:00000348       CText
 0002:0000039C       CRelationshipToBoolean
 0002:000003B0       BooleanIdents
 0002:000003B8       DotSep
 0002:000003BC       AddDataModule
 0002:000003C4       RemoveDataModule
 0002:000003CC       ApplicationHandleException
 0002:000003D4       ApplicationShowException
 0002:000003DC       WakeMainThread
 0002:000003E4       FilerSignature
 0002:000003E8       NilMethod
 0002:000003F0       SyncList
 0002:000003F4       BlockCode
 0002:000003F8       UtilWindowClass
 0002:00000420       DefFontData
 0002:0000044C       DDBsOnly
 0002:00000450       Colors
 0002:000005F0       FontCharsets
 0002:00000680       DefPenData
 0002:00000690       PenStyles
 0002:000006A0       DefBrushData
 0002:000006B0       PenModes
 0002:000006D0       ClipboardFormats
 0002:000006D4       FileFormats
 0002:000006D8       BitmapCanvasList
 0002:000006DC       DIBPalSizes
 0002:000006E0       PalSize
 0002:000006E4       Pal16
 0002:00000724       FPrinter
 0002:00000728       CreationControl
 0002:0000072C       WndProcPtrAtom
 0002:00000730       Captions
 0002:00000744       ButtonNames
 0002:00000770       ButtonCaptions
 0002:0000079C       ColorToPretyName
 0002:00000914       BitBtnCaptions
 0002:00000940       Values
 0002:00000948       Values
 0002:00000950       MAPIDLL
 0002:00000954       MAPIModule
 0002:00000958       RTFConversionFormat
 0002:00000964       TextConversionFormat
 0002:00000970       ThemeServicesClass
 0002:00000974       Copyright
 0002:00000978       ThemeDataNames
 0002:000009D8       BorderStyles
 0002:000009E0       Passwords
 0002:000009E8       ReadOnlys
 0002:000009F0       CharCases
 0002:000009FC       HideSelections
 0002:00000A04       OEMConverts
 0002:00000A0C       Empty
 0002:00000A10       Alignments
 0002:00000A28       ScrollBar
 0002:00000A38       WordWraps
 0002:00000A40       ButtonStyles
 0002:00000A48       AnimateWindowProc
 0002:00000A4C       CreationControl
 0002:00000A50       DefaultDockTreeClass
 0002:00000A54       AnchorAlign
 0002:00000A5C       Cursors
 0002:00000B0C       CaptureControl
 0002:00000B10       ShowFlags
 0002:00000B14       WindowPos
 0002:00000B18       InnerStyles
 0002:00000B28       OuterStyles
 0002:00000B38       EdgeStyles
 0002:00000B48       Ctl3DStyles
 0002:00000B50       AnimationStyle
 0002:00000B5C       OrientArray
 0002:00000B64       MakeLast
 0002:00000B6C       TreeStreamEndFlag
 0002:00000B70       SizeCursors
 0002:00000B78       IMM32DLL
 0002:00000B7C       ModeMap
 0002:00000B84       DrawingStyles
 0002:00000B94       Images
 0002:00000B9C       Mask
 0002:00000BA4       ValidMenuHotkeys
 0002:00000BA8       cMenuAutoFlagToItem
 0002:00000BAC       cItemAutoFlagToMenu
 0002:00000BB0       cBooleanToItemAutoFlag
 0002:00000BB4       cItemAutoFlagToBoolean
 0002:00000BB8       MenuKeyCaps
 0002:00000C00       Checks
 0002:00000C08       Enables
 0002:00000C10       Breaks
 0002:00000C1C       Separators
 0002:00000C24       IBreaks
 0002:00000C30       IChecks
 0002:00000C38       IDefaults
 0002:00000C40       IEnables
 0002:00000C48       IRadios
 0002:00000C50       ISeparators
 0002:00000C58       IRTL
 0002:00000C60       IOwnerDraw
 0002:00000C68       Alignments
 0002:00000C70       EdgeStyle
 0002:00000C78       Alignments
 0002:00000C80       Flags
 0002:00000C8C       Buttons
 0002:00000C90       HintWindowClass
 0002:00000C94       SetLayeredWindowAttributes
 0002:00000C98       FocusMessages
 0002:00000C9C       FocusCount
 0002:00000CA0       TaskActiveWindow
 0002:00000CA4       TaskFirstWindow
 0002:00000CA8       TaskFirstTopMost
 0002:00000CAC       TaskWindowList
 0002:00000CB0       SysConsts
 0002:00000CB8       SysConsts
 0002:00000CC0       Props
 0002:00000CE8       Styles
 0002:00000CF4       ShowCommands
 0002:00000D00       ShowCommands
 0002:00000D0C       ShowCommands
 0002:00000D18       cUseAlpha
 0002:00000D20       cUseColorKey
 0002:00000D28       CursorMap
 0002:00000D7C       WindowClass
 0002:00000DA4       AppVisible
 0002:00000DA8       ShowFlags
 0002:00000DAC       super_hex_chars
 0002:00000DB0       ESC_BS
 0002:00000DB4       ESC_LF
 0002:00000DB8       ESC_CR
 0002:00000DBC       ESC_TAB
 0002:00000DC0       ESC_FF
 0002:00000DC4       ESC_QUOT
 0002:00000DC8       ESC_SL
 0002:00000DCC       ESC_SR
 0002:00000DD0       ESC_ZERO
 0002:00000DD4       TOK_CRLF
 0002:00000DD8       TOK_SP
 0002:00000DDC       TOK_BS
 0002:00000DE0       TOK_TAB
 0002:00000DE4       TOK_LF
 0002:00000DE8       TOK_FF
 0002:00000DEC       TOK_CR
 0002:00000DF0       TOK_NULL
 0002:00000DF4       TOK_CBL
 0002:00000DF8       TOK_CBR
 0002:00000DFC       TOK_ARL
 0002:00000E00       TOK_ARR
 0002:00000E04       TOK_ARRAY
 0002:00000E08       TOK_OBJ
 0002:00000E0C       TOK_COM
 0002:00000E10       TOK_DQT
 0002:00000E14       TOK_TRUE
 0002:00000E18       TOK_FALSE
 0002:00000E1C       ENDSTR_A
 0002:00000E20       ENDSTR_B
 0002:00002000       DispCallByIDProc
 0002:00002004       ExceptProc
 0002:00002008       ErrorProc
 0002:0000200C       ExceptClsProc
 0002:00002010       ExceptObjProc
 0002:00002014       RaiseExceptionProc
 0002:00002018       RTLUnwindProc
 0002:0000201C       ExceptionClass
 0002:00002020       AssertErrorProc
 0002:00002024       ExitProcessProc
 0002:00002028       AbstractErrorProc
 0002:0000202C       MainInstance
 0002:00002030       MainThreadID
 0002:00002034       IsLibrary
 0002:00002038       CmdShow
 0002:0000203C       CmdLine
 0002:00002040       InitProc
 0002:00002044       ExitProc
 0002:00002048       IsConsole
 0002:00002049       IsMultiThread
 0002:0000204A       Test8086
 0002:0000204C       Input
 0002:00002218       Output
 0002:000023E4       ErrOutput
 0002:000025B0       AllocMemCount
 0002:000025B4       AllocMemSize
 0002:000025B8       .5
 0002:000025BC       DefaultUserCodePage
 0002:000025C0       initialized
 0002:000025C4       heapErrorCode
 0002:000025C8       heapLock
 0002:000025E0       blockDescBlockList
 0002:000025E4       blockDescFreeList
 0002:000025E8       spaceRoot
 0002:000025F8       decommittedRoot
 0002:00002608       avail
 0002:00002614       rover
 0002:00002618       remBytes
 0002:0000261C       curAlloc
 0002:00002620       smallTab
 0002:00002624       committedRoot
 0002:00002634       InitContext
 0002:00002660       ModuleIsLib
 0002:00002661       ModuleIsCpp
 0002:00002664       HInstance
 0002:00002668       .1
 0002:0000266C       tlsBuffer
 0002:00002670       .1
 0002:00002674       .3
 0002:00002678       .1
 0002:0000267C       .1
 0002:00002680       CurrencyString
 0002:00002684       CurrencyFormat
 0002:00002685       NegCurrFormat
 0002:00002686       ThousandSeparator
 0002:00002687       DecimalSeparator
 0002:00002688       CurrencyDecimals
 0002:00002689       DateSeparator
 0002:0000268C       ShortDateFormat
 0002:00002690       LongDateFormat
 0002:00002694       TimeSeparator
 0002:00002698       TimeAMString
 0002:0000269C       TimePMString
 0002:000026A0       ShortTimeFormat
 0002:000026A4       LongTimeFormat
 0002:000026A8       ShortMonthNames
 0002:000026D8       LongMonthNames
 0002:00002708       ShortDayNames
 0002:00002724       LongDayNames
 0002:00002740       SysLocale
 0002:0000274E       ListSeparator
 0002:00002750       EraNames
 0002:0000276C       EraYearOffsets
 0002:00002788       TrueBoolStrs
 0002:0000278C       FalseBoolStrs
 0002:00002790       .35
 0002:00002794       OutOfMemory
 0002:00002798       InvalidPointer
 0002:0000279C       FLanguages
 0002:000027A0       VariantChangeTypeEx
 0002:000027A4       VarNeg
 0002:000027A8       VarNot
 0002:000027AC       VarAdd
 0002:000027B0       VarSub
 0002:000027B4       VarMul
 0002:000027B8       VarDiv
 0002:000027BC       VarIDiv
 0002:000027C0       VarMod
 0002:000027C4       VarAnd
 0002:000027C8       VarOr
 0002:000027CC       VarXor
 0002:000027D0       VarCmp
 0002:000027D4       VarI4FromStr
 0002:000027D8       VarR4FromStr
 0002:000027DC       VarR8FromStr
 0002:000027E0       VarDateFromStr
 0002:000027E4       VarCyFromStr
 0002:000027E8       VarBoolFromStr
 0002:000027EC       VarBstrFromCy
 0002:000027F0       VarBstrFromDate
 0002:000027F4       VarBstrFromBool
 0002:000027F8       .5
 0002:000027FC       EmptyParam
 0002:0000280C       VarDispProc
 0002:00002810       ClearAnyProc
 0002:00002814       ChangeAnyProc
 0002:00002818       RefAnyProc
 0002:0000281C       .81
 0002:00002820       LVarTypes
 0002:00002824       LVarTypeSync
 0002:0000283C       .1
 0002:00002840       .6
 0002:00002844       .3
 0002:00002848       GlobalNameSpace
 0002:0000284C       IsUniqueGlobalComponentNameProc
 0002:00002850       SyncEvent
 0002:00002854       .45
 0002:00002858       IntConstList
 0002:0000285C       RegGroups
 0002:00002860       FindGlobalComponentProcs
 0002:00002864       GlobalFixupList
 0002:00002868       ThreadLock
 0002:00002880       InstBlockList
 0002:00002884       InstFreeList
 0002:00002888       .1
 0002:0000288C       SystemPalette16
 0002:00002890       .12
 0002:00002894       ScreenLogPixels
 0002:00002898       StockPen
 0002:0000289C       StockBrush
 0002:000028A0       StockFont
 0002:000028A4       StockIcon
 0002:000028A8       BitmapImageLock
 0002:000028C0       CounterLock
 0002:000028D8       FontManager
 0002:000028DC       PenManager
 0002:000028E0       BrushManager
 0002:000028E4       CanvasList
 0002:000028E8       PatternManager
 0002:000028EC       .2
 0002:000028F0       .21
 0002:000028F4       .1
 0002:000028F8       GetSystemMetrics
 0002:000028FC       MonitorFromWindow
 0002:00002900       MonitorFromRect
 0002:00002904       MonitorFromPoint
 0002:00002908       GetMonitorInfo
 0002:0000290C       GetMonitorInfoA
 0002:00002910       GetMonitorInfoW
 0002:00002914       EnumDisplayMonitors
 0002:00002918       .1
 0002:0000291C       User32Dll
 0002:00002920       InitApis
 0002:00002928       MMAvailable
 0002:0000292C       .1
 0002:00002930       .2
 0002:00002934       HelpManager
 0002:00002938       .3
 0002:0000293C       .3
 0002:00002940       FlatSB_EnableScrollBar
 0002:00002944       FlatSB_ShowScrollBar
 0002:00002948       FlatSB_GetScrollRange
 0002:0000294C       FlatSB_GetScrollInfo
 0002:00002950       FlatSB_GetScrollPos
 0002:00002954       FlatSB_SetScrollPos
 0002:00002958       FlatSB_SetScrollInfo
 0002:0000295C       FlatSB_SetScrollRange
 0002:00002960       .1
 0002:00002964       _FlatSB_GetScrollProp
 0002:00002968       _FlatSB_SetScrollProp
 0002:0000296C       _InitializeFlatSB
 0002:00002970       _UninitializeFlatSB
 0002:00002974       .6
 0002:00002978       OpenThemeData
 0002:0000297C       CloseThemeData
 0002:00002980       DrawThemeBackground
 0002:00002984       DrawThemeText
 0002:00002988       GetThemeBackgroundContentRect
 0002:0000298C       GetThemeBackgroundExtent
 0002:00002990       GetThemePartSize
 0002:00002994       GetThemeTextExtent
 0002:00002998       GetThemeTextMetrics
 0002:0000299C       GetThemeBackgroundRegion
 0002:000029A0       HitTestThemeBackground
 0002:000029A4       DrawThemeEdge
 0002:000029A8       DrawThemeIcon
 0002:000029AC       IsThemePartDefined
 0002:000029B0       IsThemeBackgroundPartiallyTransparent
 0002:000029B4       GetThemeColor
 0002:000029B8       GetThemeMetric
 0002:000029BC       GetThemeString
 0002:000029C0       GetThemeBool
 0002:000029C4       GetThemeInt
 0002:000029C8       GetThemeEnumValue
 0002:000029CC       GetThemePosition
 0002:000029D0       GetThemeFont
 0002:000029D4       GetThemeRect
 0002:000029D8       GetThemeMargins
 0002:000029DC       GetThemeIntList
 0002:000029E0       GetThemePropertyOrigin
 0002:000029E4       SetWindowTheme
 0002:000029E8       GetThemeFilename
 0002:000029EC       GetThemeSysColor
 0002:000029F0       GetThemeSysColorBrush
 0002:000029F4       GetThemeSysBool
 0002:000029F8       GetThemeSysSize
 0002:000029FC       GetThemeSysFont
 0002:00002A00       GetThemeSysString
 0002:00002A04       GetThemeSysInt
 0002:00002A08       IsThemeActive
 0002:00002A0C       IsAppThemed
 0002:00002A10       GetWindowTheme
 0002:00002A14       EnableThemeDialogTexture
 0002:00002A18       IsThemeDialogTextureEnabled
 0002:00002A1C       GetThemeAppProperties
 0002:00002A20       SetThemeAppProperties
 0002:00002A24       GetCurrentThemeName
 0002:00002A28       GetThemeDocumentationProperty
 0002:00002A2C       DrawThemeParentBackground
 0002:00002A30       EnableTheming
 0002:00002A34       .1
 0002:00002A38       ThemeLibrary
 0002:00002A3C       ReferenceCount
 0002:00002A40       Lock
 0002:00002A44       .1
 0002:00002A48       .4
 0002:00002A4C       .1
 0002:00002A50       .1
 0002:00002A54       .1
 0002:00002A58       .1
 0002:00002A5C       .1
 0002:00002A60       .1
 0002:00002A64       .1
 0002:00002A68       .11
 0002:00002A6C       HelpMsg
 0002:00002A70       FindMsg
 0002:00002A74       .12
 0002:00002A78       .1
 0002:00002A7C       CF_PICTURE
 0002:00002A7E       CF_COMPONENT
 0002:00002A80       .2
 0002:00002A84       FClipboard
 0002:00002A88       .1
 0002:00002A8C       .4
 0002:00002A90       BitBtnGlyphs
 0002:00002ABC       .3
 0002:00002AC0       .8
 0002:00002AC4       .5
 0002:00002AC8       .1
 0002:00002ACC       .72
 0002:00002AD0       UrlMonHandle
 0002:00002AD4       UrlMonInitialized
 0002:00002AD8       .8
 0002:00002ADC       .36
 0002:00002AE0       ShellModule
 0002:00002AE4       FRichEditModule
 0002:00002AE8       ComCtlVersion
 0002:00002AEC       .2
 0002:00002AF0       InternalServices
 0002:00002AF4       .42
 0002:00002AF8       .73
 0002:00002AFC       WinHelpTester
 0002:00002B00       ViewerName
 0002:00002B04       .1
 0002:00002B08       HelpViewer
 0002:00002B0C       HelpViewerIntf
 0002:00002B10       Mouse
 0002:00002B14       NewStyleControls
 0002:00002B18       .72
 0002:00002B1C       WindowAtom
 0002:00002B1E       ControlAtom
 0002:00002B20       WindowAtomString
 0002:00002B24       ControlAtomString
 0002:00002B28       RM_GetObjectInstance
 0002:00002B2C       DragControl
 0002:00002B30       DragObject
 0002:00002B34       DragInternalObject
 0002:00002B38       DragCapture
 0002:00002B3C       DragStartPos
 0002:00002B44       DragSaveCursor
 0002:00002B48       DragThreshold
 0002:00002B4C       ActiveDrag
 0002:00002B50       DragImageList
 0002:00002B54       DockSiteList
 0002:00002B58       QualifyingSites
 0002:00002B5C       DragSave
 0002:00002B60       CanvasList
 0002:00002B64       _WINNLSEnableIME
 0002:00002B68       _ImmGetContext
 0002:00002B6C       _ImmReleaseContext
 0002:00002B70       _ImmGetConversionStatus
 0002:00002B74       _ImmSetConversionStatus
 0002:00002B78       _ImmSetOpenStatus
 0002:00002B7C       _ImmSetCompositionWindow
 0002:00002B80       _ImmSetCompositionFont
 0002:00002B84       _ImmGetCompositionString
 0002:00002B88       _ImmIsIME
 0002:00002B8C       _ImmNotifyIME
 0002:00002B90       .8
 0002:00002B94       .3
 0002:00002B98       CachedComCtrlVer
 0002:00002B9C       ImageListWriteExProc
 0002:00002BA0       PopupList
 0002:00002BA4       ShortCutItems
 0002:00002BA8       .9
 0002:00002BAC       CommandPool
 0002:00002BB0       Application
 0002:00002BB4       Screen
 0002:00002BB8       .41
 0002:00002BBC       RM_TaskbarCreated
 0002:00002BC0       HintThreadID
 0002:00002BC4       HintDoneEvent
 0002:00002BC8       HintHook
 0002:00002BCC       HintThread
 0002:00002BD0       .1
 0002:00002BD4       .1
 0002:00002BD8       .81
 0002:00002BDC       PPDemo_Frm
 0002:00002BE0       .2


Line numbers for System(system.pas) segment .text

   295 0001:00000154  2165 0001:00000204  2168 0001:0000020C  2172 0001:00000214
  2179 0001:0000021C  2182 0001:00000224  2185 0001:0000022C  2196 0001:00000234
  2199 0001:0000023C  2205 0001:00000244  2208 0001:0000024C  2211 0001:00000254
  2214 0001:0000025C  2226 0001:00000264  2230 0001:0000026C  2233 0001:00000274
  2236 0001:0000027C  2239 0001:00000284  2242 0001:0000028C  2245 0001:00000294
  2249 0001:0000029C  2259 0001:000002A4  2262 0001:000002AC  2266 0001:000002B4
  2269 0001:000002BC  2273 0001:000002C4  2277 0001:000002CC  2288 0001:000002D4
  2292 0001:000002DC  2298 0001:000002E4  2302 0001:000002EC  2305 0001:000002F4
  2311 0001:000002FC  2314 0001:00000304  2317 0001:0000030C  2320 0001:00000314
  2332 0001:0000031C  2333 0001:00000320  2334 0001:00000325  2335 0001:0000032B
  2336 0001:00000332  2337 0001:00000339

Line numbers for System(GETMEM.INC) segment .text

    47 0001:00000340    49 0001:00000348    53 0001:00000350    55 0001:00000358
    58 0001:00000360    60 0001:00000368    62 0001:00000370    64 0001:00000378
   129 0001:00000380   130 0001:00000387   131 0001:0000038C   132 0001:0000039A
   133 0001:0000039E   134 0001:000003A0   136 0001:000003A3   137 0001:000003AA
   138 0001:000003B0   139 0001:000003B2   140 0001:000003BA   141 0001:000003BE
   142 0001:000003C0   138 0001:000003C1   144 0001:000003C6   145 0001:000003C8
   147 0001:000003CC   152 0001:000003D0   153 0001:000003D2   154 0001:000003D5
   160 0001:000003D8   161 0001:000003DE   162 0001:000003E3   163 0001:000003E7
   165 0001:000003EC   166 0001:000003F1   168 0001:000003F7   169 0001:000003F9
   170 0001:000003FB   171 0001:000003FE   172 0001:00000401   174 0001:00000403
   176 0001:00000405   183 0001:00000408   184 0001:0000040B   185 0001:0000040D
   186 0001:0000040F   187 0001:00000412   188 0001:0000041A   189 0001:0000041F
   195 0001:00000420   196 0001:0000042C   197 0001:0000042F   199 0001:0000043C
   200 0001:0000043E   201 0001:0000044A   202 0001:00000451   203 0001:00000456
   204 0001:0000045E   205 0001:00000466   206 0001:0000046D   208 0001:00000473
   209 0001:00000475   210 0001:00000479   211 0001:00000486   212 0001:0000048A
   219 0001:00000490   220 0001:00000499   222 0001:0000049B   223 0001:000004B2
   224 0001:000004B6   225 0001:000004BC   226 0001:000004C2   227 0001:000004C8
   228 0001:000004D1   229 0001:000004E1   231 0001:000004E6   232 0001:000004EE
   233 0001:000004FA   234 0001:000004FF   235 0001:0000050C   236 0001:0000050E
   239 0001:00000510   240 0001:00000512   242 0001:00000514   243 0001:00000516
   244 0001:0000051A   245 0001:0000051C   266 0001:00000524   267 0001:0000052B
   268 0001:00000533   270 0001:0000053A   272 0001:00000546   273 0001:00000549
   274 0001:0000055C   277 0001:00000560   278 0001:00000570   279 0001:0000057F
   282 0001:00000583   289 0001:00000588   290 0001:00000592   291 0001:00000599
   292 0001:000005AF   293 0001:000005B3   294 0001:000005BF   295 0001:000005C2
   297 0001:000005D2   298 0001:000005D7   299 0001:000005E7   300 0001:000005F6
   303 0001:000005FA   312 0001:00000600   313 0001:0000060E   314 0001:00000616
   315 0001:0000061C   316 0001:0000061E   317 0001:00000627   319 0001:0000062F
   320 0001:00000631   321 0001:00000643   322 0001:00000649   323 0001:0000064D
   324 0001:00000658   325 0001:0000065C   326 0001:0000066D   327 0001:00000677
   329 0001:0000067E   318 0001:00000680   331 0001:00000688   332 0001:00000690
   333 0001:00000697   334 0001:000006A1   336 0001:000006B0   346 0001:000006B8
   347 0001:000006C6   348 0001:000006D0   349 0001:000006E3   350 0001:000006E9
   351 0001:000006F6   354 0001:000006FE   355 0001:00000701   356 0001:00000706
   357 0001:0000070A   358 0001:0000070C   359 0001:00000712   360 0001:00000716
   361 0001:0000071A   362 0001:0000072E   363 0001:00000736   366 0001:00000738
   352 0001:0000073A   368 0001:00000742   377 0001:0000074C   378 0001:00000751
   379 0001:00000764   380 0001:0000076E   381 0001:00000773   382 0001:0000077B
   385 0001:00000783   386 0001:00000786   387 0001:0000078B   388 0001:00000790
   389 0001:00000793   390 0001:00000797   391 0001:00000799   392 0001:0000079D
   393 0001:000007AF   395 0001:000007B9   383 0001:000007BB   397 0001:000007C3
   416 0001:000007CC   417 0001:000007DC   419 0001:000007E8   421 0001:000007ED
   422 0001:000007F2   423 0001:000007FE   425 0001:00000803   426 0001:00000809
   427 0001:0000080F   428 0001:00000815   429 0001:0000081C   431 0001:0000081E
   420 0001:00000820   433 0001:00000824   434 0001:0000082D   436 0001:00000832
   437 0001:00000843   438 0001:0000084F   442 0001:00000853   452 0001:0000085C
   453 0001:0000086F   456 0001:0000087B   458 0001:00000880   457 0001:00000882
   460 0001:0000088B   461 0001:00000890   463 0001:00000899   464 0001:000008AD
   465 0001:000008B4   468 0001:000008CA   469 0001:000008DB   470 0001:000008E2
   475 0001:000008E7   476 0001:000008F4   479 0001:000008FB   480 0001:00000915
   481 0001:00000926   482 0001:0000092D   486 0001:0000092F   487 0001:0000093B
   488 0001:00000947   490 0001:0000094F   491 0001:00000958   492 0001:00000961
   493 0001:00000967   495 0001:00000970   496 0001:00000977   505 0001:00000980
   506 0001:0000098B   507 0001:00000997   508 0001:000009A2   509 0001:000009A6
   510 0001:000009B3   511 0001:000009C3   512 0001:000009CB   513 0001:000009EA
   514 0001:000009F1   516 0001:00000A01   517 0001:00000A05   562 0001:00000A0C
   563 0001:00000A0F   564 0001:00000A1D   565 0001:00000A27   567 0001:00000A3A
   568 0001:00000A44   569 0001:00000A4E   571 0001:00000A58   572 0001:00000A69
   573 0001:00000A72   574 0001:00000A77   573 0001:00000A84   576 0001:00000A8B
   577 0001:00000A90   578 0001:00000A93   579 0001:00000A95   581 0001:00000A9A
   584 0001:00000AAE   586 0001:00000AC9   587 0001:00000ACE   595 0001:00000AD0
   596 0001:00000AD4   597 0001:00000AE1   598 0001:00000AEF   600 0001:00000B02
   602 0001:00000B09   603 0001:00000B14   605 0001:00000B1B   607 0001:00000B23
   608 0001:00000B33   606 0001:00000B35   611 0001:00000B3D   612 0001:00000B47
   613 0001:00000B51   615 0001:00000B5B   616 0001:00000B60   617 0001:00000B64
   618 0001:00000B6C   619 0001:00000B72   616 0001:00000B77   622 0001:00000B88
   623 0001:00000B9B   626 0001:00000BAD   633 0001:00000BB0   634 0001:00000BB1
   635 0001:00000BB9   636 0001:00000BC2   637 0001:00000BC5   638 0001:00000BC8
   639 0001:00000BD0   640 0001:00000BD4   642 0001:00000BEB   643 0001:00000BFF
   644 0001:00000C01   645 0001:00000C03   648 0001:00000C08   649 0001:00000C0A
   650 0001:00000C0C   652 0001:00000C0F   660 0001:00000C14   662 0001:00000C1C
   664 0001:00000C2A   661 0001:00000C2C   666 0001:00000C34   667 0001:00000C3E
   668 0001:00000C42   675 0001:00000C44   676 0001:00000C45   677 0001:00000C4A
   678 0001:00000C4D   679 0001:00000C52   680 0001:00000C58   681 0001:00000C61
   682 0001:00000C66   683 0001:00000C70   685 0001:00000C72   690 0001:00000C74
   691 0001:00000C7A   692 0001:00000C90   693 0001:00000C95   698 0001:00000C98
   699 0001:00000C9D   700 0001:00000CA2   702 0001:00000CAB   703 0001:00000CB0
   704 0001:00000CBA   705 0001:00000CBC   707 0001:00000CBF   715 0001:00000CC0
   716 0001:00000CC2   717 0001:00000CC9   718 0001:00000CD9   719 0001:00000CE3
   720 0001:00000CEB   721 0001:00000CED   722 0001:00000CF9   723 0001:00000D03
   724 0001:00000D08   725 0001:00000D10   726 0001:00000D12   727 0001:00000D17
   728 0001:00000D21   729 0001:00000D26   731 0001:00000D2A   738 0001:00000D30
   739 0001:00000D35   740 0001:00000D37   741 0001:00000D39   742 0001:00000D40
   743 0001:00000D45   744 0001:00000D47   745 0001:00000D49   747 0001:00000D4B
   748 0001:00000D4F   749 0001:00000D51   750 0001:00000D58   751 0001:00000D5D
   752 0001:00000D5F   754 0001:00000D64   761 0001:00000D68   762 0001:00000D73
   763 0001:00000D77   764 0001:00000D80   765 0001:00000D88   766 0001:00000D9C
   768 0001:00000DA0   769 0001:00000DA9   771 0001:00000DBD   773 0001:00000DCE
   775 0001:00000DD6   776 0001:00000DE1   777 0001:00000DF1   778 0001:00000DFB
   779 0001:00000E06   781 0001:00000E0D   787 0001:00000E18   788 0001:00000E1F
   789 0001:00000E21   790 0001:00000E24   791 0001:00000E2E   792 0001:00000E36
   793 0001:00000E4B   794 0001:00000E4F   795 0001:00000E58   796 0001:00000E5B
   798 0001:00000E5F   799 0001:00000E61   800 0001:00000E64   801 0001:00000E66
   802 0001:00000E68   804 0001:00000E6D   805 0001:00000E82   806 0001:00000E87
   807 0001:00000E8D   808 0001:00000E8F   809 0001:00000E92   810 0001:00000E94
   811 0001:00000E96   813 0001:00000E99   818 0001:00000EA0   819 0001:00000EA9
   820 0001:00000EB2   822 0001:00000EBE   823 0001:00000ECE   824 0001:00000EDB
   825 0001:00000EE2   828 0001:00000EE9   835 0001:00000EEC   836 0001:00000EFB
   837 0001:00000F00   838 0001:00000F10   839 0001:00000F18   840 0001:00000F1A
   843 0001:00000F1C   844 0001:00000F22   845 0001:00000F27   846 0001:00000F29
   849 0001:00000F2C   850 0001:00000F3B   851 0001:00000F40   854 0001:00000F43
   855 0001:00000F4C   856 0001:00000F59   859 0001:00000F5D   860 0001:00000F64
   862 0001:00000F6C   863 0001:00000F6E   869 0001:00000F78   870 0001:00000F7E
   871 0001:00000F88   872 0001:00000F9F   878 0001:00000FA4   879 0001:00000FAD
   880 0001:00000FB9   881 0001:00000FD0   888 0001:00000FD8   889 0001:00000FDA
   890 0001:00000FEB   891 0001:00000FF5   893 0001:00000FF9   889 0001:00000FFA
   894 0001:00001003   900 0001:00001004   904 0001:00001014   905 0001:0000101A
   908 0001:00001023   909 0001:00001025   913 0001:0000102C   915 0001:0000102F
   916 0001:00001032   917 0001:00001037   918 0001:0000103C   919 0001:00001040
   920 0001:00001042   923 0001:00001044   924 0001:0000104C   925 0001:00001055
   929 0001:00001059   930 0001:00001064   931 0001:00001066   934 0001:0000106B
   935 0001:00001070   936 0001:00001073   937 0001:00001079   938 0001:0000107C
   940 0001:00001081   941 0001:00001086   942 0001:0000108C   943 0001:00001093
   944 0001:00001096   945 0001:0000109C   946 0001:000010A5   951 0001:000010A7
   953 0001:000010AE   954 0001:000010B5   955 0001:000010BA   957 0001:000010C6
   958 0001:000010C8   959 0001:000010CC   960 0001:000010D1   961 0001:000010D5
   964 0001:000010D8   965 0001:000010DA   967 0001:000010E1   968 0001:000010E4
   969 0001:000010EA   971 0001:000010F3   979 0001:000010F8   981 0001:00001103
   984 0001:0000111D   985 0001:00001122   989 0001:00001127   990 0001:00001135
   992 0001:00001148   993 0001:0000114B   994 0001:0000114E   995 0001:00001153
   997 0001:00001158   998 0001:00001164   999 0001:0000117A  1000 0001:0000117E
  1001 0001:00001184  1002 0001:00001187  1003 0001:0000118A  1004 0001:0000118E
  1006 0001:000011A8  1007 0001:000011BE  1008 0001:000011C3  1009 0001:000011C9
  1011 0001:000011CE  1012 0001:000011D0  1013 0001:000011D8  1014 0001:000011DE
  1015 0001:000011E4  1016 0001:000011ED  1020 0001:000011F7  1021 0001:000011FF
  1022 0001:00001205  1023 0001:0000120E  1024 0001:00001214  1026 0001:0000121B
  1027 0001:00001220  1028 0001:00001226  1029 0001:0000122D  1030 0001:00001233
  1031 0001:00001239  1032 0001:00001242  1035 0001:00001249  1038 0001:00001260
  1041 0001:0000127E  1052 0001:00001288  1053 0001:00001291  1055 0001:00001298
  1056 0001:000012AA  1057 0001:000012B4  1058 0001:000012BB  1061 0001:000012C0
  1062 0001:000012CE  1064 0001:000012E1  1065 0001:000012E3  1066 0001:000012E6
  1070 0001:000012E8  1071 0001:000012ED  1072 0001:000012F7  1077 0001:000012FC
  1078 0001:00001302  1080 0001:00001312  1082 0001:00001317  1083 0001:0000131F
  1084 0001:0000132C  1085 0001:00001336  1088 0001:0000133B  1089 0001:0000133F
  1090 0001:00001344  1091 0001:0000134E  1094 0001:00001353  1095 0001:00001355
  1096 0001:00001357  1099 0001:0000135C  1102 0001:00001362  1105 0001:00001366
  1107 0001:00001370  1108 0001:00001376  1109 0001:0000137C  1110 0001:00001388
  1111 0001:0000138D  1112 0001:00001392  1115 0001:0000139C  1117 0001:000013A3
  1118 0001:000013AE  1119 0001:000013B8  1121 0001:000013BA  1124 0001:000013BF
  1125 0001:000013C1  1126 0001:000013D2  1127 0001:000013DC  1129 0001:000013DE
  1130 0001:000013E1  1131 0001:000013E3  1135 0001:000013E8  1137 0001:000013F1
  1139 0001:00001406  1141 0001:00001424  1146 0001:0000142C  1147 0001:00001435
  1148 0001:00001438  1149 0001:0000143B  1150 0001:00001440  1151 0001:00001445
  1152 0001:0000144A  1153 0001:00001453  1154 0001:00001459  1156 0001:0000145D
  1157 0001:0000145F  1159 0001:00001464  1160 0001:0000146C  1161 0001:00001473
  1162 0001:0000147B  1163 0001:00001484  1164 0001:0000148D  1165 0001:0000149A
  1166 0001:000014A3  1167 0001:000014AC  1170 0001:000014B3  1171 0001:000014B5
  1172 0001:000014BA  1173 0001:000014BC  1174 0001:000014C2  1176 0001:000014C7
  1177 0001:000014CD  1178 0001:000014D1  1179 0001:000014D9  1181 0001:000014E8
  1185 0001:000014EF  1186 0001:000014F7  1187 0001:000014FF  1188 0001:0000150A
  1189 0001:00001514  1190 0001:0000151E  1191 0001:00001527  1192 0001:00001532
  1193 0001:00001538  1195 0001:0000153F  1196 0001:00001549  1197 0001:00001556
  1198 0001:00001558  1200 0001:0000155D  1201 0001:00001562  1205 0001:00001566
  1206 0001:0000156B  1207 0001:0000156F  1208 0001:00001575  1209 0001:0000157E
  1210 0001:00001583  1212 0001:0000158C  1213 0001:00001591  1214 0001:00001598
  1215 0001:0000159E  1217 0001:000015AC  1218 0001:000015AF  1219 0001:000015B3
  1221 0001:000015B6  1225 0001:000015B8  1226 0001:000015C1  1227 0001:000015CA
  1228 0001:000015D9  1229 0001:000015DD  1233 0001:000015E2  1234 0001:000015E4
  1240 0001:000015E6  1241 0001:000015F0  1242 0001:000015FD  1244 0001:000015FF
  1251 0001:00001608  1253 0001:00001613  1254 0001:00001625  1255 0001:0000162A
  1258 0001:0000162F  1259 0001:0000163D  1261 0001:00001650  1262 0001:0000165D
  1264 0001:00001662  1265 0001:0000166B  1266 0001:0000167A  1267 0001:0000167E
  1268 0001:00001680  1269 0001:00001684  1270 0001:0000168E  1272 0001:00001695
  1275 0001:000016A5  1278 0001:000016C3

Line numbers for System(system.pas) segment .text

  2437 0001:000016CC  2438 0001:000016CD  2447 0001:000016D1  2448 0001:000016D9
  2449 0001:000016DD  2453 0001:000016E6  2454 0001:000016EA  2464 0001:000016EC
  2465 0001:000016ED  2474 0001:000016F1  2476 0001:000016F9  2477 0001:000016FD
  2480 0001:00001706  2481 0001:0000170A  2526 0001:0000170C  2527 0001:0000170E
  2528 0001:00001710  2529 0001:00001712  2530 0001:00001714  2532 0001:00001716
  2533 0001:00001717  2534 0001:00001719  2535 0001:0000171F  2536 0001:00001720
  2537 0001:00001722  2538 0001:00001724  2539 0001:00001726  2541 0001:00001727
  2542 0001:00001729  2544 0001:0000172E  2545 0001:00001730  2546 0001:00001732
  2547 0001:00001738  2548 0001:0000173A  2549 0001:0000173C  2551 0001:0000173D
  2552 0001:0000173F  2554 0001:00001744  2555 0001:00001746  2556 0001:00001748
  2557 0001:00001749  2558 0001:0000174B  2559 0001:00001751  2560 0001:00001752
  2561 0001:00001754  2562 0001:00001756  2564 0001:00001758  2913 0001:0000175C
  2914 0001:0000176A  2916 0001:00001779  2917 0001:0000177B  2923 0001:0000177C
  2924 0001:0000178A  2926 0001:00001799  2927 0001:0000179B  2931 0001:0000179C
  2932 0001:0000179E  2934 0001:000017AC  2935 0001:000017BA  2938 0001:000017C6
  2939 0001:000017CA  2977 0001:000017D0  2978 0001:000017D6  2979 0001:000017DB
  3021 0001:000017DC  3022 0001:000017E2  3023 0001:000017E5  3024 0001:000017EE
  3025 0001:000017F8  3026 0001:000017FC  3027 0001:00001809  3028 0001:0000180E
  3029 0001:00001818  3030 0001:00001823  3034 0001:00001828  3035 0001:0000182B
  3036 0001:0000182E  3037 0001:00001833  3041 0001:00001834  3042 0001:00001835
  3043 0001:00001836  3044 0001:00001837  3045 0001:0000183C  3046 0001:00001843
  3047 0001:00001844  3048 0001:00001845  3049 0001:00001846  3050 0001:00001848
  3052 0001:00001849  3053 0001:0000184B  3054 0001:00001850  3057 0001:00001854
  3058 0001:00001857  3059 0001:00001862  3089 0001:00001864  3090 0001:00001865
  3092 0001:00001866  3093 0001:00001868  3095 0001:0000186C  3096 0001:0000186E
  3097 0001:00001870  3101 0001:00001872  3102 0001:00001874  3103 0001:00001876
  3104 0001:00001878  3109 0001:0000187A  3110 0001:0000187C  3111 0001:0000187D
  3112 0001:0000187F  3113 0001:00001881  3114 0001:00001883  3117 0001:00001885
  3119 0001:00001887  3120 0001:00001889  3121 0001:0000188A  3122 0001:0000188C
  3125 0001:0000188E  3126 0001:00001893  3131 0001:00001895  3132 0001:00001897
  3134 0001:00001899  3135 0001:0000189B  3137 0001:0000189D  3139 0001:0000189F
  3140 0001:000018A0  3141 0001:000018A1  3142 0001:000018A4  3309 0001:000018A8
  3310 0001:000018A9  3311 0001:000018B4  3312 0001:000018C3  3352 0001:000018C8
  3353 0001:000018C9  3355 0001:000018CA  3356 0001:000018CC  3358 0001:000018CE
  3360 0001:000018D0  3361 0001:000018D2  3362 0001:000018D4  3364 0001:000018D6
  3365 0001:000018D9  3367 0001:000018DB  3369 0001:000018DD  3370 0001:000018DF
  3371 0001:000018E2  3372 0001:000018E4  3375 0001:000018E7  3376 0001:000018EB
  3378 0001:000018EF  3379 0001:000018F2  3380 0001:000018F4  3381 0001:000018F5
  3383 0001:000018F7  3384 0001:000018F9  3385 0001:000018FC  3386 0001:000018FF
  3387 0001:00001902  3388 0001:00001904  3390 0001:00001905  3391 0001:00001906
  3392 0001:00001907  3400 0001:00001908  3404 0001:00001912  3403 0001:0000191A
  3405 0001:00001924  3401 0001:00001932  3407 0001:00001934  3408 0001:00001936
  3411 0001:0000193A  3413 0001:0000193E  3416 0001:00001948  3417 0001:0000194E
  3418 0001:00001954  3414 0001:00001956  3420 0001:00001960  3421 0001:00001965
  3425 0001:0000196F  3426 0001:00001975  3427 0001:0000197B  3409 0001:0000197D
  3431 0001:00001983  3433 0001:0000198C  3434 0001:0000198E  3435 0001:00001990
  3438 0001:00001994  3440 0001:00001998  3443 0001:000019A2  3444 0001:000019A8
  3446 0001:000019AC  3447 0001:000019B1  3448 0001:000019B2  3444 0001:000019B3
  3441 0001:000019B7  3451 0001:000019C1  3455 0001:000019D0  3456 0001:000019D6
  3458 0001:000019DA  3459 0001:000019DF  3460 0001:000019E0  3456 0001:000019E1
  3436 0001:000019E5  3465 0001:000019EB  3466 0001:000019ED  3500 0001:000019F4
  3501 0001:00001A01  3502 0001:00001A08  3503 0001:00001A0C  3506 0001:00001A2A
  3509 0001:00001A31  3510 0001:00001A3C  3511 0001:00001A45  3507 0001:00001A46
  3522 0001:00001A48  3591 0001:00001A54  3592 0001:00001A56  3647 0001:00001A58
  3648 0001:00001A5A  3649 0001:00001A5C  3650 0001:00001A5E  3651 0001:00001A60
  3653 0001:00001A62  3658 0001:00001A64  3660 0001:00001A6A  3665 0001:00001A6C
  3668 0001:00001A72  3672 0001:00001A74  3673 0001:00001A76  3674 0001:00001A79
  3675 0001:00001A7A  3758 0001:00001A7C  3759 0001:00001A7F  3760 0001:00001A82
  3761 0001:00001A83  3762 0001:00001A84  3763 0001:00001A85  3793 0001:00001A88
  3794 0001:00001A8F  3795 0001:00001A91  3798 0001:00001A97  3799 0001:00001A9C
  3800 0001:00001AA1  4377 0001:00001AA4  4378 0001:00001AA5  4380 0001:00001AB7
  4381 0001:00001ABF  4383 0001:00001AC3  4384 0001:00001AD1  4386 0001:00001AD5
  4388 0001:00001ADA  4389 0001:00001AE7  4393 0001:00001AEC  4394 0001:00001AF4
  4471 0001:00001AF8  4472 0001:00001AFC  4473 0001:00001AFE  4475 0001:00001B0E
  4476 0001:00001B18  4477 0001:00001B1F  4478 0001:00001B23  4479 0001:00001B2A
  4480 0001:00001B2E  4483 0001:00001B37  4484 0001:00001B3F  4485 0001:00001B4B
  4603 0001:00001B50  4604 0001:00001B51  4605 0001:00001B57  4606 0001:00001B59
  4607 0001:00001B5B  4608 0001:00001B69  4615 0001:00001B6C  4616 0001:00001B6D
  4617 0001:00001B6E  4619 0001:00001B6F  4620 0001:00001B71  4622 0001:00001B73
  4623 0001:00001B75  4624 0001:00001B77  4625 0001:00001B79  4626 0001:00001B7B
  4627 0001:00001B7C  4629 0001:00001B7D  4630 0001:00001B7F  4631 0001:00001B81
  4634 0001:00001B83  4635 0001:00001B84  4636 0001:00001B87  4638 0001:00001B89
  4639 0001:00001B8B  4640 0001:00001B8D  4641 0001:00001B8F  4642 0001:00001B91
  4643 0001:00001B92  4644 0001:00001B94  4645 0001:00001B97  4646 0001:00001B9A
  4647 0001:00001B9C  4648 0001:00001B9E  4649 0001:00001BA1  4650 0001:00001BA4
  4651 0001:00001BA5  4652 0001:00001BA7  4654 0001:00001BA9  4655 0001:00001BAC
  4657 0001:00001BAF  4658 0001:00001BB0  4659 0001:00001BB3  4661 0001:00001BB5
  4662 0001:00001BB7  4663 0001:00001BB9  4664 0001:00001BBB  4665 0001:00001BBC
  4666 0001:00001BBE  4667 0001:00001BC1  4668 0001:00001BC4  4669 0001:00001BC6
  4670 0001:00001BC7  4671 0001:00001BC9  4672 0001:00001BCC  4673 0001:00001BCF
  4676 0001:00001BD1  4677 0001:00001BD3  4680 0001:00001BD5  4681 0001:00001BD6
  4682 0001:00001BD8  4683 0001:00001BDA  4684 0001:00001BDC  4685 0001:00001BDE
  4686 0001:00001BE1  4687 0001:00001BE4  4688 0001:00001BE6  4689 0001:00001BE8
  4692 0001:00001BEA  4693 0001:00001BEB  4694 0001:00001BEC  4695 0001:00001BED
  4703 0001:00001BF0  4704 0001:00001BF1  4705 0001:00001BF2  4706 0001:00001BF3
  4707 0001:00001BF5  4708 0001:00001BF8  4711 0001:00001BFA  4712 0001:00001BFC
  4713 0001:00001BFE  4714 0001:00001C00  4715 0001:00001C02  4716 0001:00001C03
  4717 0001:00001C05  4718 0001:00001C08  4719 0001:00001C0B  4720 0001:00001C0D
  4721 0001:00001C0F  4722 0001:00001C12  4723 0001:00001C15  4724 0001:00001C16
  4725 0001:00001C18  4727 0001:00001C1A  4728 0001:00001C1D  4730 0001:00001C20
  4731 0001:00001C21  4732 0001:00001C24  4734 0001:00001C26  4735 0001:00001C28
  4736 0001:00001C2A  4737 0001:00001C2C  4738 0001:00001C2D  4739 0001:00001C2F
  4740 0001:00001C32  4741 0001:00001C35  4742 0001:00001C37  4743 0001:00001C38
  4744 0001:00001C3A  4745 0001:00001C3D  4746 0001:00001C40  4749 0001:00001C42
  4750 0001:00001C44  4753 0001:00001C47  4754 0001:00001C48  4755 0001:00001C4A
  4756 0001:00001C4C  4757 0001:00001C4E  4758 0001:00001C50  4759 0001:00001C53
  4760 0001:00001C56  4761 0001:00001C58  4762 0001:00001C5A  4765 0001:00001C5C
  4766 0001:00001C5D  4767 0001:00001C5E  5073 0001:00001C60  5075 0001:00001C61
  5077 0001:00001C63  5078 0001:00001C65  5079 0001:00001C67  5080 0001:00001C6A
  5082 0001:00001C6D  5083 0001:00001C6F  5084 0001:00001C72  5086 0001:00001C74
  5088 0001:00001C76  5089 0001:00001C78  5090 0001:00001C7B  5093 0001:00001C7D
  5094 0001:00001C7E  6266 0001:00001C80  6267 0001:00001C81  6268 0001:00001C82
  6270 0001:00001C83  6271 0001:00001C85  6273 0001:00001C86  6274 0001:00001C88
  6276 0001:00001C8A  6277 0001:00001C8C  6278 0001:00001C8E  6281 0001:00001C93
  6282 0001:00001C95  6283 0001:00001C96  6284 0001:00001C99  6287 0001:00001C9B
  6288 0001:00001C9D  6289 0001:00001CA0  6290 0001:00001CA2  6291 0001:00001CA5
  6294 0001:00001CA7  6295 0001:00001CAA  6297 0001:00001CAC  6298 0001:00001CAF
  6299 0001:00001CB1  6300 0001:00001CB4  6301 0001:00001CB6  6302 0001:00001CB9
  6303 0001:00001CBB  6304 0001:00001CBD  6305 0001:00001CBE  6306 0001:00001CC1
  6307 0001:00001CC3  6308 0001:00001CC6  6309 0001:00001CC8  6310 0001:00001CCA
  6311 0001:00001CCC  6314 0001:00001CCE  6315 0001:00001CD0  6318 0001:00001CD2
  6319 0001:00001CD5  6320 0001:00001CD8  6321 0001:00001CDA  6322 0001:00001CDC
  6323 0001:00001CDE  6324 0001:00001CE1  6325 0001:00001CE3  6327 0001:00001CE5
  6328 0001:00001CE7  6330 0001:00001CE8  6331 0001:00001CEA  6334 0001:00001CEC
  6335 0001:00001CEE  6336 0001:00001CF0  6337 0001:00001CF2  6338 0001:00001CF4
  6341 0001:00001CF6  6342 0001:00001CF7  6345 0001:00001CF9  6346 0001:00001CFB
  6347 0001:00001CFD  6351 0001:00001CFF  6352 0001:00001D00  6353 0001:00001D02
  6356 0001:00001D04  6358 0001:00001D06  6359 0001:00001D08  6360 0001:00001D09
  6363 0001:00001D0B  6365 0001:00001D10  6366 0001:00001D12  6367 0001:00001D13
  6368 0001:00001D15  6371 0001:00001D17  6372 0001:00001D1A  6373 0001:00001D1C
  6375 0001:00001D1F  6376 0001:00001D22  6377 0001:00001D25  6378 0001:00001D27
  6379 0001:00001D2A  6380 0001:00001D2D  6381 0001:00001D2F  6383 0001:00001D32
  6384 0001:00001D34  6385 0001:00001D36  6386 0001:00001D39  6388 0001:00001D3B
  6389 0001:00001D3D  6391 0001:00001D3E  6392 0001:00001D40  6394 0001:00001D42
  6395 0001:00001D44  6396 0001:00001D46  6399 0001:00001D48  6400 0001:00001D49
  6403 0001:00001D4B  6404 0001:00001D4D  6405 0001:00001D4E  6406 0001:00001D4F
  6407 0001:00001D50  6851 0001:00001D54  6852 0001:00001D5E  6875 0001:00001D60
  6876 0001:00001D61  6878 0001:00001D62  6879 0001:00001D68  6880 0001:00001D6A
  6882 0001:00001D6F  6883 0001:00001D71  6884 0001:00001D72  6885 0001:00001D74
  6886 0001:00001D76  6887 0001:00001D77  6888 0001:00001D79  6889 0001:00001D7A
  6892 0001:00001D7C  6893 0001:00001D7D  6894 0001:00001D7F  6895 0001:00001D81
  6896 0001:00001D82  7025 0001:00001D84  7026 0001:00001D85  7028 0001:00001D86
  7029 0001:00001D88  7031 0001:00001D8A  7032 0001:00001D90  7034 0001:00001D92
  7035 0001:00001D93  7036 0001:00001D94  7659 0001:00001D98  7666 0001:00001D99
  7668 0001:00001D9B  7669 0001:00001D9C  7671 0001:00001D9D  7672 0001:00001D9E
  7673 0001:00001DA0  7675 0001:00001DA1  7676 0001:00001DA3  7677 0001:00001DA5
  7678 0001:00001DA7  7680 0001:00001DA9  7682 0001:00001DAA  7683 0001:00001DAC
  7686 0001:00001DB2  7687 0001:00001DB4  7688 0001:00001DB5  7689 0001:00001DB8
  7692 0001:00001DBA  7693 0001:00001DBC  7694 0001:00001DBF  7695 0001:00001DC1
  7696 0001:00001DC4  7697 0001:00001DC6  7700 0001:00001DC8  7702 0001:00001DCA
  7703 0001:00001DCC  7706 0001:00001DCD  7707 0001:00001DCF  7709 0001:00001DD5
  7712 0001:00001DD9  7713 0001:00001DDC  7714 0001:00001DDF  7715 0001:00001DE1
  7716 0001:00001DE7  7717 0001:00001DEA  7719 0001:00001DED  7720 0001:00001DEF
  7722 0001:00001DF0  7723 0001:00001DF2  7724 0001:00001DF4  7727 0001:00001DF6
  7728 0001:00001DF9  7730 0001:00001DFB  7731 0001:00001DFD  7733 0001:00001DFE
  7734 0001:00001E00  7738 0001:00001E02  7739 0001:00001E05  7740 0001:00001E08
  7741 0001:00001E0A  7742 0001:00001E10  7743 0001:00001E13  7744 0001:00001E16
  7746 0001:00001E17  7747 0001:00001E19  7749 0001:00001E1A  7750 0001:00001E1C
  7753 0001:00001E1E  7754 0001:00001E20  7757 0001:00001E22  7758 0001:00001E25
  7759 0001:00001E27  7760 0001:00001E2A  7762 0001:00001E2C  7763 0001:00001E2E
  7764 0001:00001E2F  7765 0001:00001E31  7766 0001:00001E34  7767 0001:00001E36
  7768 0001:00001E39  7769 0001:00001E3B  7771 0001:00001E3D  7773 0001:00001E3F
  7774 0001:00001E41  7776 0001:00001E42  7777 0001:00001E45  7778 0001:00001E48
  7779 0001:00001E4A  7780 0001:00001E4C  7781 0001:00001E4E  7782 0001:00001E4F
  7783 0001:00001E51  7785 0001:00001E53  7786 0001:00001E56  7787 0001:00001E59
  7788 0001:00001E5B  7789 0001:00001E5E  7790 0001:00001E60  7791 0001:00001E62
  7792 0001:00001E64  7793 0001:00001E65  7794 0001:00001E67  7796 0001:00001E69
  7797 0001:00001E6B  7798 0001:00001E6D  7800 0001:00001E6F  7803 0001:00001E72
  7804 0001:00001E74  7805 0001:00001E75  7806 0001:00001E76  7807 0001:00001E7B
  7808 0001:00001E7C  7810 0001:00001E7D  7811 0001:00001E7F  7815 0001:00001E81
  7817 0001:00001E84  7820 0001:00001E86  7822 0001:00001E88  7823 0001:00001E89
  7824 0001:00001E8A  7825 0001:00001E8B  7828 0001:00001E8C  7829 0001:00001E8E
  7832 0001:00001E90  7835 0001:00001E91  7836 0001:00001E92  7837 0001:00001E93
  7838 0001:00001E95  7839 0001:00001E98  7840 0001:00001E9A  7844 0001:00001E9C
  7845 0001:00001EA1  7858 0001:00001EA4  7865 0001:00001EA5  7867 0001:00001EA7
  7868 0001:00001EA9  7869 0001:00001EAB  7870 0001:00001EB1  7871 0001:00001EB6
  7872 0001:00001EBC  7873 0001:00001EBE  7874 0001:00001EC1  7875 0001:00001EC4
  7877 0001:00001ECB  7879 0001:00001ECD  7880 0001:00001ED0  7882 0001:00001ED2
  7883 0001:00001ED4  7884 0001:00001ED7  7885 0001:00001ED9  7886 0001:00001EDC
  7887 0001:00001EE3  7891 0001:00001EE5  7892 0001:00001EE8  7893 0001:00001EEA
  7894 0001:00001EED  7895 0001:00001EF4  7896 0001:00001EF6  7899 0001:00001EF8
  7900 0001:00001EFA  7901 0001:00001EFF  7902 0001:00001F01  7903 0001:00001F03
  7904 0001:00001F06  7905 0001:00001F09  7906 0001:00001F10  7908 0001:00001F12
  7909 0001:00001F15  7911 0001:00001F17  7912 0001:00001F19  7913 0001:00001F1C
  7914 0001:00001F1E  7915 0001:00001F21  7916 0001:00001F28  7920 0001:00001F2A
  7921 0001:00001F2D  7922 0001:00001F2F  7923 0001:00001F32  7924 0001:00001F39
  7926 0001:00001F3B  7929 0001:00001F3D  7930 0001:00001F3F  7931 0001:00001F45
  7934 0001:00001F47  7935 0001:00001F49  7938 0001:00001F4B  7939 0001:00001F4C
  7941 0001:00001F4D  7942 0001:00001F57  7943 0001:00001F61  7944 0001:00001F6B
  7945 0001:00001F75  7946 0001:00001F7F  7947 0001:00001F89  7948 0001:00001F93
  7949 0001:00001F9D  7950 0001:00001FA7  7951 0001:00001FB1  7952 0001:00001FBB
  7953 0001:00001FC5  7954 0001:00001FCF  7955 0001:00001FD9  7956 0001:00001FE3
  7957 0001:00001FED  7958 0001:00001FF7  7959 0001:00002001  7960 0001:0000200B
  7961 0001:00002015  7962 0001:0000201F  7963 0001:00002029  7964 0001:00002033
  7965 0001:0000203D  7966 0001:00002047  7967 0001:00002051  7968 0001:0000205B
  7969 0001:00002065  7970 0001:0000206F  7971 0001:00002079  7972 0001:00002083
  7973 0001:0000208D  7975 0001:00002097  7976 0001:000020A1  7977 0001:000020AB
  7978 0001:000020B5  7979 0001:000020BF  7980 0001:000020C9  7981 0001:000020D3
  7982 0001:000020DD  7983 0001:000020E7  7984 0001:000020F1  7985 0001:000020FB
  7986 0001:00002105  7987 0001:0000210F  7988 0001:00002119  7989 0001:00002123
  7991 0001:0000212D  7992 0001:00002137  7993 0001:00002141  7994 0001:0000214B
  7995 0001:00002155  7996 0001:0000215F  7997 0001:00002169  7998 0001:00002173
  7999 0001:0000217D  8000 0001:00002187  8217 0001:00002188  8222 0001:00002190
  8223 0001:00002191  8224 0001:00002193  8226 0001:0000219F  8227 0001:000021AB
  8228 0001:000021B9  8230 0001:000021BD  8245 0001:000021C0  8246 0001:000021C6
  8248 0001:000021D0  8249 0001:000021EB  8250 0001:000021F9  8251 0001:00002200
  8253 0001:00002227  8255 0001:00002238  8256 0001:00002253  8261 0001:00002284
  8262 0001:00002286  8268 0001:00002287  8270 0001:0000228D  8286 0001:00002290
  8287 0001:00002296  8298 0001:00002298  8299 0001:00002299  8300 0001:0000229A
  8301 0001:0000229C  8302 0001:0000229F  8303 0001:000022A1  8304 0001:000022A3
  8305 0001:000022A4  8306 0001:000022A6  8307 0001:000022A7  8308 0001:000022A8
  8325 0001:000022AC  8326 0001:000022AD  8327 0001:000022AF  8328 0001:000022B1
  8329 0001:000022B3  8330 0001:000022B6  8331 0001:000022B8  8332 0001:000022BA
  8333 0001:000022BD  8334 0001:000022BF  8336 0001:000022C0  8337 0001:000022C3
  8338 0001:000022C6  8339 0001:000022C9  8340 0001:000022CB  8341 0001:000022CC
  8342 0001:000022CE  8344 0001:000022CF  8345 0001:000022D1  8346 0001:000022D2
  8358 0001:000022D4  8359 0001:000022D7  8360 0001:000022D9  8361 0001:000022DB
  8363 0001:000022DD  8367 0001:000022E0  8368 0001:000022E3  8369 0001:000022F8
  8372 0001:000022FC  8373 0001:000022FF  8374 0001:00002306  8375 0001:0000230D
  8379 0001:00002310  8380 0001:00002315  8383 0001:00002318  8384 0001:00002337
  8387 0001:00002338  8388 0001:00002346  8392 0001:00002348  8393 0001:0000234C
  8394 0001:00002353  8422 0001:00002354  8423 0001:00002355  8424 0001:00002356
  8425 0001:00002357  8426 0001:00002359  8427 0001:0000235B  8428 0001:0000235C
  8429 0001:0000235F  8430 0001:00002361  8431 0001:00002362  8432 0001:00002365
  8433 0001:00002366  8434 0001:00002368  8435 0001:00002369  8436 0001:0000236C
  8437 0001:0000236E  8438 0001:00002370  8439 0001:00002372  8440 0001:00002375
  8441 0001:00002377  8442 0001:00002379  8443 0001:0000237A  8444 0001:0000237D
  8445 0001:0000237F  8446 0001:00002381  8447 0001:00002383  8448 0001:00002385
  8449 0001:00002387  8450 0001:00002389  8451 0001:0000238A  8452 0001:0000238C
  8453 0001:0000238F  8454 0001:00002392  8455 0001:00002394  8456 0001:00002396
  8457 0001:00002399  8458 0001:0000239C  8459 0001:0000239F  8460 0001:000023A0
  8461 0001:000023A2  8462 0001:000023A4  8463 0001:000023A6  8464 0001:000023A7
  8465 0001:000023A8  8466 0001:000023A9  8487 0001:000023AC  8488 0001:000023AD
  8489 0001:000023AE  8490 0001:000023B0  8492 0001:000023B2  8493 0001:000023B4
  8494 0001:000023B7  8495 0001:000023BA  8496 0001:000023BC  8497 0001:000023BE
  8498 0001:000023C3  8500 0001:000023C5  8501 0001:000023C7  8503 0001:000023C9
  8504 0001:000023CA  8505 0001:000023CB  8530 0001:000023CC  8531 0001:000023CE
  8532 0001:000023D4  8533 0001:000023D6  8534 0001:000023DC  8537 0001:000023DE
  8538 0001:000023E1  8539 0001:000023E3  8542 0001:000023E5  8545 0001:000023E7
  8546 0001:000023ED  8547 0001:000023EF  8548 0001:000023F1  8549 0001:000023F3
  8550 0001:000023F8  8556 0001:000023FC  8557 0001:0000241F  8558 0001:00002423
  8559 0001:0000242F  8561 0001:00002433  8563 0001:0000243A  8564 0001:0000243E
  8567 0001:0000244D  8569 0001:00002464  8570 0001:00002489  8597 0001:00002490
  8598 0001:00002491  8599 0001:00002492  8600 0001:00002494  8601 0001:00002497
  8602 0001:00002499  8603 0001:0000249B  8604 0001:0000249D  8605 0001:000024A0
  8606 0001:000024A2  8607 0001:000024A4  8608 0001:000024A6  8609 0001:000024A9
  8610 0001:000024AC  8611 0001:000024AE  8612 0001:000024B1  8613 0001:000024B4
  8614 0001:000024B6  8615 0001:000024B9  8616 0001:000024BC  8617 0001:000024BE
  8618 0001:000024C1  8619 0001:000024C2  8620 0001:000024C4  8621 0001:000024C7
  8622 0001:000024C9  8623 0001:000024CB  8624 0001:000024CD  8625 0001:000024CF
  8626 0001:000024D1  8627 0001:000024D2  8628 0001:000024D3  8637 0001:000024D4
  8638 0001:000024DA  8639 0001:000024F2  8653 0001:000024F8  8654 0001:000024FA
  8655 0001:000024FC  8657 0001:000024FE  8658 0001:00002500  8659 0001:00002502
  8660 0001:00002504  8661 0001:00002507  8662 0001:00002509  8665 0001:0000250B
  8666 0001:0000250D  8669 0001:00002512  8681 0001:00002514  8682 0001:00002515
  8683 0001:00002516  8685 0001:00002518  8687 0001:0000251A  8688 0001:0000251D
  8689 0001:0000251F  8690 0001:00002521  8691 0001:00002524  8692 0001:00002525
  8693 0001:00002528  8694 0001:0000252B  8695 0001:0000252D  8697 0001:0000252E
  8698 0001:00002531  8699 0001:00002533  8700 0001:00002535  8703 0001:00002537
  8704 0001:00002538  8705 0001:0000253A  8706 0001:0000253C  8709 0001:00002540
  8710 0001:00002541  8714 0001:00002544  8715 0001:00002545  8716 0001:00002546
  8717 0001:00002548  8718 0001:0000254D  8719 0001:0000254E  8720 0001:0000254F
  8721 0001:00002551  8723 0001:00002553  8724 0001:00002554  8725 0001:00002559
  8786 0001:0000255C  8788 0001:0000255E  8790 0001:00002560  8791 0001:00002562
  8792 0001:00002564  8793 0001:00002567  8794 0001:00002569  8795 0001:0000256B
  8797 0001:0000256C  8799 0001:0000256E  8805 0001:00002570  8806 0001:00002575
  8812 0001:00002578  8813 0001:0000257D  8818 0001:00002580  8823 0001:00002584
  8827 0001:00002588  8831 0001:0000258C  8832 0001:0000258D  8833 0001:00002590
  8834 0001:00002593  8835 0001:00002595  8836 0001:0000259A  8837 0001:0000259C
  8838 0001:0000259D  8839 0001:0000259F  8840 0001:000025A4  8841 0001:000025A5
  8842 0001:000025A7  8843 0001:000025A9  8844 0001:000025AA  8847 0001:000025AC
  8848 0001:000025AD  8849 0001:000025AF  8850 0001:000025B2  8857 0001:000025B4
  8858 0001:000025B5  8859 0001:000025B6  8860 0001:000025B7  8861 0001:000025B9
  8862 0001:000025BB  8863 0001:000025BD  8865 0001:000025BF  8867 0001:000025C1
  8868 0001:000025C4  8869 0001:000025C6  8870 0001:000025C8  8871 0001:000025CB
  8873 0001:000025CE  8874 0001:000025D1  8875 0001:000025D3  8877 0001:000025D5
  8878 0001:000025D8  8879 0001:000025DA  8880 0001:000025DB  8882 0001:000025DD
  8883 0001:000025E0  8884 0001:000025E2  8885 0001:000025E4  8888 0001:000025E6
  8889 0001:000025E8  8892 0001:000025EA  8894 0001:000025EC  8895 0001:000025F0
  8896 0001:000025F3  8897 0001:000025F6  8898 0001:000025F8  8899 0001:000025F9
  8902 0001:000025FB  8905 0001:000025FE  8906 0001:000025FF  8907 0001:00002600
  8908 0001:00002601  8963 0001:00002604  8964 0001:00002605  8965 0001:00002606
  8966 0001:00002607  8967 0001:00002609  8968 0001:0000260B  8970 0001:0000260D
  8973 0001:0000260E  8974 0001:00002610  8975 0001:00002613  8976 0001:00002615
  8977 0001:00002617  8978 0001:0000261A  8980 0001:0000261D  8981 0001:00002620
  8982 0001:00002622  8984 0001:00002624  8985 0001:00002628  8986 0001:00002629
  8988 0001:0000262B  8989 0001:0000262E  8990 0001:00002630  8991 0001:00002632
  8992 0001:00002633  8995 0001:00002635  8996 0001:00002637  8997 0001:0000263A
  9000 0001:0000263C  9001 0001:00002640  9002 0001:00002643  9003 0001:00002646
  9004 0001:00002648  9005 0001:00002649  9008 0001:0000264B  9009 0001:0000264D
  9010 0001:0000264E  9013 0001:00002650  9014 0001:00002651  9015 0001:00002652
  9016 0001:00002653  9022 0001:00002654  9023 0001:00002655  9024 0001:00002656
  9025 0001:00002657  9026 0001:00002659  9027 0001:0000265B  9030 0001:0000265E
  9031 0001:00002660  9032 0001:00002664  9033 0001:00002667  9034 0001:00002669
  9035 0001:0000266C  9036 0001:00002673  9037 0001:00002676  9039 0001:00002679
  9040 0001:0000267A  9041 0001:0000267B  9042 0001:0000267C  9046 0001:0000267D
  9050 0001:00002682  9051 0001:00002686  9052 0001:00002689  9053 0001:0000268B
  9054 0001:0000268D  9055 0001:0000268F  9056 0001:00002691  9057 0001:00002692
  9058 0001:00002695  9059 0001:00002696  9062 0001:0000269B  9064 0001:000026A0
  9068 0001:000026A4  9069 0001:000026A9  9073 0001:000026AC  9074 0001:000026AF
  9075 0001:000026B6  9076 0001:000026B8  9091 0001:000026BC  9092 0001:000026BE
  9093 0001:000026C0  9095 0001:000026C1  9096 0001:000026C2  9097 0001:000026C3
  9098 0001:000026C5  9099 0001:000026C8  9100 0001:000026C9  9101 0001:000026CA
  9206 0001:000026CC  9207 0001:000026D3  9208 0001:000026D5  9209 0001:000026D7
  9210 0001:000026D9  9211 0001:000026DB  9212 0001:000026E0  9215 0001:000026E6
  9221 0001:000026E8  9222 0001:000026EF  9223 0001:000026F1  9224 0001:000026F2
  9225 0001:000026F3  9226 0001:000026F4  9227 0001:000026F5  9228 0001:000026F7
  9229 0001:000026F9  9230 0001:000026FE  9231 0001:00002704  9232 0001:00002707
  9234 0001:00002708  9257 0001:0000270C  9258 0001:0000270D  9259 0001:0000270F
  9260 0001:00002711  9261 0001:00002716  9262 0001:0000271C  9263 0001:0000271F
  9265 0001:00002720  9281 0001:00002724  9282 0001:0000272B  9283 0001:0000272D
  9284 0001:0000272E  9285 0001:00002731  9288 0001:00002736  9293 0001:00002738
  9294 0001:0000273F  9295 0001:00002741  9296 0001:00002742  9297 0001:00002743
  9299 0001:00002748  9303 0001:0000274C  9304 0001:0000274E  9305 0001:00002750
  9306 0001:00002753  9307 0001:00002756  9308 0001:00002758  9309 0001:0000275B
  9310 0001:0000275D  9311 0001:00002760  9312 0001:00002761  9313 0001:00002762
  9315 0001:00002764  9317 0001:00002767  9319 0001:00002769  9336 0001:0000276C
  9337 0001:00002773  9338 0001:00002775  9339 0001:00002776  9340 0001:00002777
  9341 0001:00002778  9342 0001:0000277D  9343 0001:0000277E  9344 0001:0000277F
  9345 0001:00002781  9346 0001:00002783  9347 0001:00002788  9348 0001:0000278E
  9349 0001:0000278F  9350 0001:00002790  9351 0001:00002791  9354 0001:00002792
  9362 0001:00002794  9363 0001:0000279B  9364 0001:0000279D  9365 0001:0000279E
  9366 0001:0000279F  9367 0001:000027A1  9368 0001:000027A3  9369 0001:000027A8
  9370 0001:000027AE  9372 0001:000027AF  9396 0001:000027B0  9397 0001:000027B1
  9398 0001:000027B2  9399 0001:000027B9  9400 0001:000027BB  9401 0001:000027BC
  9402 0001:000027BE  9403 0001:000027C0  9404 0001:000027C5  9406 0001:000027CB
  9407 0001:000027CC  9409 0001:000027CD  9496 0001:000027D0  9497 0001:000027D4
  9498 0001:000027DB  9500 0001:000027E1  9501 0001:000027E7  9502 0001:000027EA
  9503 0001:000027ED  9504 0001:000027EF  9505 0001:000027F0  9506 0001:000027F5
  9507 0001:000027FB  9508 0001:000027FD  9509 0001:00002803  9510 0001:00002805
  9511 0001:00002807  9512 0001:0000280D  9513 0001:00002811  9514 0001:00002815
  9515 0001:0000281B  9516 0001:0000281D  9518 0001:00002822  9519 0001:00002829
  9520 0001:0000282B  9521 0001:00002832  9522 0001:00002834  9523 0001:00002838
  9524 0001:00002839  9525 0001:0000283A  9526 0001:0000283F  9527 0001:00002842
  9528 0001:00002843  9529 0001:00002849  9530 0001:0000284B  9531 0001:0000284F
  9532 0001:00002852  9535 0001:00002854  9536 0001:00002856  9537 0001:0000285A
  9541 0001:0000285D  9542 0001:00002864  9543 0001:00002866  9544 0001:0000286D
  9545 0001:0000286F  9546 0001:00002870  9547 0001:00002874  9548 0001:00002875
  9549 0001:00002876  9550 0001:00002877  9551 0001:0000287C  9552 0001:0000287F
  9553 0001:00002880  9554 0001:00002881  9555 0001:00002882  9559 0001:00002884
  9561 0001:00002888  9562 0001:00002889  9563 0001:0000288B  9564 0001:0000288C
  9565 0001:0000288D  9567 0001:0000288E  9568 0001:00002891  9569 0001:00002892
  9570 0001:00002893  9571 0001:00002894  9573 0001:00002895  9575 0001:00002899
  9576 0001:0000289B  9577 0001:0000289C  9578 0001:000028A1  9579 0001:000028A2
  9582 0001:000028A8  9586 0001:000028AC  9587 0001:000028B1  9588 0001:000028B7
  9590 0001:000028BD  9591 0001:000028C0  9592 0001:000028C3  9594 0001:000028CA
  9595 0001:000028CD  9596 0001:000028D2  9599 0001:000028D4  9605 0001:000028D9
  9606 0001:000028DE  9607 0001:000028E4  9608 0001:000028E6  9610 0001:000028EC
  9611 0001:000028EF  9614 0001:000028F4  9616 0001:000028F9  9814 0001:000028FC
  9815 0001:00002900  9816 0001:00002907  9818 0001:0000290D  9819 0001:00002913
  9820 0001:00002915  9821 0001:00002916  9822 0001:0000291B  9823 0001:00002921
  9824 0001:00002923  9825 0001:00002929  9826 0001:0000292B  9827 0001:0000292D
  9828 0001:0000292F  9831 0001:00002934  9832 0001:00002937  9836 0001:00002939
  9838 0001:0000293D  9839 0001:0000293E  9840 0001:0000293F  9841 0001:00002940
  9843 0001:00002941  9844 0001:00002944  9845 0001:00002947  9846 0001:0000294A
  9849 0001:0000294C  9850 0001:0000294E  9851 0001:00002950  9852 0001:00002952
  9853 0001:00002954  9856 0001:00002956  9858 0001:00002958  9859 0001:0000295A
  9860 0001:0000295C  9862 0001:0000295E  9863 0001:00002961  9864 0001:00002964
  9866 0001:00002966  9867 0001:00002969  9869 0001:0000296C  9870 0001:0000296E
  9871 0001:00002970  9872 0001:00002972  9874 0001:00002974  9875 0001:00002975
  9876 0001:00002976  9877 0001:0000297B  9880 0001:0000297D  9881 0001:00002980
  9882 0001:00002982  9883 0001:00002984  9885 0001:00002986  9886 0001:00002989
  9887 0001:0000298A  9889 0001:0000298C  9890 0001:0000298D  9891 0001:0000298E
  9892 0001:0000298F  9893 0001:00002990  9896 0001:00002995  9897 0001:00002999
  9898 0001:0000299F  9899 0001:000029A2  9900 0001:000029A5  9901 0001:000029A7
  9902 0001:000029AD  9903 0001:000029B1  9905 0001:000029B6  9906 0001:000029BD
  9907 0001:000029BF  9908 0001:000029C6  9909 0001:000029C8  9910 0001:000029CC
  9911 0001:000029CD  9912 0001:000029CE  9913 0001:000029D3  9914 0001:000029D6
  9915 0001:000029D7  9918 0001:000029DD  9919 0001:000029DF  9920 0001:000029E3
  9921 0001:000029E6  9925 0001:000029E8  9926 0001:000029EF  9927 0001:000029F1
  9928 0001:000029F8  9929 0001:000029FA  9930 0001:000029FB  9931 0001:000029FF
  9932 0001:00002A00  9933 0001:00002A01  9934 0001:00002A02  9935 0001:00002A07
  9936 0001:00002A0A  9937 0001:00002A0B  9938 0001:00002A0C  9939 0001:00002A0D
  9943 0001:00002A0F  9944 0001:00002A11  9945 0001:00002A14  9946 0001:00002A15
  9947 0001:00002A16  9948 0001:00002A17  9950 0001:00002A18  9951 0001:00002A1C
  9953 0001:00002A20  9955 0001:00002A21  9956 0001:00002A23  9957 0001:00002A24
  9958 0001:00002A29  9959 0001:00002A2A  9962 0001:00002A30  9964 0001:00002A31
  9968 0001:00002A35  9969 0001:00002A3A  9970 0001:00002A40  9972 0001:00002A46
  9973 0001:00002A49  9974 0001:00002A50  9975 0001:00002A54  9976 0001:00002A59
  9979 0001:00002A5C  9985 0001:00002A61  9986 0001:00002A66  9987 0001:00002A6C
  9988 0001:00002A6E  9990 0001:00002A74  9991 0001:00002A77  9993 0001:00002A7C
  9994 0001:00002A81 10058 0001:00002A84 10059 0001:00002A88 10060 0001:00002A8C
 10061 0001:00002A93 10062 0001:00002A95 10063 0001:00002A98 10065 0001:00002A9F
 10066 0001:00002AA0 10067 0001:00002AA1 10068 0001:00002AA2 10070 0001:00002AA3
 10071 0001:00002AA6 10072 0001:00002AA9 10073 0001:00002AAE 10075 0001:00002AB0
 10076 0001:00002AB1 10077 0001:00002AB2 10078 0001:00002AB3 10081 0001:00002AB4
 10083 0001:00002AB9 10270 0001:00002ABC 10271 0001:00002ABE 10272 0001:00002AC0
 10273 0001:00002AC5 10275 0001:00002ACA 10277 0001:00002ACB 10278 0001:00002ACC
 10279 0001:00002ACD 10280 0001:00002ACE 10281 0001:00002ACF 10282 0001:00002AD0
 10283 0001:00002AD1 10285 0001:00002AD2 10286 0001:00002AD3 10287 0001:00002AD5
 10288 0001:00002AD7 10289 0001:00002ADC 10290 0001:00002ADD 10292 0001:00002AE3
 10354 0001:00002AE4 10355 0001:00002AE8 10359 0001:00002AEF 10360 0001:00002AF4
 10361 0001:00002AFA 10362 0001:00002AFC 10366 0001:00002B02 10367 0001:00002B05
 10368 0001:00002B09 10369 0001:00002B0F 10370 0001:00002B11 10371 0001:00002B14
 10372 0001:00002B19 10376 0001:00002B1E 10377 0001:00002B20 10378 0001:00002B23
 10379 0001:00002B26 10380 0001:00002B27 10381 0001:00002B29 10383 0001:00002B2B
 10384 0001:00002B2C 10385 0001:00002B2D 10386 0001:00002B2E 10388 0001:00002B2F
 10390 0001:00002B34 10474 0001:00002B38 10475 0001:00002B3D 10476 0001:00002B43
 10477 0001:00002B45 10481 0001:00002B4B 10482 0001:00002B4E 10484 0001:00002B53
 10485 0001:00002B54 10486 0001:00002B58 10487 0001:00002B5A 10488 0001:00002B5B
 10489 0001:00002B5E 10490 0001:00002B5F 10491 0001:00002B60 10492 0001:00002B65
 10494 0001:00002B67 10500 0001:00002B68 10501 0001:00002B6A 10502 0001:00002B6E
 10503 0001:00002B72 10504 0001:00002B75 10505 0001:00002B78 10506 0001:00002B7A
 10508 0001:00002B7D 10534 0001:00002B80 10535 0001:00002B86 10536 0001:00002BE1
 10537 0001:00002BE5 10538 0001:00002BE9 10541 0001:00002BED 10542 0001:00002BF1
 10543 0001:00002BF5 10545 0001:00002BF9 10546 0001:00002BFD 10547 0001:00002C01
 10548 0001:00002C05 10549 0001:00002C09 10550 0001:00002C0D 10552 0001:00002C0F
 10553 0001:00002C1C 10557 0001:00002C20 10559 0001:00002C24 10560 0001:00002C2B
 10562 0001:00002C31 10563 0001:00002C38 10564 0001:00002C3A 10565 0001:00002C3E
 10566 0001:00002C3F 10567 0001:00002C44 10568 0001:00002C47 10573 0001:00002C49
 10574 0001:00002C4D 10575 0001:00002C4E 10576 0001:00002C53 10578 0001:00002C57
 10579 0001:00002C59 10580 0001:00002C5A 10581 0001:00002C5F 10582 0001:00002C60
 10585 0001:00002C66 10586 0001:00002C6A 10587 0001:00002C70 10588 0001:00002C73
 10589 0001:00002C76 10591 0001:00002C78 10592 0001:00002C7E 10593 0001:00002C80
 10594 0001:00002C86 10595 0001:00002C88 10596 0001:00002C8A 10597 0001:00002C8C
 10598 0001:00002C92 10602 0001:00002C95 10603 0001:00002C9A 10604 0001:00002CA0
 10605 0001:00002CA2 10606 0001:00002CA4 10609 0001:00002CA6 10610 0001:00002CAA
 10611 0001:00002CAF 10612 0001:00002CB2 10613 0001:00002CB5 10616 0001:00002CBA
 10617 0001:00002CBC 10621 0001:00002CC0 10622 0001:00002CC2 10623 0001:00002CC5
 10624 0001:00002CC8 10626 0001:00002CCB 10631 0001:00002CCD 10633 0001:00002CD4
 10637 0001:00002CD7 10639 0001:00002CDC 10644 0001:00002CE0 10648 0001:00002CE2
 10650 0001:00002CE7 10651 0001:00002CE9 10652 0001:00002CEB 10653 0001:00002CEE
 10654 0001:00002CF0 10655 0001:00002CF2 10656 0001:00002CF4 10657 0001:00002CF7
 10660 0001:00002CF8 10662 0001:00002CFA 10663 0001:00002CFD 10664 0001:00002CFF
 10665 0001:00002D01 10667 0001:00002D03 10668 0001:00002D05 10670 0001:00002D07
 10692 0001:00002D08 10693 0001:00002D13 10695 0001:00002D1A 10696 0001:00002D1D
 10700 0001:00002D20 10701 0001:00002D2E 10703 0001:00002D32 10704 0001:00002D33
 10705 0001:00002D36 10706 0001:00002D3A 10712 0001:00002D3E 10701 0001:00002D40
 10717 0001:00002D53 10718 0001:00002D58 10720 0001:00002D62 10832 0001:00002D68
 10833 0001:00002D6E 10835 0001:00002D77 10836 0001:00002D79 10837 0001:00002D7B
 10841 0001:00002D7E 10842 0001:00002D8C 10844 0001:00002D90 10845 0001:00002D93
 10846 0001:00002D94 10847 0001:00002D9A 10853 0001:00002D9E 10842 0001:00002DA0
 10858 0001:00002DB3 10859 0001:00002DB8 10861 0001:00002DC2 10907 0001:00002DC8
 10908 0001:00002DD2 10910 0001:00002DDC 10911 0001:00002DE1 10912 0001:00002DE8
 10913 0001:00002DEE 10915 0001:00002DF6 10917 0001:00002DFB 10918 0001:00002E02
 10919 0001:00002E07 11080 0001:00002E08 11081 0001:00002E09 11083 0001:00002E0B
 11084 0001:00002E0C 11085 0001:00002E0D 11086 0001:00002E10 11088 0001:00002E14
 11089 0001:00002E17 11090 0001:00002E19 11091 0001:00002E1B 11092 0001:00002E1D
 11093 0001:00002E22 11094 0001:00002E25 11095 0001:00002E26 11097 0001:00002E28
 11098 0001:00002E29 11100 0001:00002E2A 11102 0001:00002E2B 11117 0001:00002E2C
 11118 0001:00002E2D 11120 0001:00002E2F 11121 0001:00002E30 11122 0001:00002E31
 11123 0001:00002E34 11125 0001:00002E38 11126 0001:00002E3B 11127 0001:00002E3D
 11128 0001:00002E40 11129 0001:00002E42 11130 0001:00002E47 11131 0001:00002E4A
 11132 0001:00002E4B 11134 0001:00002E4D 11135 0001:00002E4E 11137 0001:00002E4F
 11139 0001:00002E50 11157 0001:00002E54 11158 0001:00002E55 11160 0001:00002E57
 11161 0001:00002E58 11162 0001:00002E59 11163 0001:00002E5C 11175 0001:00002E60
 11176 0001:00002E63 11177 0001:00002E65 11178 0001:00002E68 11179 0001:00002E6B
 11180 0001:00002E6E 11181 0001:00002E71 11182 0001:00002E72 11186 0001:00002E74
 11187 0001:00002E75 11189 0001:00002E76 11191 0001:00002E77 11234 0001:00002E78
 11235 0001:00002E80 11236 0001:00002E82 11238 0001:00002E88 11239 0001:00002E9C
 11240 0001:00002EA8 11241 0001:00002EA9 11242 0001:00002EAD 11243 0001:00002EAF
 11245 0001:00002EB4 11246 0001:00002EC6 11247 0001:00002EC9 11248 0001:00002ECA
 11249 0001:00002ECE 11265 0001:00002ED4 11266 0001:00002ED6 11267 0001:00002EDC
 11268 0001:00002EDE 11269 0001:00002EE0 11276 0001:00002EE1 11279 0001:00002EE6
 11280 0001:00002EE9 11281 0001:00002EEC 11282 0001:00002EEF 11284 0001:00002EF2
 11285 0001:00002EF4 11286 0001:00002EF9 11287 0001:00002EFB 11288 0001:00002EFC
 11290 0001:00002EFD 11292 0001:00002EFE 11297 0001:00002F01 11303 0001:00002F04
 11304 0001:00002F05 11308 0001:00002F0E 11309 0001:00002F22 11311 0001:00002F2D
 11312 0001:00002F48 11314 0001:00002F65 11315 0001:00002F6E 11330 0001:00002F81
 11338 0001:00002F90 11352 0001:00002FA3 11353 0001:00002FA9 11355 0001:00002FAE
 11356 0001:00002FB2 11357 0001:00002FB6 11353 0001:00002FBA 11362 0001:00002FBF
 11364 0001:00002FC8 11365 0001:00002FCD 11366 0001:00002FD2 11377 0001:00002FD9
 11378 0001:00002FE4 11382 0001:00002FE9 11384 0001:00002FEE 11386 0001:00002FF9
 11389 0001:00003000 11393 0001:00003005 11394 0001:00003014 11399 0001:0000301A
 11403 0001:0000301F 11404 0001:00003025 11407 0001:00003028 11408 0001:0000302E
 11410 0001:00003033 11417 0001:00003038 11418 0001:00003041 11419 0001:00003047
 11422 0001:0000304F 11372 0001:0000305E 11424 0001:00003063 11428 0001:00003068
 11429 0001:0000306D 11430 0001:00003072 11462 0001:00003074 11464 0001:0000307A
 11465 0001:0000307F 11660 0001:00003080 11661 0001:00003082 11662 0001:00003084
 11663 0001:00003086 11664 0001:0000308C 11665 0001:0000308F 11666 0001:00003090
 11667 0001:00003092 11668 0001:00003096 11669 0001:00003098 11670 0001:00003099
 11671 0001:0000309C 11672 0001:000030A1 11674 0001:000030A2 11695 0001:000030A4
 11696 0001:000030A5 11697 0001:000030A6 11698 0001:000030A8 11701 0001:000030AA
 11702 0001:000030AC 11703 0001:000030AE 11704 0001:000030B0 11705 0001:000030B6
 11706 0001:000030B9 11707 0001:000030BA 11708 0001:000030BC 11709 0001:000030C0
 11710 0001:000030C2 11711 0001:000030C5 11713 0001:000030CA 11714 0001:000030CD
 11715 0001:000030CE 11717 0001:000030D0 11718 0001:000030D1 11719 0001:000030D2
 11767 0001:000030D4 11768 0001:000030D6 11770 0001:000030D8 11771 0001:000030DB
 11772 0001:000030DC 11774 0001:000030DE 11775 0001:000030DF 11776 0001:000030E0
 11777 0001:000030E3 11778 0001:000030E8 11779 0001:000030EA 11780 0001:000030EB
 11781 0001:000030EC 11782 0001:000030EF 11783 0001:000030F4 11784 0001:000030F5
 11785 0001:000030F6 11788 0001:000030F8 11790 0001:000030FC 11791 0001:000030FE
 11792 0001:00003100 11793 0001:00003102 11794 0001:00003105 11795 0001:00003106
 11796 0001:00003108 11797 0001:0000310C 11798 0001:0000310E 11799 0001:00003111
 11801 0001:00003116 11820 0001:00003118 11821 0001:0000311A 11825 0001:0000311C
 11826 0001:0000311F 11827 0001:00003120 11828 0001:00003122 11833 0001:00003126
 11834 0001:00003128 11835 0001:0000312A 11836 0001:0000312C 11837 0001:0000312F
 11838 0001:00003130 11839 0001:00003132 11840 0001:00003136 11841 0001:00003138
 11842 0001:0000313B 11844 0001:00003140 11868 0001:00003144 11869 0001:00003146
 11870 0001:00003148 11871 0001:00003149 11872 0001:0000314C 11873 0001:0000314F
 11874 0001:00003150 11875 0001:00003155 11876 0001:00003156 11877 0001:0000315D
 11878 0001:00003160 11879 0001:00003161 11880 0001:00003164 11881 0001:0000316B
 11883 0001:0000316C 11884 0001:0000316E 11893 0001:00003170 11894 0001:00003171
 11895 0001:00003172 11897 0001:00003173 11898 0001:00003175 11899 0001:00003177
 11903 0001:00003179 11905 0001:0000317B 11906 0001:00003180 11907 0001:00003182
 11909 0001:00003184 11910 0001:00003186 11912 0001:00003188 11913 0001:0000318A
 11914 0001:0000318C 11919 0001:00003191 11920 0001:00003193 11921 0001:00003198
 11923 0001:0000319A 11924 0001:0000319B 11925 0001:0000319C 11926 0001:0000319D
 12033 0001:000031A0 12051 0001:000031A3 12054 0001:000031BB 12061 0001:000031C0
 12081 0001:000031C3 12084 0001:000031D7 12090 0001:000031DC 12091 0001:000031F1
 12093 0001:000031F5 12094 0001:000031FC 12096 0001:000031FE 12098 0001:00003209
 12099 0001:0000321E 12101 0001:00003222 12102 0001:0000322F 12106 0001:00003231
 12107 0001:00003235 12108 0001:0000323E 12109 0001:0000324E 12110 0001:00003254
 12111 0001:0000325D 12116 0001:00003268 12117 0001:00003269 12118 0001:0000326B
 12119 0001:00003270 12120 0001:00003275 12121 0001:00003276 12136 0001:00003278
 12137 0001:0000327A 12138 0001:0000327C 12139 0001:0000327E 12140 0001:0000327F
 12141 0001:00003281 12142 0001:00003283 12143 0001:00003286 12144 0001:00003288
 12145 0001:0000328B 12146 0001:0000328D 12147 0001:00003290 12148 0001:00003292
 12149 0001:00003295 12150 0001:00003297 12151 0001:00003298 12152 0001:00003299
 12153 0001:0000329A 12154 0001:0000329C 12155 0001:0000329D 12156 0001:0000329F
 12157 0001:000032A4 12162 0001:000032A8 12163 0001:000032AA 12164 0001:000032AC
 12165 0001:000032AE 12166 0001:000032AF 12167 0001:000032B2 12168 0001:000032B4
 12169 0001:000032B8 12170 0001:000032BA 12171 0001:000032BE 12172 0001:000032C0
 12173 0001:000032C4 12174 0001:000032C6 12175 0001:000032C9 12176 0001:000032CB
 12177 0001:000032CE 12178 0001:000032D1 12179 0001:000032D4 12180 0001:000032D6
 12181 0001:000032D7 12182 0001:000032D9 12183 0001:000032DB 12184 0001:000032E0
 12189 0001:000032E4 12190 0001:000032E6 12191 0001:000032E8 12192 0001:000032E9
 12193 0001:000032EE 12198 0001:000032F0 12199 0001:000032F1 12200 0001:000032F2
 12201 0001:000032F3 12202 0001:000032F5 12203 0001:000032F7 12204 0001:000032F9
 12205 0001:000032FB 12206 0001:000032FD 12207 0001:000032FE 12208 0001:00003300
 12209 0001:00003301 12210 0001:00003302 12211 0001:00003307 12237 0001:00003308
 12238 0001:0000330A 12239 0001:0000330C 12240 0001:0000330E 12241 0001:00003311
 12242 0001:00003313 12243 0001:00003318 12252 0001:0000331C 12253 0001:0000331D
 12254 0001:0000331F 12255 0001:00003321 12256 0001:00003324 12257 0001:00003326
 12259 0001:00003328 12260 0001:0000332A 12261 0001:0000332C 12263 0001:0000332E
 12264 0001:00003330 12266 0001:00003331 12267 0001:00003332 12269 0001:00003337
 12272 0001:00003339 12275 0001:0000333C 12276 0001:0000333D 12289 0001:00003340
 12290 0001:00003342 12291 0001:00003344 12293 0001:00003347 12302 0001:00003348
 12303 0001:0000334A 12305 0001:0000334C 12306 0001:0000334E 12307 0001:00003350
 12309 0001:00003356 12310 0001:00003357 12311 0001:00003358 12312 0001:00003359
 12313 0001:0000335B 12314 0001:0000335D 12316 0001:00003360 12317 0001:00003363
 12318 0001:00003365 12319 0001:00003367 12321 0001:00003369 12322 0001:0000336E
 12323 0001:00003370 12326 0001:00003373 12327 0001:00003375 12328 0001:00003377
 12329 0001:0000337C 12330 0001:0000337D 12331 0001:0000337E 12332 0001:0000337F
 12335 0001:00003380 12336 0001:00003385 12337 0001:00003387 12338 0001:00003389
 12341 0001:0000338B 12350 0001:0000338C 12351 0001:0000338E 12353 0001:00003390
 12354 0001:00003392 12356 0001:00003398 12357 0001:0000339A 12359 0001:0000339C
 12360 0001:0000339E 12362 0001:000033A0 12363 0001:000033A1 12364 0001:000033A2
 12366 0001:000033A7 12367 0001:000033A8 12368 0001:000033A9 12372 0001:000033AE
 12373 0001:000033AF 12374 0001:000033B0 12376 0001:000033B1 12377 0001:000033B3
 12378 0001:000033B5 12380 0001:000033B6 12381 0001:000033B9 12382 0001:000033BC
 12384 0001:000033C1 12385 0001:000033C3 12386 0001:000033C5 12387 0001:000033C7
 12388 0001:000033CA 12390 0001:000033CF 12391 0001:000033D1 12392 0001:000033D3
 12393 0001:000033D6 12394 0001:000033D9 12396 0001:000033DE 12397 0001:000033DF
 12398 0001:000033E1 12399 0001:000033E3 12400 0001:000033E5 12402 0001:000033E8
 12404 0001:000033ED 12405 0001:000033EE 12406 0001:000033EF 12408 0001:000033F0
 12411 0001:000033F1 12412 0001:000033F3 12415 0001:000033F8 12416 0001:000033FA
 12419 0001:000033FF 12428 0001:00003400 12429 0001:00003401 12430 0001:00003402
 12431 0001:00003403 12432 0001:00003404 12433 0001:00003405 12435 0001:00003407
 12436 0001:00003409 12437 0001:0000340D 12438 0001:0000340F 12439 0001:00003411
 12440 0001:00003413 12441 0001:00003415 12442 0001:00003417 12443 0001:0000341A
 12444 0001:0000341B 12446 0001:0000341D 12448 0001:0000341F 12449 0001:00003423
 12450 0001:00003425 12451 0001:00003427 12452 0001:0000342A 12453 0001:0000342C
 12454 0001:0000342E 12456 0001:00003430 12457 0001:00003431 12460 0001:00003433
 12461 0001:00003435 12462 0001:00003437 12463 0001:00003439 12464 0001:0000343C
 12465 0001:0000343F 12466 0001:00003444 12467 0001:00003447 12468 0001:00003449
 12469 0001:0000344B 12470 0001:0000344C 12473 0001:0000344E 12474 0001:00003453
 12475 0001:00003454 12478 0001:00003456 12479 0001:0000345A 12480 0001:0000345C
 12481 0001:0000345E 12482 0001:00003460 12483 0001:00003463 12484 0001:00003465
 12486 0001:0000346A 12487 0001:0000346B 12489 0001:0000346D 12490 0001:0000346E
 12491 0001:0000346F 12492 0001:00003471 12494 0001:00003473 12495 0001:00003475
 12496 0001:00003477 12498 0001:0000347A 12501 0001:0000347F 12502 0001:00003480
 12503 0001:00003481 12504 0001:00003482 12505 0001:00003483 12506 0001:00003484
 12507 0001:00003487 12508 0001:00003489 12516 0001:0000348C 12517 0001:0000348D
 12518 0001:0000348E 12520 0001:0000348F 12521 0001:00003491 12523 0001:00003493
 12524 0001:00003495 12526 0001:0000349B 12527 0001:0000349D 12529 0001:0000349F
 12530 0001:000034A1 12532 0001:000034A3 12533 0001:000034A6 12535 0001:000034A9
 12536 0001:000034AB 12537 0001:000034AD 12540 0001:000034AF 12541 0001:000034B0
 12542 0001:000034B3 12544 0001:000034B5 12545 0001:000034B7 12546 0001:000034B9
 12547 0001:000034BB 12548 0001:000034BD 12549 0001:000034BE 12550 0001:000034C0
 12551 0001:000034C3 12552 0001:000034C6 12553 0001:000034C8 12554 0001:000034CA
 12555 0001:000034CD 12556 0001:000034D0 12557 0001:000034D1 12558 0001:000034D3
 12560 0001:000034D5 12561 0001:000034D8 12563 0001:000034DB 12564 0001:000034DC
 12565 0001:000034DF 12567 0001:000034E1 12568 0001:000034E3 12569 0001:000034E5
 12570 0001:000034E7 12571 0001:000034E9 12572 0001:000034EA 12573 0001:000034EC
 12574 0001:000034EE 12575 0001:000034F0 12576 0001:000034F1 12577 0001:000034F3
 12578 0001:000034F9 12579 0001:000034FF 12580 0001:00003501 12583 0001:00003503
 12584 0001:00003505 12587 0001:00003507 12588 0001:0000350A 12589 0001:0000350C
 12592 0001:0000350E 12593 0001:00003511 12594 0001:00003513 12597 0001:00003515
 12598 0001:00003516 12599 0001:00003518 12600 0001:0000351A 12601 0001:0000351C
 12602 0001:0000351E 12603 0001:00003521 12604 0001:00003524 12605 0001:00003526
 12606 0001:00003528 12609 0001:0000352A 12610 0001:0000352B 12611 0001:0000352C
 12613 0001:0000352D 12629 0001:00003530 12630 0001:00003532 12631 0001:00003534
 12632 0001:00003537 12633 0001:00003538 12634 0001:0000353A 12636 0001:0000353E
 12659 0001:00003540 12660 0001:00003542 12661 0001:00003544 12667 0001:00003545
 12669 0001:00003546 12671 0001:0000354B 12678 0001:0000354C 12679 0001:0000354E
 12680 0001:00003550 12681 0001:00003552 12682 0001:00003555 12683 0001:00003556
 12685 0001:00003558 12686 0001:00003559 12687 0001:0000355B 12688 0001:0000355E
 12689 0001:00003563 12690 0001:00003565 12691 0001:00003567 12692 0001:00003569
 12693 0001:0000356A 12694 0001:0000356D 12695 0001:00003572 12696 0001:00003573
 12697 0001:00003576 12698 0001:00003577 12699 0001:00003579 12700 0001:0000357D
 12701 0001:0000357F 12702 0001:00003582 12704 0001:00003587 12705 0001:00003589
 12707 0001:0000358A 12708 0001:0000358C 12713 0001:00003590 12714 0001:00003595
 12718 0001:00003598 12719 0001:0000359D 12748 0001:000035A0 12750 0001:000035A1
 12751 0001:000035A3 12753 0001:000035A5 12754 0001:000035A8 12755 0001:000035AA
 12759 0001:000035AC 12760 0001:000035AD 12761 0001:000035AF 12762 0001:000035B1
 12768 0001:000035B3 12769 0001:000035B5 12770 0001:000035B7 12771 0001:000035B9
 12772 0001:000035BB 12776 0001:000035BD 12777 0001:000035BF 12778 0001:000035C3
 12779 0001:000035C8 12782 0001:000035CA 12783 0001:000035CC 12785 0001:000035CE
 12786 0001:000035D0 12790 0001:000035D2 12791 0001:000035D6 12793 0001:000035DB
 12794 0001:000035DC 12795 0001:000035DF 12804 0001:000035E0 12805 0001:000035E1
 12806 0001:000035E2 12808 0001:000035E3 12809 0001:000035E5 12810 0001:000035E7
 12812 0001:000035E9 12814 0001:000035EE 12815 0001:000035F0 12816 0001:000035F2
 12818 0001:000035F4 12822 0001:000035F7 12823 0001:000035F8 12824 0001:000035FA
 12825 0001:000035FC 12829 0001:000035FE 12830 0001:00003600 12831 0001:00003602
 12832 0001:00003604 12833 0001:00003606 12834 0001:00003608 12839 0001:0000360A
 12840 0001:0000360C 12841 0001:0000360E 12842 0001:00003611 12846 0001:00003616
 12847 0001:00003618 12848 0001:0000361A 12849 0001:0000361D 12850 0001:0000361F
 12853 0001:00003624 12854 0001:00003625 12855 0001:00003626 12856 0001:00003627
 12865 0001:00003628 12866 0001:0000362A 12868 0001:0000362C 12869 0001:0000362D
 12870 0001:0000362E 12871 0001:0000362F 12873 0001:00003630 12874 0001:00003632
 12875 0001:00003634 12879 0001:00003636 12880 0001:00003638 12881 0001:00003639
 12882 0001:0000363B 12883 0001:0000363D 12885 0001:00003640 12886 0001:00003641
 12887 0001:00003643 12889 0001:00003645 12890 0001:00003647 12891 0001:00003649
 12894 0001:0000364B 12898 0001:0000364E 12899 0001:00003650 12900 0001:00003652
 12901 0001:00003657 12903 0001:00003658 12904 0001:0000365A 12905 0001:0000365C
 12911 0001:0000365E 12912 0001:00003660 12913 0001:00003663 12914 0001:00003666
 12915 0001:00003668 12916 0001:0000366A 12917 0001:0000366C 12921 0001:00003671
 12922 0001:00003673 12923 0001:00003675 12924 0001:00003677 12925 0001:00003679
 12928 0001:0000367E 12929 0001:0000367F 12930 0001:00003680 12931 0001:00003681
 12933 0001:00003682 12942 0001:00003684 12943 0001:00003686 12945 0001:00003688
 12946 0001:0000368A 12948 0001:0000368C 12949 0001:0000368D 12950 0001:0000368E
 12952 0001:0000368F 12953 0001:00003691 12955 0001:00003693 12957 0001:00003696
 12959 0001:00003697 12961 0001:0000369A 12962 0001:0000369B 12963 0001:0000369D
 12964 0001:0000369F 12966 0001:000036A0 12968 0001:000036A2 12970 0001:000036A4
 12971 0001:000036A6 12972 0001:000036A8 12973 0001:000036AA 12974 0001:000036AB
 12976 0001:000036AC 12977 0001:000036AE 12978 0001:000036B0 12979 0001:000036B1
 12980 0001:000036B2 12981 0001:000036B4 12982 0001:000036B6 12985 0001:000036B8
 12986 0001:000036B9 12987 0001:000036BB 12990 0001:000036BD 12991 0001:000036BF
 12994 0001:000036C0 12995 0001:000036C1 12996 0001:000036C3 12998 0001:000036C5
 12999 0001:000036C6 13000 0001:000036C7 13002 0001:000036C8 13010 0001:000036CC
 13011 0001:000036CD 13012 0001:000036CE 13013 0001:000036CF 13014 0001:000036D1
 13015 0001:000036D3 13017 0001:000036D5 13018 0001:000036D7 13020 0001:000036D9
 13021 0001:000036DB 13022 0001:000036DD 13024 0001:000036DF 13025 0001:000036E3
 13027 0001:000036E5 13028 0001:000036E8 13029 0001:000036EB 13030 0001:000036EC
 13031 0001:000036EE 13032 0001:000036F3 13033 0001:000036F4 13034 0001:000036F7
 13035 0001:000036F9 13036 0001:000036FC 13037 0001:00003700 13040 0001:00003702
 13041 0001:00003704 13042 0001:00003709 13044 0001:0000370B 13045 0001:0000370D
 13046 0001:0000370F 13048 0001:00003711 13049 0001:00003713 13050 0001:00003716
 13051 0001:00003718 13052 0001:0000371A 13055 0001:0000371C 13058 0001:00003721
 13059 0001:00003723 13060 0001:00003728 13063 0001:0000372A 13064 0001:0000372B
 13065 0001:0000372C 13066 0001:0000372D 13220 0001:00003730 13221 0001:00003732
 13222 0001:00003737 13233 0001:00003738 13234 0001:0000373A 13235 0001:0000373C
 13236 0001:0000373D 13237 0001:0000373F 13238 0001:00003744 13239 0001:00003746
 13241 0001:0000374C 13265 0001:00003750 13266 0001:00003752 13267 0001:00003754
 13268 0001:00003756 13269 0001:00003757 13272 0001:0000375C 13286 0001:00003760
 13287 0001:00003762 13288 0001:00003764 13289 0001:00003766 13290 0001:0000376C
 13291 0001:0000376D 13292 0001:0000376E 13293 0001:00003773 13295 0001:00003774
 13307 0001:00003778 13308 0001:00003779 13309 0001:0000377A 13310 0001:0000377C
 13311 0001:0000377E 13312 0001:00003780 13313 0001:00003782 13314 0001:00003784
 13315 0001:0000378A 13316 0001:0000378B 13317 0001:00003790 13318 0001:00003793
 13319 0001:00003794 13320 0001:00003796 13321 0001:00003797 13322 0001:00003798
 13336 0001:0000379C 13337 0001:0000379E 13338 0001:000037A4 13339 0001:000037A7
 13340 0001:000037A9 13341 0001:000037AF 13342 0001:000037B0 13343 0001:000037B1
 13344 0001:000037B2 13345 0001:000037B7 13346 0001:000037B9 13347 0001:000037BF
 13366 0001:000037C0 13367 0001:000037D5 13369 0001:000037D9 13370 0001:000037E0
 13372 0001:000037E2 13374 0001:000037ED 13375 0001:00003802 13377 0001:00003806
 13378 0001:00003813 13382 0001:00003815 13383 0001:00003817 13384 0001:00003820
 13385 0001:00003830 13386 0001:00003836 13387 0001:0000383F 13411 0001:0000384C
 13412 0001:0000384E 13414 0001:00003854 13416 0001:00003855 13417 0001:00003856
 13418 0001:00003857 13419 0001:0000385C 13420 0001:0000385E 13422 0001:00003864
 13423 0001:00003865 13424 0001:00003867 13426 0001:00003869 13427 0001:0000386E
 13485 0001:00003870 13486 0001:00003872 13487 0001:00003874 13488 0001:00003876
 13489 0001:00003877 13490 0001:0000387A 13491 0001:0000387C 13492 0001:00003880
 13493 0001:00003882 13494 0001:00003886 13495 0001:00003888 13496 0001:0000388C
 13497 0001:0000388E 13498 0001:00003891 13499 0001:00003893 13500 0001:00003896
 13501 0001:00003899 13502 0001:0000389C 13503 0001:0000389E 13504 0001:0000389F
 13505 0001:000038A1 13506 0001:000038A3 13507 0001:000038A8 13557 0001:000038AC
 13558 0001:000038AE 13559 0001:000038B0 13560 0001:000038B2 13561 0001:000038B5
 13562 0001:000038BA 13599 0001:000038BC 13600 0001:000038BE 13601 0001:000038C0
 13605 0001:000038C1 13606 0001:000038C2 13607 0001:000038C4 13609 0001:000038C9
 13624 0001:000038CC 13625 0001:000038CE 13626 0001:000038D0 13627 0001:000038D3
 13629 0001:000038D5 13636 0001:000038D8 13637 0001:000038E2 13638 0001:000038EB
 13640 0001:000038EF 13641 0001:000038FB 13642 0001:00003905 13643 0001:00003909
 13644 0001:00003919 13645 0001:00003927 13647 0001:00003931 13673 0001:00003938
 13674 0001:00003939 13675 0001:0000393A 13676 0001:0000393B 13677 0001:0000393C
 13679 0001:0000393E 13681 0001:00003940 13682 0001:00003944 13683 0001:00003946
 13684 0001:00003948 13686 0001:0000394B 13687 0001:0000394C 13689 0001:0000394E
 13690 0001:00003950 13691 0001:00003955 13692 0001:00003956 13695 0001:00003958
 13696 0001:0000395C 13697 0001:0000395E 13698 0001:00003960 13699 0001:00003962
 13700 0001:00003965 13701 0001:00003967 13703 0001:0000396C 13704 0001:0000396D
 13706 0001:0000396F 13707 0001:00003970 13708 0001:00003971 13710 0001:00003976
 13711 0001:00003977 13712 0001:00003978 13713 0001:00003979 13714 0001:0000397A
 13715 0001:0000397D 13716 0001:0000397F 13723 0001:00003980 13724 0001:00003981
 13725 0001:00003982 13727 0001:00003983 13728 0001:00003985 13730 0001:00003987
 13731 0001:00003989 13733 0001:0000398B 13734 0001:0000398D 13736 0001:0000398F
 13737 0001:00003991 13739 0001:00003993 13740 0001:00003996 13742 0001:00003999
 13743 0001:0000399B 13744 0001:0000399D 13747 0001:0000399F 13748 0001:000039A0
 13749 0001:000039A3 13751 0001:000039A5 13752 0001:000039A7 13753 0001:000039A9
 13754 0001:000039AB 13755 0001:000039AD 13756 0001:000039AE 13757 0001:000039B0
 13758 0001:000039B3 13759 0001:000039B6 13760 0001:000039B8 13761 0001:000039BA
 13762 0001:000039BD 13763 0001:000039C0 13764 0001:000039C1 13765 0001:000039C3
 13767 0001:000039C5 13768 0001:000039C8 13770 0001:000039CB 13771 0001:000039CC
 13772 0001:000039CF 13774 0001:000039D1 13775 0001:000039D4 13776 0001:000039D7
 13777 0001:000039DA 13780 0001:000039DC 13781 0001:000039DE 13784 0001:000039E0
 13785 0001:000039E3 13786 0001:000039E5 13789 0001:000039E7 13790 0001:000039EA
 13791 0001:000039EC 13794 0001:000039EE 13795 0001:000039EF 13796 0001:000039F2
 13797 0001:000039F4 13798 0001:000039F7 13799 0001:000039FA 13802 0001:000039FD
 13803 0001:000039FE 13804 0001:000039FF 13805 0001:00003A00 13811 0001:00003A04
 13812 0001:00003A10 13813 0001:00003A17 13815 0001:00003A20 13816 0001:00003A21
 13818 0001:00003A27 13820 0001:00003A2F 13821 0001:00003A31 13823 0001:00003A37
 13824 0001:00003A46 13953 0001:00003A50 13954 0001:00003A57 13955 0001:00003A59
 13957 0001:00003A5D 13958 0001:00003A66 13959 0001:00003A6D 13961 0001:00003A71
 13962 0001:00003A77 13965 0001:00003A84 13966 0001:00003A8D 13990 0001:00003A94
 13991 0001:00003A96 13992 0001:00003A98 13993 0001:00003A9A 13994 0001:00003A9B
 13995 0001:00003A9E 13996 0001:00003AA0 13997 0001:00003AA1 13998 0001:00003AA2
 13999 0001:00003AA7 14000 0001:00003AA8 14001 0001:00003AAA 14002 0001:00003AB0
 14004 0001:00003AB2 14053 0001:00003AB4 14055 0001:00003AB6 14056 0001:00003AB7
 14058 0001:00003ABA 14059 0001:00003ABB 14061 0001:00003ABC 14062 0001:00003ABE
 14063 0001:00003AC2 14067 0001:00003AC6 14068 0001:00003AC8 14069 0001:00003ACB
 14070 0001:00003ACD 14071 0001:00003ACF 14072 0001:00003AD4 14073 0001:00003AD9
 14074 0001:00003ADC 14075 0001:00003ADD 14077 0001:00003ADF 14078 0001:00003AE0
 14079 0001:00003AE1 14080 0001:00003AE2 14147 0001:00003AE4 14148 0001:00003AE6
 14150 0001:00003AEC 14151 0001:00003AED 14152 0001:00003AEE 14153 0001:00003AEF
 14154 0001:00003AF1 14155 0001:00003AF3 14157 0001:00003AF5 14158 0001:00003AF7
 14159 0001:00003AF9 14160 0001:00003AFC 14162 0001:00003AFE 14163 0001:00003B00
 14164 0001:00003B02 14165 0001:00003B04 14166 0001:00003B06 14167 0001:00003B08
 14168 0001:00003B0A 14169 0001:00003B0C 14170 0001:00003B0E 14171 0001:00003B10
 14172 0001:00003B12 14173 0001:00003B14 14174 0001:00003B16 14175 0001:00003B18
 14176 0001:00003B1A 14177 0001:00003B1C 14178 0001:00003B1D 14179 0001:00003B1E
 14180 0001:00003B1F 14186 0001:00003B24 14187 0001:00003B26 14188 0001:00003B29
 14189 0001:00003B2A 14190 0001:00003B2C 14193 0001:00003B2E 14194 0001:00003B30
 14195 0001:00003B33 14196 0001:00003B36 14197 0001:00003B39 14198 0001:00003B3C
 14199 0001:00003B3D 14200 0001:00003B3F 14203 0001:00003B41 14204 0001:00003B42
 14206 0001:00003B44 14207 0001:00003B48 14208 0001:00003B4A 14209 0001:00003B4E
 14210 0001:00003B52 14211 0001:00003B54 14212 0001:00003B59 14213 0001:00003B5A
 14214 0001:00003B5C 14215 0001:00003B5D 14218 0001:00003B5F 14219 0001:00003B60
 14221 0001:00003B62 14222 0001:00003B64 14223 0001:00003B68 14224 0001:00003B6A
 14225 0001:00003B6F 14226 0001:00003B70 14227 0001:00003B72 14231 0001:00003B73
 14232 0001:00003B74 14233 0001:00003B75 14235 0001:00003B76 14265 0001:00003B78
 14267 0001:00003B7A 14268 0001:00003B7B 14270 0001:00003B7E 14271 0001:00003B7F
 14273 0001:00003B80 14274 0001:00003B82 14275 0001:00003B86 14279 0001:00003B8A
 14280 0001:00003B8C 14281 0001:00003B8F 14282 0001:00003B91 14283 0001:00003B93
 14284 0001:00003B98 14285 0001:00003B9D 14286 0001:00003BA0 14287 0001:00003BA1
 14289 0001:00003BA3 14291 0001:00003BA5 14292 0001:00003BA6 14293 0001:00003BA7
 14294 0001:00003BA8 14299 0001:00003BAC 14300 0001:00003BB5 14302 0001:00003BBC
 14303 0001:00003BC3 14370 0001:00003BC4 14371 0001:00003BC7 14373 0001:00003BCD
 14374 0001:00003BCE 14375 0001:00003BCF 14376 0001:00003BD0 14377 0001:00003BD1
 14378 0001:00003BD3 14379 0001:00003BD5 14381 0001:00003BD7 14382 0001:00003BD9
 14383 0001:00003BDB 14385 0001:00003BDE 14386 0001:00003BE0 14388 0001:00003BE2
 14389 0001:00003BE4 14391 0001:00003BE6 14392 0001:00003BE8 14394 0001:00003BEA
 14395 0001:00003BEC 14397 0001:00003BEE 14398 0001:00003BF0 14400 0001:00003BF2
 14401 0001:00003BF4 14403 0001:00003BFA 14404 0001:00003BFC 14406 0001:00003C02
 14409 0001:00003C07 14410 0001:00003C0A 14411 0001:00003C0C 14412 0001:00003C0E
 14413 0001:00003C13 14415 0001:00003C18 14416 0001:00003C1A 14417 0001:00003C1F
 14420 0001:00003C24 14421 0001:00003C27 14422 0001:00003C29 14423 0001:00003C2B
 14424 0001:00003C30 14426 0001:00003C32 14427 0001:00003C34 14428 0001:00003C39
 14430 0001:00003C3B 14431 0001:00003C3D 14432 0001:00003C40 14433 0001:00003C45
 14434 0001:00003C46 14435 0001:00003C48 14437 0001:00003C4A 14438 0001:00003C4B
 14440 0001:00003C4D 14441 0001:00003C51 14442 0001:00003C53 14443 0001:00003C57
 14444 0001:00003C5B 14445 0001:00003C5D 14446 0001:00003C62 14447 0001:00003C63
 14448 0001:00003C65 14449 0001:00003C66 14452 0001:00003C68 14453 0001:00003C69
 14457 0001:00003C6B 14458 0001:00003C6D 14459 0001:00003C71 14460 0001:00003C73
 14461 0001:00003C78 14462 0001:00003C79 14463 0001:00003C7B 14464 0001:00003C7C
 14467 0001:00003C7E 14468 0001:00003C80 14469 0001:00003C83 14470 0001:00003C88
 14471 0001:00003C89 14472 0001:00003C8B 14475 0001:00003C8D 14476 0001:00003C8F
 14477 0001:00003C91 14478 0001:00003C94 14479 0001:00003C99 14480 0001:00003C9A
 14481 0001:00003C9C 14484 0001:00003C9E 14485 0001:00003C9F 14486 0001:00003CA0
 14487 0001:00003CA1 14488 0001:00003CA2 14489 0001:00003CA4 14492 0001:00003CA9
 14493 0001:00003CAA 14494 0001:00003CAB 14495 0001:00003CAC 14497 0001:00003CAD
 14507 0001:00003CB0 14508 0001:00003CB5 14509 0001:00003CBA 14686 0001:00003CBC
 14687 0001:00003CC5 14689 0001:00003CCC 14690 0001:00003CD3 14698 0001:00003CD4
 14699 0001:00003CD5 14700 0001:00003CD6 14701 0001:00003CD7 14703 0001:00003CD8
 14704 0001:00003CDA 14706 0001:00003CDC 14707 0001:00003CDE 14709 0001:00003CE1
 14710 0001:00003CE5 14711 0001:00003CE8 14712 0001:00003CEA 14713 0001:00003CED
 14715 0001:00003CEE 14716 0001:00003CF1 14717 0001:00003CF3 14718 0001:00003CF5
 14719 0001:00003CF7 14720 0001:00003CF9 14721 0001:00003CFB 14723 0001:00003D00
 14725 0001:00003D03 14726 0001:00003D05 14727 0001:00003D07 14729 0001:00003D09
 14730 0001:00003D0C 14731 0001:00003D0E 14732 0001:00003D11 14733 0001:00003D13
 14734 0001:00003D16 14735 0001:00003D18 14736 0001:00003D1B 14737 0001:00003D1D
 14738 0001:00003D20 14739 0001:00003D22 14740 0001:00003D25 14741 0001:00003D2B
 14742 0001:00003D2E 14743 0001:00003D34 14744 0001:00003D36 14745 0001:00003D37
 14746 0001:00003D38 14747 0001:00003D39 14748 0001:00003D3A 14751 0001:00003D3F
 14752 0001:00003D42 14753 0001:00003D44 14754 0001:00003D49 14755 0001:00003D4E
 14758 0001:00003D50 14759 0001:00003D53 14760 0001:00003D55 14761 0001:00003D5A
 14762 0001:00003D5F 14765 0001:00003D61 14766 0001:00003D64 14767 0001:00003D66
 14768 0001:00003D6B 14769 0001:00003D70 14772 0001:00003D72 14773 0001:00003D74
 14774 0001:00003D77 14775 0001:00003D7B 14776 0001:00003D7F 14777 0001:00003D83
 14778 0001:00003D85 14779 0001:00003D88 14780 0001:00003D8A 14781 0001:00003D8F
 14782 0001:00003D90 14785 0001:00003D92 14786 0001:00003D94 14787 0001:00003D97
 14788 0001:00003D9B 14789 0001:00003D9C 14790 0001:00003D9E 14791 0001:00003DA1
 14792 0001:00003DA3 14793 0001:00003DA8 14794 0001:00003DA9 14797 0001:00003DAB
 14798 0001:00003DAE 14799 0001:00003DB0 14800 0001:00003DB5 14801 0001:00003DBA
 14804 0001:00003DBC 14805 0001:00003DBE 14806 0001:00003DC1 14807 0001:00003DC3
 14808 0001:00003DC8 14811 0001:00003DCD 14812 0001:00003DD0 14813 0001:00003DD3
 14814 0001:00003DD4 14816 0001:00003DDA 14817 0001:00003DDB 14818 0001:00003DDD
 14819 0001:00003DDF 14820 0001:00003DE2 14821 0001:00003DE4 14824 0001:00003DE9
 14825 0001:00003DEA 14826 0001:00003DEB 14827 0001:00003DEC 14828 0001:00003DED
 14855 0001:00003DF0 14856 0001:00003DF1 14857 0001:00003DF2 14858 0001:00003DF3
 14860 0001:00003DF4 14861 0001:00003DF6 14862 0001:00003DF8 14863 0001:00003DFA
 14865 0001:00003DFE 14867 0001:00003E00 14868 0001:00003E03 14869 0001:00003E05
 14870 0001:00003E08 14871 0001:00003E0A 14872 0001:00003E0D 14873 0001:00003E0F
 14874 0001:00003E12 14875 0001:00003E14 14876 0001:00003E17 14877 0001:00003E19
 14878 0001:00003E1C 14879 0001:00003E22 14880 0001:00003E25 14881 0001:00003E2B
 14882 0001:00003E2D 14883 0001:00003E2E 14884 0001:00003E2F 14885 0001:00003E30
 14886 0001:00003E31 14889 0001:00003E36 14890 0001:00003E38 14891 0001:00003E3A
 14892 0001:00003E3F 14893 0001:00003E42 14894 0001:00003E45 14895 0001:00003E46
 14896 0001:00003E48 14899 0001:00003E4D 14900 0001:00003E4F 14901 0001:00003E51
 14902 0001:00003E56 14903 0001:00003E59 14904 0001:00003E5C 14905 0001:00003E5D
 14906 0001:00003E5F 14909 0001:00003E61 14910 0001:00003E63 14911 0001:00003E65
 14912 0001:00003E6A 14913 0001:00003E6D 14914 0001:00003E70 14915 0001:00003E71
 14916 0001:00003E73 14919 0001:00003E75 14920 0001:00003E77 14921 0001:00003E7A
 14923 0001:00003E7E 14924 0001:00003E80 14925 0001:00003E82 14926 0001:00003E85
 14927 0001:00003E88 14928 0001:00003E8D 14929 0001:00003E8F 14930 0001:00003E91
 14931 0001:00003E92 14932 0001:00003E94 14935 0001:00003E96 14936 0001:00003E98
 14937 0001:00003E9A 14938 0001:00003E9C 14939 0001:00003EA1 14940 0001:00003EA3
 14941 0001:00003EA6 14942 0001:00003EAA 14943 0001:00003EAE 14944 0001:00003EAF
 14945 0001:00003EB1 14948 0001:00003EB3 14949 0001:00003EB5 14950 0001:00003EB7
 14951 0001:00003EBC 14952 0001:00003EBF 14953 0001:00003EC2 14954 0001:00003EC3
 14955 0001:00003EC5 14958 0001:00003EC7 14959 0001:00003EC9 14960 0001:00003ECB
 14961 0001:00003ECD 14962 0001:00003ED2 14963 0001:00003ED5 14964 0001:00003ED8
 14965 0001:00003ED9 14968 0001:00003EDB 14969 0001:00003EDC 14970 0001:00003EDD
 14971 0001:00003EDE 14972 0001:00003EDF 14973 0001:00003EE2 15106 0001:00003EE4
 15107 0001:00003EE6 15108 0001:00003EEB 15127 0001:00003EEC 15128 0001:00003EED
 15133 0001:00003EEE 15134 0001:00003EF2 15135 0001:00003EF5 15137 0001:00003EF7
 15138 0001:00003EFB 15139 0001:00003EFF 15141 0001:00003F01 15142 0001:00003F04
 15143 0001:00003F08 15145 0001:00003F0A 15146 0001:00003F0B 15148 0001:00003F0C
 15149 0001:00003F0F 15203 0001:00003F10 15204 0001:00003F11 15205 0001:00003F12
 15206 0001:00003F13 15207 0001:00003F14 15209 0001:00003F16 15210 0001:00003F1A
 15212 0001:00003F1E 15213 0001:00003F20 15215 0001:00003F22 15216 0001:00003F24
 15218 0001:00003F26 15219 0001:00003F28 15232 0001:00003F2A 15233 0001:00003F2C
 15234 0001:00003F2E 15235 0001:00003F30 15236 0001:00003F32 15237 0001:00003F35
 15240 0001:00003F38 15241 0001:00003F3A 15242 0001:00003F3C 15243 0001:00003F3E
 15244 0001:00003F40 15245 0001:00003F43 15248 0001:00003F46 15249 0001:00003F48
 15250 0001:00003F4D 15262 0001:00003F4E 15263 0001:00003F50 15266 0001:00003F52
 15267 0001:00003F54 15268 0001:00003F56 15269 0001:00003F58 15270 0001:00003F5A
 15271 0001:00003F5C 15272 0001:00003F5E 15273 0001:00003F60 15274 0001:00003F62
 15277 0001:00003F64 15278 0001:00003F66 15279 0001:00003F68 15282 0001:00003F69
 15289 0001:00003F6B 15290 0001:00003F6C 15291 0001:00003F72 15292 0001:00003F74
 15293 0001:00003F76 15294 0001:00003F78 15297 0001:00003F7B 15298 0001:00003F7C
 15299 0001:00003F7D 15300 0001:00003F7E 15301 0001:00003F7F 15304 0001:00003F82
 15305 0001:00003F84 15306 0001:00003F86 15307 0001:00003F88 15447 0001:00003F8C
 15448 0001:00003F8D 15449 0001:00003F8E 15450 0001:00003F8F 15451 0001:00003F90
 15456 0001:00003F92 15457 0001:00003F96 15458 0001:00003F9A 15459 0001:00003F9C
 15461 0001:00003F9E 15462 0001:00003FA0 15464 0001:00003FA2 15465 0001:00003FA4
 15476 0001:00003FA6 15477 0001:00003FA8 15478 0001:00003FAA 15479 0001:00003FAC
 15480 0001:00003FAE 15481 0001:00003FB1 15484 0001:00003FB4 15485 0001:00003FB6
 15486 0001:00003FB8 15487 0001:00003FBA 15488 0001:00003FBC 15491 0001:00003FBF
 15492 0001:00003FC1 15493 0001:00003FC6 15505 0001:00003FC7 15506 0001:00003FC9
 15509 0001:00003FCB 15510 0001:00003FCD 15511 0001:00003FCF 15512 0001:00003FD1
 15513 0001:00003FD3 15514 0001:00003FD5 15515 0001:00003FD7 15516 0001:00003FD9
 15517 0001:00003FDB 15520 0001:00003FDD 15521 0001:00003FDF 15522 0001:00003FE1
 15525 0001:00003FE2 15532 0001:00003FE4 15533 0001:00003FE6 15535 0001:00003FE8
 15536 0001:00003FE9 15537 0001:00003FEF 15538 0001:00003FF1 15539 0001:00003FF3
 15540 0001:00003FF5 15543 0001:00003FF8 15544 0001:00003FF9 15545 0001:00003FFA
 15546 0001:00003FFB 15547 0001:00003FFC 15550 0001:00003FFF 15551 0001:00004001
 15552 0001:00004002 15553 0001:00004004 15554 0001:00004006 15774 0001:00004008
 15776 0001:00004015 15777 0001:00004017 15779 0001:0000402C 15780 0001:00004050
 15781 0001:00004051 15782 0001:00004066 15783 0001:00004072 15785 0001:00004078
 15786 0001:0000407D 15790 0001:0000407E 15791 0001:00004086 15792 0001:0000408B
 15793 0001:00004090 15794 0001:00004094 15796 0001:00004098 15797 0001:0000409C
 15794 0001:0000409D 15801 0001:000040A1 15803 0001:000040A5 15804 0001:000040A6
 15805 0001:000040AD 15801 0001:000040AE 15809 0001:000040B2 15811 0001:000040BC
 15814 0001:000040C8 15815 0001:000040CE 15816 0001:000040DD 15916 0001:000040E4
 15917 0001:000040F0 15918 0001:000040F5 15919 0001:000040F7 15920 0001:00004107
 15922 0001:0000410B 15923 0001:00004110 15926 0001:00004115 15925 0001:00004116
 15927 0001:0000411D 15928 0001:00004122 15930 0001:0000412A 15931 0001:0000412F
 15933 0001:00004132 15934 0001:00004136 15935 0001:00004137 15936 0001:00004139
 15939 0001:00004168 15940 0001:0000416F 15941 0001:00004170 15944 0001:00004171
 15945 0001:00004191 15946 0001:0000419E 15947 0001:000041AB 15951 0001:000041B6
 15953 0001:000041DD 15954 0001:00004203 15955 0001:00004204 15942 0001:00004206
 15957 0001:0000420B 15958 0001:00004216 15964 0001:00004232 15965 0001:00004240
 15969 0001:0000424B 15971 0001:00004275 15972 0001:0000429D 15973 0001:0000429E
 15962 0001:000042A0 15975 0001:000042A2 15976 0001:000042A9 15977 0001:000042C0
 15978 0001:000042E8 15980 0001:000042E9 15981 0001:000042F5 15983 0001:000042FC
 15984 0001:0000430B 15991 0001:00004314 15992 0001:00004316 15993 0001:00004318
 15995 0001:0000431B 16002 0001:0000431C 16003 0001:00004321 16004 0001:00004322
 16007 0001:00004324 16008 0001:00004327 16009 0001:0000432A 16010 0001:0000432F
 16014 0001:00004334 16015 0001:00004339 16019 0001:0000433C 16020 0001:00004341
 16029 0001:00004344 16030 0001:00004355 16033 0001:0000435A 16034 0001:0000435F
 16036 0001:00004363 16037 0001:00004367 16038 0001:0000436E 16039 0001:00004378
 16042 0001:0000437D 16043 0001:00004382 16045 0001:00004386 16046 0001:00004389
 16047 0001:0000438E 16051 0001:00004391 16052 0001:00004398 16053 0001:000043A0
 16054 0001:000043A7 16056 0001:000043AB 16057 0001:000043AD 16058 0001:000043B5
 16059 0001:000043C0 16060 0001:000043C7 16063 0001:000043CB 16065 0001:000043D4
 16066 0001:000043D7 16067 0001:000043E0 16068 0001:000043F9 16069 0001:00004404
 16073 0001:00004409 16074 0001:0000440B 16075 0001:00004415 16076 0001:0000441B
 16077 0001:00004420 16078 0001:00004423 16080 0001:00004427 16081 0001:0000443A
 16084 0001:00004451 16088 0001:00004467 16089 0001:0000446D 16090 0001:00004470
 16091 0001:00004472 16094 0001:00004475 16097 0001:0000448E 16099 0001:00004494
 16100 0001:00004498 16101 0001:0000449B 16102 0001:000044A8 16101 0001:000044BF
 16104 0001:000044C2 16105 0001:000044C7 16114 0001:000044D0 16115 0001:000044D1
 16116 0001:000044D5 16117 0001:000044DA 16197 0001:000044DC 16198 0001:000044DE
 16199 0001:000044E0 16202 0001:000044E2 16205 0001:000044E8 16206 0001:000044EC
 16209 0001:000044EE 16210 0001:000044EF 16213 0001:000044F1 16214 0001:000044F3
 16215 0001:000044F6 16218 0001:000044FA 16219 0001:000044FC 16220 0001:000044FE
 16221 0001:00004501 16222 0001:00004503 16223 0001:00004505 16224 0001:00004507
 16227 0001:0000450C 16228 0001:0000450F 16229 0001:00004514 16231 0001:00004515
 16240 0001:00004518 16241 0001:00004519 16245 0001:0000451B 16246 0001:0000451D
 16247 0001:0000451F 16250 0001:00004523 16251 0001:00004525 16252 0001:00004527
 16253 0001:0000452B 16254 0001:0000452D 16255 0001:0000452E 16256 0001:0000452F
 16257 0001:00004531 16258 0001:00004534 16259 0001:00004539 16260 0001:0000453A
 16263 0001:0000453B 16265 0001:0000453D 16266 0001:0000453E 16493 0001:00004540
 16494 0001:00004543 16495 0001:00004550 16496 0001:0000455A 16498 0001:00004560
 16499 0001:00004562 16515 0001:00004568 16516 0001:0000456D 16670 0001:00004570
 16671 0001:0000457A 16673 0001:00004580 16674 0001:00004593 16675 0001:000045A1
 16676 0001:000045A5 16678 0001:000045AB 16679 0001:000045AE 16685 0001:000045B8
 16686 0001:000045BE 16688 0001:000045C2 16692 0001:000045D1 16693 0001:000045D8
 16695 0001:000045D9 16686 0001:000045DB 16698 0001:000045DF 16774 0001:000045E0
 16776 0001:000045E2 16775 0001:000045E8 16777 0001:000045F3 16787 0001:000045F4
 16788 0001:00004606 16789 0001:0000460C 16790 0001:00004618 16792 0001:0000461C
 16793 0001:00004629 16796 0001:00004643 16797 0001:00004657 16801 0001:0000465C
 16803 0001:00004664 16804 0001:00004671 16805 0001:0000467E 16806 0001:00004687
 16807 0001:00004691 16809 0001:0000469C 16811 0001:000046A2 16812 0001:000046A7
 16815 0001:000046C0 16816 0001:000046CA 16817 0001:000046DF 16819 0001:000046F0
 16820 0001:00004705 16821 0001:0000470A 16823 0001:00004710 16824 0001:00004729
 16825 0001:00004731 16826 0001:00004750 16827 0001:0000475F 16813 0001:00004761
 16829 0001:0000476A 16830 0001:00004781 16831 0001:000047AC 16832 0001:000047BA
 16833 0001:000047CD 16834 0001:000047D1 16837 0001:0000482F 16838 0001:0000483D
 16839 0001:00004844 16840 0001:00004854 16841 0001:00004874 16842 0001:00004892
 16843 0001:00004896 16845 0001:000048A7 16847 0001:000048B8 16848 0001:000048CD
 16849 0001:000048E0 16850 0001:000048E2 16852 0001:000048FF 16853 0001:00004917
 16854 0001:00004927 16856 0001:00004935 16858 0001:00004936 16860 0001:0000493C
 16861 0001:00004952 16863 0001:00004964 16866 0001:0000496E 16867 0001:0000498A
 16868 0001:0000499C 16871 0001:000049A0 16872 0001:000049A4 16873 0001:000049C0
 16878 0001:000049D4 16917 0001:00004A1C 16918 0001:00004A21 16922 0001:00004A24
 16923 0001:00004A29 16928 0001:00004A2C 16929 0001:00004A2F 16930 0001:00004A39
 16931 0001:00004A41 16932 0001:00004A44 16933 0001:00004A49 16938 0001:00004A4C
 16939 0001:00004A4E 16940 0001:00004A54 16942 0001:00004A5F 16943 0001:00004A6B
 16946 0001:00004A7A 16947 0001:00004A7C 16949 0001:00004A80 16951 0001:00004A8D
 16952 0001:00004A8F 16953 0001:00004A93 16954 0001:00004A9F 16956 0001:00004AA1
 16947 0001:00004AA3 16959 0001:00004AA7 16964 0001:00004AAC 16965 0001:00004AB8
 16966 0001:00004AC0 16968 0001:00004AC6 16969 0001:00004AD4 16972 0001:00004AEC
 16973 0001:00004AF1 16966 0001:00004AF9 16978 0001:00004AFF 16982 0001:00004B08
 16983 0001:00004B10 16984 0001:00004B15 16989 0001:00004B18 16990 0001:00004B1F
 16991 0001:00004B2D 16993 0001:00004B45 16994 0001:00004B50 16997 0001:00004B5C
 16998 0001:00004B61 17000 0001:00004B65 17002 0001:00004B6C 17003 0001:00004B73
 17005 0001:00004B75 16998 0001:00004B77 17009 0001:00004B83 17026 0001:00004B88
 17027 0001:00004B8A 17028 0001:00004B8C 17029 0001:00004B8E 17030 0001:00004B94
 17031 0001:00004B95 17032 0001:00004B96 17033 0001:00004B98 17034 0001:00004B9B
 17036 0001:00004B9C 17069 0001:00004BA0 17070 0001:00004BA2 17071 0001:00004BA4
 17072 0001:00004BA5 17073 0001:00004BA6 17074 0001:00004BA8 17075 0001:00004BA9
 17076 0001:00004BAC 17077 0001:00004BAD 17078 0001:00004BAF 17079 0001:00004BB1
 17080 0001:00004BB3 17081 0001:00004BB5 17083 0001:00004BB6 17084 0001:00004BB8
 17085 0001:00004BB9 17086 0001:00004BBC 17090 0001:00004BBD 17091 0001:00004BBF
 17092 0001:00004BC1 17093 0001:00004BC3 17094 0001:00004BC5 17095 0001:00004BC7
 17096 0001:00004BC8 17098 0001:00004BCB 17120 0001:00004BCC 17121 0001:00004BCE
 17122 0001:00004BD4 17123 0001:00004BD5 17124 0001:00004BD7 17125 0001:00004BD9
 17126 0001:00004BDA 17127 0001:00004BDB 17128 0001:00004BDC 17129 0001:00004BDE
 17130 0001:00004BE0 17131 0001:00004BE2 17132 0001:00004BE4 17133 0001:00004BE6
 17134 0001:00004BEB 17135 0001:00004BED 17136 0001:00004BEF 17137 0001:00004BF1
 17138 0001:00004BF2 17139 0001:00004BF4 17140 0001:00004BF7 17141 0001:00004BF8
 17142 0001:00004BFA 17143 0001:00004BFB 17148 0001:00004BFC 17149 0001:00004C06
 17154 0001:00004C08 17155 0001:00004C11 17159 0001:00004C14 17160 0001:00004C1A
 17161 0001:00004C21 17167 0001:00004C24 17168 0001:00004C29 17169 0001:00004C30
 17172 0001:00004C34 17173 0001:00004C3B 17174 0001:00004C4C 17176 0001:00004C50
 17177 0001:00004C55 17180 0001:00004C5C 17181 0001:00004C62 17182 0001:00004C6B
 17185 0001:00004C70 17186 0001:00004C78 17187 0001:00004C83 17188 0001:00004C87
 17189 0001:00004C92 17328 0001:00004C98 17329 0001:00004CA6 17330 0001:00004CA8
 17331 0001:00004CB2 17332 0001:00004CB4 17333 0001:00004CB6 17337 0001:00004CC0
 17338 0001:00004CC7 17339 0001:00004CC8 17341 0001:00004CCD 17342 0001:00004CD0
 17344 0001:00004CD3 17346 0001:00004CDB 17348 0001:00004CE3 17349 0001:00004CEE
 17350 0001:00004CFD 17351 0001:00004D07 17355 0001:00004D0C 17357 0001:00004D14
 17358 0001:00004D1F 17359 0001:00004D29 17335 0001:00004D2C 17362 0001:00004D36
 17363 0001:00004D3F 17367 0001:00004D45 17369 0001:00004D4A 17370 0001:00004D51
 17371 0001:00004D52 17373 0001:00004D57 17374 0001:00004D5F 17375 0001:00004D60
 17377 0001:00004D61 17367 0001:00004D62 17380 0001:00004D67 17381 0001:00004D6C
 17399 0001:00004D74 17400 0001:00004D85 17402 0001:00004D8B 17403 0001:00004D90
 17405 0001:00004D95 17406 0001:00004D9C 17407 0001:00004D9E 17408 0001:00004DA0
 17412 0001:00004DAF 17413 0001:00004DB7 17414 0001:00004DB8 17416 0001:00004DBD
 17417 0001:00004DC6 17418 0001:00004DC9 17420 0001:00004DCE 17421 0001:00004DD4
 17422 0001:00004DD5 17423 0001:00004DE3 17424 0001:00004DEC 17426 0001:00004DFC
 17427 0001:00004E02 17428 0001:00004E03 17430 0001:00004E11 17433 0001:00004E29
 17434 0001:00004E30 17410 0001:00004E31 17436 0001:00004E3F 17437 0001:00004E48
 17441 0001:00004E53 17443 0001:00004E58 17444 0001:00004E5E 17445 0001:00004E5F
 17447 0001:00004E64 17448 0001:00004E69 17449 0001:00004E6C 17451 0001:00004E71
 17452 0001:00004E77 17453 0001:00004E78 17454 0001:00004E80 17456 0001:00004E85
 17457 0001:00004E8B 17458 0001:00004E8C 17460 0001:00004E94 17441 0001:00004E95
 17463 0001:00004E9A 17464 0001:00004EA1 17470 0001:00004EAC 17471 0001:00004EC5
 17472 0001:00004ECC 17473 0001:00004ED7 17475 0001:00004EE9 17476 0001:00004F12
 17477 0001:00004F16 17479 0001:00004F23 17480 0001:00004F2B 17481 0001:00004F52
 17487 0001:00004F58 17488 0001:00004F71 17489 0001:00004F78 17490 0001:00004F7C
 17492 0001:00004F8D 17493 0001:00004FB6 17494 0001:00004FBA 17496 0001:00004FC7
 17497 0001:00004FCF 17498 0001:00004FF6 17501 0001:00004FFC 17502 0001:00005015
 17503 0001:00005046 17776 0001:0000504C 17777 0001:00005058 17778 0001:0000505C
 17779 0001:00005065 17783 0001:0000508F 17784 0001:00005099 17898 0001:000050A4
 17899 0001:000050BE 17900 0001:000050CF 17901 0001:000050EC 17902 0001:000050F2
 17903 0001:00005113 17965 0001:00005118 17966 0001:0000513B 17967 0001:00005145
 17972 0001:0000514F 17974 0001:00005169 17914 0001:0000516C 17919 0001:00005179
 17921 0001:00005180 17922 0001:0000518A 17931 0001:00005194 17934 0001:0000519B
 17937 0001:000051A5 17939 0001:000051B3 17941 0001:000051B8 17942 0001:000051C1
 17943 0001:000051CA 17946 0001:000051D3 17947 0001:000051DD 17950 0001:000051E7
 17952 0001:000051F8 17953 0001:00005208 17956 0001:00005214 17960 0001:00005225
 17962 0001:00005234 17964 0001:0000523E

Line numbers for SysInit(SysInit.pas) segment .text

    99 0001:00005240   102 0001:00005248   114 0001:00005250   117 0001:00005258
   128 0001:00005260   129 0001:00005268   285 0001:0000526C   286 0001:00005271
   293 0001:00005274   294 0001:00005275   295 0001:0000527C   299 0001:00005280
   300 0001:00005293   301 0001:0000529A   302 0001:0000529E   304 0001:000052AA
   305 0001:000052B6   359 0001:000052B8   360 0001:000052BE   361 0001:000052C3
   362 0001:000052C5   363 0001:000052C7   364 0001:000052CE   365 0001:000052D1
   368 0001:000052D2   369 0001:000052D7   370 0001:000052DC   371 0001:000052DD
   372 0001:000052E2   373 0001:000052E4   374 0001:000052E6   377 0001:000052E7
   378 0001:000052EC   381 0001:000052ED   382 0001:000052EE   383 0001:000052F3
   384 0001:000052F5   385 0001:000052F7   423 0001:000052F8   424 0001:00005302
   661 0001:00005304   662 0001:00005307   663 0001:0000530E   664 0001:0000531A
   665 0001:00005324   666 0001:0000532B   667 0001:00005332   668 0001:00005337
   669 0001:00005343   840 0001:00005378   840 0001:0000537F

Line numbers for Types(Types.pas) segment .text

   462 0001:00005380   463 0001:0000538F   464 0001:00005397   465 0001:000053A0
   466 0001:000053A9   467 0001:000053B2   470 0001:000053B8   471 0001:000053C7
   472 0001:000053CF   473 0001:000053D8   526 0001:000053DC   529 0001:000053EB
   530 0001:000053F3   531 0001:000053FC   532 0001:00005408   534 0001:00005414
   545 0001:0000544C   545 0001:00005453

Line numbers for Windows(Windows.pas) segment .text

 28478 0001:00005520 28512 0001:00005528 28524 0001:00005530 28601 0001:00005538
 28607 0001:00005540 28627 0001:00005548 28631 0001:00005550 28682 0001:00005558
 28696 0001:00005560 28714 0001:00005568 28717 0001:00005570 28777 0001:00005578
 28791 0001:00005580 28798 0001:00005588 28801 0001:00005590 28802 0001:00005598
 28805 0001:000055A0 28807 0001:000055A8 28810 0001:000055B0 28817 0001:000055B8
 28848 0001:000055C0 28850 0001:000055C8 28851 0001:000055D0 28858 0001:000055D8
 28887 0001:000055E0 28892 0001:000055E8 28893 0001:000055F0 28894 0001:000055F8
 28902 0001:00005600 28905 0001:00005608 28932 0001:00005610 28957 0001:00005618
 28958 0001:00005620 28968 0001:00005628 28983 0001:00005630 28988 0001:00005638
 28995 0001:00005640 28996 0001:00005648 29005 0001:00005650 29008 0001:00005658
 29010 0001:00005660 29011 0001:00005668 29016 0001:00005670 29020 0001:00005678
 29021 0001:00005680 29023 0001:00005688 29027 0001:00005690 29042 0001:00005698
 29062 0001:000056A0 29065 0001:000056A8 29074 0001:000056B0 29089 0001:000056B8
 29102 0001:000056C0 29160 0001:000056C8 29169 0001:000056D0 29207 0001:000056D8
 29211 0001:000056E0 29212 0001:000056E8 29218 0001:000056F0 29243 0001:000056F8
 29255 0001:00005700 29257 0001:00005708 29285 0001:00005710 29300 0001:00005718
 29307 0001:00005720 29327 0001:00005728 29361 0001:00005730 29438 0001:00005738
 29441 0001:00005740 29450 0001:00005748 29478 0001:00005750 29496 0001:00005758
 29498 0001:00005760 29502 0001:00005768 29503 0001:00005770 29509 0001:00005778
 29510 0001:00005780 29520 0001:00005788 29526 0001:00005790 29534 0001:00005798
 29537 0001:000057A0 29546 0001:000057A8 29549 0001:000057B0 29552 0001:000057B8
 29580 0001:000057C0 29600 0001:000057C8 29605 0001:000057D0 29626 0001:000057D8
 29631 0001:000057E0 29634 0001:000057E8 29635 0001:000057F0 29636 0001:000057F8
 29637 0001:00005800 29675 0001:00005808 29682 0001:00005810 29684 0001:00005818
 29691 0001:00005820 29693 0001:00005828 29704 0001:00005830 29714 0001:00005838
 29721 0001:00005840 29724 0001:00005848 29728 0001:00005850 29729 0001:00005858
 29731 0001:00005860 29739 0001:00005868 29760 0001:00005870 29762 0001:00005878
 29775 0001:00005880 29777 0001:00005888 29782 0001:00005890 29783 0001:00005898
 29788 0001:000058A0 29789 0001:000058A8 29791 0001:000058B0 29796 0001:000058B8
 29812 0001:000058C0 29816 0001:000058C8 29818 0001:000058D0 29821 0001:000058D8
 29825 0001:000058E0 29828 0001:000058E8 29834 0001:000058F0 29845 0001:000058F8
 29878 0001:00005900 29880 0001:00005908 29885 0001:00005910 29896 0001:00005918
 29904 0001:00005920 29905 0001:00005928 29925 0001:00005930 29936 0001:00005938
 29948 0001:00005940 29953 0001:00005948 29980 0001:00005950 29987 0001:00005958
 29988 0001:00005960 29996 0001:00005968 29999 0001:00005970 30002 0001:00005978
 30006 0001:00005980 30009 0001:00005988 30010 0001:00005990 30011 0001:00005998
 30012 0001:000059A0 30019 0001:000059A8 30038 0001:000059B0 30040 0001:000059B8
 30041 0001:000059C0 30042 0001:000059C8 30043 0001:000059D0 30047 0001:000059D8
 30054 0001:000059E0 30055 0001:000059E8 30056 0001:000059F0 30060 0001:000059F8
 30079 0001:00005A00 30083 0001:00005A08 30084 0001:00005A10 30087 0001:00005A18
 30088 0001:00005A20 30096 0001:00005A28 30098 0001:00005A30 30104 0001:00005A38
 30107 0001:00005A40 30116 0001:00005A48 30120 0001:00005A50 30130 0001:00005A58
 30132 0001:00005A60 30133 0001:00005A68 30134 0001:00005A70 30135 0001:00005A78
 30144 0001:00005A80 30145 0001:00005A88 30148 0001:00005A90 30151 0001:00005A98
 30154 0001:00005AA0 30155 0001:00005AA8 30156 0001:00005AB0 30161 0001:00005AB8
 30163 0001:00005AC0 30166 0001:00005AC8 30172 0001:00005AD0 30173 0001:00005AD8
 30174 0001:00005AE0 30178 0001:00005AE8 30179 0001:00005AF0 30190 0001:00005AF8
 30192 0001:00005B00 30195 0001:00005B08 30200 0001:00005B10 30201 0001:00005B18
 30202 0001:00005B20 30203 0001:00005B28 30204 0001:00005B30 30205 0001:00005B38
 30206 0001:00005B40 30207 0001:00005B48 30213 0001:00005B50 30220 0001:00005B58
 30222 0001:00005B60 30224 0001:00005B68 30230 0001:00005B70 30231 0001:00005B78
 30233 0001:00005B80 30239 0001:00005B88 30240 0001:00005B90 30250 0001:00005B98
 30251 0001:00005BA0 30254 0001:00005BA8 30257 0001:00005BB0 30258 0001:00005BB8
 30273 0001:00005BC0 30275 0001:00005BC8 30279 0001:00005BD0 30281 0001:00005BD8
 30282 0001:00005BE0 30283 0001:00005BE8 30285 0001:00005BF0 30286 0001:00005BF8
 30287 0001:00005C00 30291 0001:00005C08 30294 0001:00005C10 30300 0001:00005C18
 30306 0001:00005C20 30315 0001:00005C28 30323 0001:00005C30 30329 0001:00005C38
 30332 0001:00005C40 30349 0001:00005C48 30357 0001:00005C50 30369 0001:00005C58
 30372 0001:00005C60 30375 0001:00005C68 30379 0001:00005C70 30384 0001:00005C78
 30385 0001:00005C80 30391 0001:00005C88 30398 0001:00005C90 30401 0001:00005C98
 30402 0001:00005CA0 30403 0001:00005CA8 30404 0001:00005CB0 30409 0001:00005CB8
 30411 0001:00005CC0 30417 0001:00005CC8 30429 0001:00005CD0 30430 0001:00005CD8
 30433 0001:00005CE0 30439 0001:00005CE8 30447 0001:00005CF0 30448 0001:00005CF8
 30452 0001:00005D00 30457 0001:00005D08 30462 0001:00005D10 30464 0001:00005D18
 30467 0001:00005D20 30469 0001:00005D28 30470 0001:00005D30 30471 0001:00005D38
 30475 0001:00005D40 30481 0001:00005D48 30484 0001:00005D50 30485 0001:00005D58
 30486 0001:00005D60 30493 0001:00005D68 30499 0001:00005D70 30500 0001:00005D78
 30501 0001:00005D80 30502 0001:00005D88 30508 0001:00005D90 30520 0001:00005D98
 30525 0001:00005DA0 30526 0001:00005DA8 30528 0001:00005DB0 30533 0001:00005DB8
 30538 0001:00005DC0 30550 0001:00005DC8 30551 0001:00005DD0 30555 0001:00005DD8
 30580 0001:00005DE0 30581 0001:00005DEE 30582 0001:00005E01 30621 0001:00005E08
 30622 0001:00005E0C 30623 0001:00005E17 30691 0001:00005E1C 30692 0001:00005E25
 30693 0001:00005E2D 30698 0001:00005E34 30699 0001:00005E35 30700 0001:00005E36
 30701 0001:00005E3B 30702 0001:00005E3C 30703 0001:00005E41 30708 0001:00005E44
 30709 0001:00005E45 30710 0001:00005E46 30711 0001:00005E47 30712 0001:00005E4C
 30713 0001:00005E4D 30714 0001:00005E4E 30715 0001:00005E53 30716 0001:00005E58
 30717 0001:00005E59 30718 0001:00005E5E 30722 0001:00005E60 30723 0001:00005E61
 30724 0001:00005E66 30725 0001:00005E67 30726 0001:00005E68 30727 0001:00005E6D
 30728 0001:00005E72 30785 0001:00005E74 30786 0001:00005E80 30787 0001:00005E94
 30848 0001:00005E98 30849 0001:00005EA4 30850 0001:00005EAD 30851 0001:00005EB7
 30854 0001:00005EBC 30855 0001:00005EC5 30856 0001:00005ECF 30857 0001:00005EDD
 30860 0001:00005EE4 30861 0001:00005EF2 30862 0001:00005F05 30895 0001:00005F0C
 30910 0001:00005F14 30911 0001:00005F23 30912 0001:00005F2C 30914 0001:00005F64
 30915 0001:00005F70 30944 0001:00005F78 30945 0001:00005F87 30946 0001:00005F90
 30948 0001:00005FC6 30949 0001:00005FD2 31067 0001:00005FD8 31068 0001:00005FE7
 31069 0001:00005FF9 31070 0001:00006008 31071 0001:00006017 31072 0001:00006026
 31073 0001:00006034 31075 0001:0000604E 31076 0001:00006055 31077 0001:00006063
 31079 0001:0000607D 31080 0001:00006089 31082 0001:0000611C 31082 0001:00006123

Line numbers for Messages(Messages.pas) segment .text

  1848 0001:00006154  1848 0001:0000615B

Line numbers for SysConst(SysConst.pas) segment .text

   183 0001:00006474   183 0001:0000647B

Line numbers for SysUtils(sysutils.pas) segment .text

  3104 0001:00006F28  3168 0001:00007018  3169 0001:0000701B  3170 0001:0000701C
  3171 0001:0000701E  3172 0001:00007020  3173 0001:00007023  3174 0001:00007026
  3175 0001:00007029  3176 0001:0000702C  3177 0001:0000702F  3178 0001:00007030
  3190 0001:00007034  3191 0001:0000703B  3192 0001:0000704F  3195 0001:00007054
  3196 0001:00007063  3197 0001:0000707F  3381 0001:00007084  3382 0001:0000708D
  3383 0001:00007098  3384 0001:000070A8  3403 0001:000070AC  3404 0001:000070B2
  3405 0001:000070BA  3406 0001:000070C4  3407 0001:000070D1  3408 0001:000070DA
  3409 0001:000070E7  3410 0001:000070EA  3415 0001:000070F0  3416 0001:000070F9
  3417 0001:00007106  3418 0001:00007110  3419 0001:0000711D  3420 0001:00007126
  3421 0001:0000712E  3422 0001:00007139  3459 0001:00007140  3460 0001:0000714C
  3461 0001:00007157  3462 0001:00007162  3463 0001:00007168  3464 0001:00007170
  3466 0001:00007176  3467 0001:0000717E  3468 0001:0000718E  3469 0001:00007196
  3470 0001:00007199  3471 0001:0000719C  3464 0001:0000719F  3473 0001:000071A5
  3480 0001:000071AC  3481 0001:000071B8  3482 0001:000071C3  3483 0001:000071CE
  3484 0001:000071D4  3485 0001:000071DC  3487 0001:000071E2  3488 0001:000071EA
  3489 0001:000071FA  3490 0001:00007202  3491 0001:00007205  3492 0001:00007208
  3485 0001:0000720B  3494 0001:00007211  3498 0001:00007218  3499 0001:00007219
  3500 0001:0000721A  3501 0001:0000721C  3502 0001:0000721E  3503 0001:00007220
  3504 0001:00007222  3505 0001:00007225  3506 0001:00007227  3507 0001:00007229
  3508 0001:0000722C  3509 0001:0000722E  3510 0001:00007230  3511 0001:00007232
  3512 0001:00007234  3513 0001:00007236  3514 0001:00007238  3515 0001:0000723A
  3516 0001:0000723E  3517 0001:00007242  3518 0001:00007244  3519 0001:00007245
  3520 0001:00007246  3524 0001:00007248  3525 0001:00007249  3526 0001:0000724A
  3527 0001:0000724C  3528 0001:0000724E  3529 0001:00007250  3530 0001:00007252
  3531 0001:00007255  3532 0001:00007258  3533 0001:0000725A  3534 0001:0000725C
  3535 0001:0000725E  3536 0001:00007260  3537 0001:00007262  3538 0001:00007264
  3539 0001:00007265  3540 0001:00007266  3541 0001:00007267  3545 0001:00007268
  3546 0001:00007269  3547 0001:0000726A  3548 0001:0000726B  3549 0001:0000726D
  3550 0001:0000726F  3551 0001:00007271  3552 0001:00007273  3553 0001:00007276
  3554 0001:00007278  3555 0001:0000727A  3556 0001:0000727D  3557 0001:0000727F
  3558 0001:00007281  3559 0001:00007283  3560 0001:00007285  3561 0001:00007287
  3562 0001:00007289  3563 0001:0000728B  3564 0001:0000728E  3565 0001:00007291
  3566 0001:00007293  3567 0001:00007296  3568 0001:00007298  3569 0001:0000729B
  3570 0001:0000729E  3571 0001:000072A1  3572 0001:000072A3  3573 0001:000072A6
  3574 0001:000072A8  3575 0001:000072AB  3576 0001:000072AD  3577 0001:000072AF
  3578 0001:000072B2  3579 0001:000072B5  3580 0001:000072B7  3581 0001:000072B8
  3582 0001:000072B9  3583 0001:000072BA  3587 0001:000072BC  3588 0001:000072BE
  3589 0001:000072C0  3590 0001:000072C2  3591 0001:000072C4  3592 0001:000072C6
  3593 0001:000072C8  3594 0001:000072CB  3595 0001:000072CE  3596 0001:000072D0
  3597 0001:000072D5  3598 0001:000072D7  3599 0001:000072D9  3600 0001:000072DB
  3601 0001:000072DC  3602 0001:000072DE  3637 0001:000072E0  3639 0001:000072EC
  3649 0001:00007325  3657 0001:0000732C  3659 0001:00007338  3665 0001:00007371
  3668 0001:00007378  3669 0001:00007384  3670 0001:00007398  3780 0001:0000739C
  3782 0001:000073AB  3788 0001:000073D0  3959 0001:000073D4  3960 0001:000073E0
  3961 0001:000073EB  3962 0001:000073F4  3963 0001:0000740C  3965 0001:0000741E
  3966 0001:0000742E  3968 0001:00007444  4131 0001:00007448  4132 0001:0000746B
  4133 0001:00007471  4134 0001:0000747F  4135 0001:0000748A  4137 0001:00007492
  4139 0001:000074A1  4140 0001:000074A7  4142 0001:000074AC  4143 0001:000074B2
  4144 0001:000074BB  4146 0001:000074C0  4148 0001:000074C5  4149 0001:000074CE
  4151 0001:000074D3  4153 0001:000074E6  4154 0001:000074F1  4157 0001:000074F3
  4135 0001:000074F6  4159 0001:000074FE  4160 0001:00007516  4163 0001:00007526
  4164 0001:0000752C  4165 0001:00007539  4166 0001:00007541  4167 0001:0000754D
  4170 0001:0000755C  4172 0001:00007562  4173 0001:00007568  4175 0001:0000756B
  4176 0001:00007571  4177 0001:00007574  4181 0001:00007579  4183 0001:0000757F
  4184 0001:00007585  4186 0001:00007588  4187 0001:0000758E  4188 0001:00007591
  4189 0001:00007594  4192 0001:000075A1  4194 0001:000075B4  4195 0001:000075BF
  4196 0001:000075CD  4197 0001:000075D3  4198 0001:000075D9  4200 0001:000075DB
  4201 0001:000075E5  4202 0001:000075E8  4166 0001:000075EB  4205 0001:00007614
  4213 0001:0000761C  4214 0001:00007625  4215 0001:00007629  4216 0001:0000764A
  4217 0001:0000768A  4218 0001:00007691  4231 0001:00007698  4232 0001:0000769A
  4233 0001:0000769C  4234 0001:0000769E  4235 0001:000076A0  4236 0001:000076A2
  4237 0001:000076A7  4238 0001:000076A9  4239 0001:000076AA  4240 0001:000076AB
  4241 0001:000076AD  4242 0001:000076AE  4245 0001:000076B3  4246 0001:000076B4
  4247 0001:000076B5  4248 0001:000076B7  4249 0001:000076B9  4250 0001:000076BA
  4251 0001:000076BD  4252 0001:000076C0  4253 0001:000076C2  4254 0001:000076C5
  4255 0001:000076C7  4256 0001:000076C9  4257 0001:000076CB  4258 0001:000076CC
  4259 0001:000076CD  4260 0001:000076CF  4261 0001:000076D1  4262 0001:000076D3
  4263 0001:000076D5  4264 0001:000076D7  4265 0001:000076D9  4266 0001:000076DB
  4267 0001:000076DE  4268 0001:000076DF  4269 0001:000076E1  4271 0001:000076E3
  4331 0001:000076E4  4332 0001:000076E5  4333 0001:000076E7  4334 0001:000076EA
  4335 0001:000076EC  4336 0001:000076ED  4337 0001:000076EF  4338 0001:000076F4
  4339 0001:000076F6  4340 0001:000076F7  4341 0001:000076FC  4342 0001:000076FF
  4343 0001:00007700  4459 0001:00007704  4460 0001:00007706  4461 0001:00007708
  4462 0001:0000770D  4463 0001:00007714  4464 0001:00007716  4465 0001:00007719
  4466 0001:0000771B  4467 0001:0000771D  4468 0001:00007720  4469 0001:00007725
  4470 0001:00007729  4471 0001:0000772E  4472 0001:00007732  4473 0001:00007733
  4474 0001:00007734  4475 0001:00007737  4478 0001:00007738  4479 0001:00007739
  4480 0001:0000773C  4481 0001:00007740  4482 0001:00007743  4483 0001:00007749
  4485 0001:0000774C  4486 0001:00007750  4487 0001:00007752  4488 0001:00007759
  4489 0001:0000775B  4490 0001:0000775E  4491 0001:00007760  4492 0001:00007768
  4493 0001:0000776D  4494 0001:00007772  4495 0001:00007776  4496 0001:00007779
  4497 0001:0000777B  4498 0001:0000777D  4499 0001:00007780  4501 0001:00007782
  4503 0001:00007784  4504 0001:00007787  4506 0001:00007789  4507 0001:0000778A
  4508 0001:0000778C  4509 0001:0000778F  4510 0001:00007791  4511 0001:00007794
  4512 0001:00007796  4513 0001:00007798  4514 0001:0000779A  4516 0001:0000779C
  4517 0001:0000779E  4518 0001:000077A0  4519 0001:000077A2  4520 0001:000077A5
  4521 0001:000077A6  4523 0001:000077A8  4524 0001:000077AC  4526 0001:000077AF
  4527 0001:000077B1  4528 0001:000077B3  4529 0001:000077B5  4531 0001:000077B7
  4532 0001:000077B8  4533 0001:000077BA  4534 0001:000077BC  4535 0001:000077BE
  4536 0001:000077C0  4537 0001:000077C2  4538 0001:000077C4  4539 0001:000077C6
  4540 0001:000077C9  4541 0001:000077CA  4542 0001:000077CC  4544 0001:000077CE
  4548 0001:000077D0  4549 0001:000077D3  4550 0001:000077D4  4551 0001:000077D6
  4552 0001:000077D9  4553 0001:000077DB  4554 0001:000077DC  4555 0001:000077DE
  4556 0001:000077E1  4558 0001:000077E6  4559 0001:000077E8  4560 0001:000077E9
  4561 0001:000077EE  4562 0001:000077F1  4563 0001:000077F2  4568 0001:000077F8
  4569 0001:000077FB  4570 0001:000077FD  4571 0001:000077FF  4572 0001:00007800
  4573 0001:00007802  4574 0001:00007805  4575 0001:00007806  4576 0001:0000780B
  4577 0001:00007810  4578 0001:00007812  4579 0001:00007813  4580 0001:00007818
  4581 0001:0000781B  4582 0001:0000781C  4609 0001:00007820  4610 0001:00007829
  4611 0001:00007837  4612 0001:00007859  4617 0001:00007860  4618 0001:0000786C
  4619 0001:0000787A  4620 0001:00007889  4625 0001:00007890  4626 0001:0000789C
  4627 0001:000078AC  4628 0001:000078B7  4655 0001:000078BC  4656 0001:000078BF
  4658 0001:000078CD  4659 0001:000078E7  4661 0001:000078F6  4663 0001:00007904
  4664 0001:0000791E  4666 0001:0000792D  4684 0001:00007950  4685 0001:0000795C
  4686 0001:00007960  4687 0001:00007972  4689 0001:0000798A  4690 0001:0000798E
  4691 0001:00007990  4686 0001:00007993  4692 0001:0000799B  4695 0001:000079A0
  4696 0001:000079AC  4697 0001:000079BA  4698 0001:000079C0  4701 0001:000079D4
  4702 0001:000079D9  4703 0001:000079F4  4704 0001:000079FA  4707 0001:00007A02
  4708 0001:00007A1D  4709 0001:00007A23  4712 0001:00007A2C  4717 0001:00007A4C
  4718 0001:00007A5B  4720 0001:00007A61  4721 0001:00007A66  4722 0001:00007A6C
  4724 0001:00007A7E  4727 0001:00007A90  4728 0001:00007AA4  4801 0001:00007AA8
  4802 0001:00007AB4  4803 0001:00007ABB  4805 0001:00007AD3  4808 0001:00007B13
  4855 0001:00007B18  4856 0001:00007B21  4858 0001:00007B47  4868 0001:00007B4C
  4869 0001:00007B58  4870 0001:00007B66  4879 0001:00007B6C  4881 0001:00007B7B
  4882 0001:00007B96  4887 0001:00007BA0  4890 0001:00007BA4  4892 0001:00007BB3
  4893 0001:00007BCE  4898 0001:00007BD8  4912 0001:00007BDC  4913 0001:00007BE8
  4914 0001:00007BF4  4916 0001:00007C12  4928 0001:00007C18  4930 0001:00007C1F
  4935 0001:00007C28  5334 0001:00007C2C  5335 0001:00007C35  5336 0001:00007C40
  5338 0001:00007C48  5339 0001:00007C5A  5342 0001:00007C69  5343 0001:00007C71
  5348 0001:00007C78  5349 0001:00007C84  5350 0001:00007C8F  5351 0001:00007C9A
  5353 0001:00007CA0  5355 0001:00007CC3  5356 0001:00007CD2  5368 0001:00007CD5
  5351 0001:00007CD8  5370 0001:00007CE1  5384 0001:00007CE8  5385 0001:00007CF4
  5386 0001:00007D04  5387 0001:00007D18  5430 0001:00007D28  5431 0001:00007D34
  5432 0001:00007D44  5433 0001:00007D59  5450 0001:00007D6C  5451 0001:00007D7B
  5453 0001:00007DA9  5851 0001:00007DB0  5852 0001:00007DB6  5853 0001:00007DBC
  5855 0001:00007DC4  5856 0001:00007DC9  5858 0001:00007DE5  5859 0001:00007DF3
  5860 0001:00007E0D  5861 0001:00007E2A  6003 0001:00007E30  6004 0001:00007E32
  6005 0001:00007E34  6006 0001:00007E39  6007 0001:00007E3B  6008 0001:00007E3D
  6009 0001:00007E42  6010 0001:00007E44  6011 0001:00007E46  6015 0001:00007E48
  6016 0001:00007E4A  6017 0001:00007E4C  6018 0001:00007E51  6019 0001:00007E53
  6020 0001:00007E55  6021 0001:00007E58  6022 0001:00007E5A  6025 0001:00007E5C
  6026 0001:00007E6B  6027 0001:00007E71  6028 0001:00007E82  6032 0001:00007E88
  6033 0001:00007E89  6034 0001:00007E8A  6035 0001:00007E8C  6036 0001:00007E8E
  6037 0001:00007E93  6038 0001:00007E95  6039 0001:00007E97  6040 0001:00007E99
  6041 0001:00007E9B  6042 0001:00007E9D  6043 0001:00007E9F  6044 0001:00007EA1
  6045 0001:00007EA4  6046 0001:00007EA6  6047 0001:00007EA8  6048 0001:00007EAB
  6049 0001:00007EAD  6050 0001:00007EAE  6051 0001:00007EAF  6078 0001:00007EB0
  6079 0001:00007EB1  6080 0001:00007EB2  6081 0001:00007EB3  6082 0001:00007EB5
  6083 0001:00007EB7  6084 0001:00007EB9  6085 0001:00007EBB  6086 0001:00007EBD
  6087 0001:00007EBF  6088 0001:00007EC1  6089 0001:00007EC3  6090 0001:00007EC4
  6091 0001:00007EC6  6092 0001:00007EC8  6093 0001:00007ECA  6094 0001:00007ECC
  6095 0001:00007ECE  6096 0001:00007ED1  6097 0001:00007ED3  6098 0001:00007ED5
  6099 0001:00007ED8  6100 0001:00007EDA  6101 0001:00007EDB  6102 0001:00007EDD
  6103 0001:00007EDE  6104 0001:00007EDF  6105 0001:00007EE0  6108 0001:00007EE4
  6109 0001:00007EF0  6110 0001:00007F12  6114 0001:00007F18  6115 0001:00007F27
  6116 0001:00007F42  6147 0001:00007F48  6148 0001:00007F49  6149 0001:00007F4A
  6150 0001:00007F4C  6151 0001:00007F4E  6152 0001:00007F53  6153 0001:00007F55
  6154 0001:00007F57  6155 0001:00007F59  6156 0001:00007F5B  6157 0001:00007F5D
  6158 0001:00007F5F  6159 0001:00007F62  6160 0001:00007F65  6161 0001:00007F67
  6162 0001:00007F68  6163 0001:00007F69  6167 0001:00007F6C  6168 0001:00007F6D
  6169 0001:00007F6E  6170 0001:00007F70  6171 0001:00007F72  6172 0001:00007F77
  6173 0001:00007F79  6174 0001:00007F7B  6175 0001:00007F7D  6176 0001:00007F7F
  6177 0001:00007F81  6178 0001:00007F83  6179 0001:00007F85  6180 0001:00007F88
  6181 0001:00007F8A  6182 0001:00007F8C  6183 0001:00007F8E  6184 0001:00007F90
  6185 0001:00007F92  6186 0001:00007F95  6187 0001:00007F98  6188 0001:00007F9A
  6189 0001:00007F9D  6190 0001:00007F9F  6191 0001:00007FA2  6192 0001:00007FA4
  6193 0001:00007FA6  6194 0001:00007FA7  6195 0001:00007FA8  6224 0001:00007FAC
  6225 0001:00007FAD  6226 0001:00007FAE  6227 0001:00007FAF  6228 0001:00007FB1
  6229 0001:00007FB3  6230 0001:00007FB5  6231 0001:00007FB7  6232 0001:00007FB9
  6233 0001:00007FBB  6234 0001:00007FBD  6235 0001:00007FBF  6236 0001:00007FC1
  6237 0001:00007FC3  6238 0001:00007FC5  6239 0001:00007FC7  6240 0001:00007FC9
  6241 0001:00007FCC  6242 0001:00007FCE  6243 0001:00007FD0  6244 0001:00007FD2
  6245 0001:00007FD4  6246 0001:00007FD6  6247 0001:00007FD9  6248 0001:00007FDC
  6249 0001:00007FDE  6250 0001:00007FE1  6251 0001:00007FE3  6252 0001:00007FE6
  6253 0001:00007FE8  6254 0001:00007FEA  6255 0001:00007FEB  6256 0001:00007FEC
  6257 0001:00007FED  6260 0001:00007FF0  6261 0001:00007FFC  6264 0001:00008004
  6266 0001:0000800C  6267 0001:00008011  6269 0001:00008013  6262 0001:00008016
  6271 0001:00008023  6300 0001:00008028  6301 0001:00008029  6302 0001:0000802A
  6303 0001:0000802B  6304 0001:0000802D  6305 0001:0000802F  6306 0001:00008031
  6307 0001:00008033  6308 0001:00008035  6309 0001:00008037  6310 0001:00008039
  6311 0001:0000803E  6312 0001:00008040  6313 0001:00008042  6314 0001:00008043
  6315 0001:00008045  6316 0001:00008047  6317 0001:00008049  6318 0001:0000804E
  6319 0001:00008050  6320 0001:00008052  6321 0001:00008054  6322 0001:00008056
  6323 0001:00008058  6324 0001:0000805B  6325 0001:0000805D  6326 0001:0000805E
  6327 0001:00008060  6328 0001:00008062  6329 0001:00008064  6330 0001:00008065
  6331 0001:00008067  6332 0001:00008069  6333 0001:0000806A  6334 0001:0000806C
  6335 0001:0000806E  6336 0001:00008071  6337 0001:00008073  6338 0001:00008075
  6339 0001:00008076  6340 0001:00008077  6341 0001:00008078  6387 0001:0000807C
  6388 0001:00008085  6389 0001:00008089  6390 0001:00008094  6391 0001:0000809C
  6392 0001:000080A3  6397 0001:000080A8  6398 0001:000080B1  6399 0001:000080B7
  6400 0001:000080BB  6401 0001:000080C9  6406 0001:000080D0  6407 0001:000080D9
  6409 0001:000080E6  6410 0001:000080F2  6412 0001:0000810B  6415 0001:00008110
  6416 0001:00008117  6418 0001:0000811D  6419 0001:00008121  6421 0001:0000812E
  6431 0001:00008134  6432 0001:00008143  6433 0001:00008150  6434 0001:00008163
  6435 0001:00008171  6436 0001:00008179  6437 0001:00008197  6440 0001:0000819C
  6441 0001:000081A9  6442 0001:000081B3  6444 0001:000081C5  6445 0001:000081CC
  6448 0001:000081D4  6449 0001:000081DB  6450 0001:000081E3  6473 0001:000081E8
  6474 0001:000081F4  6475 0001:000081F5  6476 0001:000081F6  6477 0001:000081F7
  6478 0001:000081F9  6484 0001:000081FB  6486 0001:000081FD  6487 0001:00008200
  6488 0001:00008203  6489 0001:00008206  6490 0001:00008208  6491 0001:0000820B
  6492 0001:0000820E  6495 0001:00008211  6496 0001:00008213  6499 0001:00008215
  6500 0001:00008217  6501 0001:00008219  6502 0001:0000821A  6503 0001:0000821C
  6506 0001:0000821E  6507 0001:0000821F  6508 0001:00008220  6511 0001:00008222
  6512 0001:00008224  6513 0001:00008227  6516 0001:0000822C  6517 0001:0000822E
  6518 0001:00008230  6519 0001:00008231  6520 0001:00008233  6521 0001:00008235
  6522 0001:00008238  6523 0001:0000823B  6524 0001:0000823E  6525 0001:00008240
  6526 0001:00008242  6527 0001:00008244  6528 0001:00008246  6529 0001:00008247
  6530 0001:0000824C  6531 0001:0000824E  6532 0001:00008250  6533 0001:00008253
  6534 0001:00008255  6535 0001:00008257  6536 0001:00008258  6538 0001:0000825A
  6539 0001:0000825D  6540 0001:00008262  6541 0001:00008264  6542 0001:00008266
  6543 0001:00008268  6544 0001:0000826A  6545 0001:0000826B  6546 0001:00008270
  6547 0001:00008273  6548 0001:00008276  6549 0001:00008277  6551 0001:00008278
  6553 0001:0000827D  6554 0001:0000827E  6555 0001:00008281  6556 0001:00008283
  6557 0001:00008285  6559 0001:00008287  6560 0001:0000828B  6561 0001:0000828D
  6562 0001:0000828F  6563 0001:00008291  6564 0001:00008293  6566 0001:00008295
  6568 0001:00008297  6569 0001:00008299  6570 0001:0000829B  6571 0001:0000829D
  6572 0001:0000829F  6573 0001:000082A1  6574 0001:000082A3  6575 0001:000082A5
  6576 0001:000082A7  6577 0001:000082A9  6578 0001:000082AB  6579 0001:000082AD
  6580 0001:000082AF  6581 0001:000082B1  6582 0001:000082B5  6583 0001:000082B7
  6584 0001:000082B8  6587 0001:000082BB  6589 0001:000082C0  6590 0001:000082C1
  6591 0001:000082C2  6592 0001:000082C5  6595 0001:000082CA  6596 0001:000082CC
  6597 0001:000082CE  6598 0001:000082D0  6599 0001:000082D2  6600 0001:000082D4
  6601 0001:000082D6  6602 0001:000082D8  6603 0001:000082DE  6604 0001:000082E0
  6605 0001:000082E3  6606 0001:000082E5  6607 0001:000082E7  6608 0001:000082E9
  6609 0001:000082EA  6610 0001:000082EC  6611 0001:000082ED  6612 0001:000082F2
  6613 0001:000082F5  6614 0001:000082F8  6615 0001:000082FA  6616 0001:000082FD
  6617 0001:00008300  6618 0001:00008305  6619 0001:00008308  6620 0001:0000830A
  6621 0001:0000830C  6622 0001:0000830E  6623 0001:00008310  6624 0001:00008311
  6627 0001:00008312  6628 0001:00008314  6629 0001:00008316  6630 0001:0000831B
  6631 0001:0000831E  6632 0001:00008321  6633 0001:00008323  6634 0001:00008326
  6635 0001:00008329  6636 0001:0000832C  6637 0001:0000832E  6645 0001:00008332
  6649 0001:00008339  6650 0001:0000833D  6651 0001:00008341  6652 0001:00008345
  6653 0001:00008349  6654 0001:0000834D  6655 0001:00008351  6656 0001:00008355
  6657 0001:00008359  6658 0001:0000835D  6659 0001:00008361  6660 0001:00008365
  6661 0001:00008369  6662 0001:0000836D  6663 0001:00008371  6664 0001:00008375
  6665 0001:00008379  6673 0001:0000837D  6676 0001:0000837F  6677 0001:00008384
  6678 0001:00008387  6679 0001:0000838A  6697 0001:0000838C  6698 0001:0000838F
  6707 0001:00008394  6708 0001:00008397  6709 0001:0000839A  6710 0001:0000839D
  6711 0001:0000839F  6712 0001:000083A1  6713 0001:000083A3  6714 0001:000083A6
  6715 0001:000083AC  6716 0001:000083B1  6717 0001:000083B4  6718 0001:000083BA
  6719 0001:000083BF  6720 0001:000083C2  6721 0001:000083C8  6827 0001:000083CA
  6828 0001:000083CD  6829 0001:000083D0  6830 0001:000083D2  6831 0001:000083D5
  6832 0001:000083D7  6833 0001:000083D9  6834 0001:000083DC  6835 0001:000083E2
  6836 0001:000083E7  6837 0001:000083EA  6838 0001:000083F0  6839 0001:000083F5
  6840 0001:000083F8  6841 0001:000083FE  6891 0001:00008403  6892 0001:00008406
  6893 0001:0000840C  6894 0001:00008411  6897 0001:00008412  6898 0001:00008415
  6899 0001:0000841B  6900 0001:0000841F  6901 0001:00008421  6902 0001:00008423
  6905 0001:00008426  6907 0001:0000842B  6908 0001:0000842E  6911 0001:00008430
  6912 0001:00008432  6915 0001:00008433  6916 0001:00008436  6917 0001:0000843C
  6918 0001:0000843E  6919 0001:0000843F  6920 0001:00008442  6923 0001:00008444
  6924 0001:00008449  6927 0001:0000844B  6930 0001:00008450  6934 0001:00008453
  6935 0001:00008456  6936 0001:0000845C  6937 0001:0000845E  6938 0001:00008461
  6939 0001:00008462  6940 0001:00008465  6941 0001:00008467  6942 0001:00008468
  6943 0001:0000846B  6944 0001:0000846D  6947 0001:0000846F  6948 0001:00008472
  6949 0001:00008478  6952 0001:0000847A  6953 0001:0000847C  6954 0001:0000847E
  6957 0001:00008481  6958 0001:00008484  6959 0001:00008486  6960 0001:00008487
  6961 0001:0000848A  6964 0001:0000848B  6965 0001:0000848E  6966 0001:00008494
  6967 0001:00008496  6968 0001:00008497  6969 0001:00008499  6970 0001:0000849B
  6971 0001:0000849E  6972 0001:000084A0  6973 0001:000084A2  6974 0001:000084A4
  6975 0001:000084A5  6976 0001:000084A7  6977 0001:000084A9  6978 0001:000084AA
  6981 0001:000084AB  6982 0001:000084AE  6983 0001:000084B4  6984 0001:000084B9
  6985 0001:000084BE  6986 0001:000084C1  6989 0001:000084C6  6990 0001:000084C8
  6993 0001:000084CA  6996 0001:000084CC  6997 0001:000084CE  6998 0001:000084D0
  6999 0001:000084D3  7000 0001:000084D5  7001 0001:000084D7  7002 0001:000084DA
  7003 0001:000084DC  7004 0001:000084DE  7005 0001:000084E1  7006 0001:000084E3
  7007 0001:000084E5  7008 0001:000084E8  7009 0001:000084EA  7010 0001:000084ED
  7011 0001:000084F3  7012 0001:000084F5  7013 0001:000084FA  7014 0001:000084FD
  7015 0001:000084FF  7016 0001:00008501  7017 0001:00008506  7018 0001:00008509
  7019 0001:0000850B  7020 0001:00008512  7021 0001:00008514  7022 0001:00008517
  7023 0001:0000851C  7024 0001:0000851F  7025 0001:00008521  7026 0001:00008526
  7027 0001:00008527  7028 0001:00008528  7029 0001:00008529  7030 0001:0000852C
  7031 0001:0000852E  7032 0001:00008531  7033 0001:00008534  7034 0001:00008539
  7035 0001:0000853B  7036 0001:0000853E  7039 0001:0000853F  7040 0001:00008540
  7041 0001:00008541  7042 0001:00008544  7043 0001:00008547  7044 0001:0000854C
  7045 0001:0000854D  7046 0001:0000854E  7049 0001:0000854F  7050 0001:00008554
  7051 0001:00008555  7052 0001:00008556  7053 0001:00008557  7506 0001:00008560
  7507 0001:0000856F  7509 0001:0000857B  7510 0001:000085A3  7513 0001:000085AB
  7514 0001:000085B3  7531 0001:000085BC  7532 0001:000085CB  7534 0001:000085D7
  7535 0001:000085FD  7538 0001:00008605  7539 0001:0000860D  7555 0001:00008614
  7556 0001:00008623  7557 0001:00008635  7570 0001:0000863C  7571 0001:00008652
  7572 0001:00008659  7573 0001:00008668  7576 0001:00008691  7577 0001:0000869C
  7579 0001:000086A2  7583 0001:000086AD  7584 0001:000086B3  7585 0001:000086BB
  7586 0001:000086C6  7581 0001:000086EB  7589 0001:000086F4  7592 0001:00008701
  7593 0001:00008712  8628 0001:00008718  8637 0001:00008719  8639 0001:0000871B
  8640 0001:0000871C  8641 0001:0000871E  8642 0001:00008720  8643 0001:00008722
  8644 0001:00008724  8645 0001:00008726  8646 0001:00008728  8647 0001:0000872A
  8648 0001:0000872C  8649 0001:0000872E  8650 0001:00008730  8651 0001:00008732
  8652 0001:00008734  8653 0001:00008735  8654 0001:00008736  8655 0001:00008737
  8656 0001:00008739  8657 0001:0000873B  8658 0001:00008741  8659 0001:00008744
  8660 0001:00008746  8661 0001:00008747  8662 0001:00008748  8663 0001:0000874A
  8664 0001:0000874C  8665 0001:0000874E  8666 0001:00008750  8667 0001:00008751
  8668 0001:00008753  8669 0001:00008754  8670 0001:00008756  8671 0001:00008758
  8672 0001:00008759  8673 0001:0000875A  8686 0001:0000875C  8687 0001:00008762
  8688 0001:00008763  8689 0001:00008764  8690 0001:00008765  8712 0001:00008768
  8713 0001:0000876D  8714 0001:00008770  8715 0001:00008775  8716 0001:00008778
  8717 0001:0000877D  8718 0001:00008780  8719 0001:00008785  8720 0001:00008788
  8721 0001:0000878D  8722 0001:00008790  8724 0001:00008797  8725 0001:0000879C
  8726 0001:0000879F  8727 0001:000087A1  8728 0001:000087A4  8729 0001:000087A7
  8730 0001:000087A9  8731 0001:000087AE  8732 0001:000087B1  8733 0001:000087B3
  8734 0001:000087B8  8735 0001:000087BB  8736 0001:000087BC  8737 0001:000087C1
  8738 0001:000087C5  8739 0001:000087C7  8740 0001:000087CA  8741 0001:000087CB
  8742 0001:000087CE  8743 0001:000087D3  8744 0001:000087D6  8745 0001:000087DA
  8746 0001:000087DF  8747 0001:000087E2  8748 0001:000087E4  8749 0001:000087E6
  8750 0001:000087EB  8751 0001:000087F2  8752 0001:000087F5  8753 0001:000087FA
  8754 0001:000087FC  8755 0001:000087FE  8756 0001:00008801  8757 0001:00008805
  8758 0001:00008808  8759 0001:0000880A  8760 0001:0000880D  8761 0001:0000880F
  8762 0001:00008813  8763 0001:00008816  8764 0001:00008818  8765 0001:0000881A
  8766 0001:00008821  8767 0001:00008824  8768 0001:00008826  8769 0001:00008829
  8770 0001:0000882B  8771 0001:0000882D  8772 0001:00008830  8773 0001:00008831
  8774 0001:00008832  8775 0001:00008833  8778 0001:00008838  8779 0001:0000883C
  8780 0001:00008840  8781 0001:00008844  8782 0001:00008848  8784 0001:0000884C
  8790 0001:00008852  8791 0001:00008853  8792 0001:00008855  8793 0001:00008857
  8794 0001:00008859  8795 0001:0000885A  8801 0001:0000885B  8802 0001:0000885F
  8803 0001:00008861  8804 0001:00008863  8805 0001:00008864  8811 0001:00008865
  8812 0001:0000886A  8813 0001:0000886E  8814 0001:00008870  8815 0001:00008873
  8816 0001:00008875  8817 0001:00008878  8818 0001:0000887A  8819 0001:0000887C
  8820 0001:0000887E  8821 0001:00008880  8822 0001:00008881  8823 0001:00008884
  8824 0001:00008886  8825 0001:00008889  8826 0001:0000888A  8827 0001:0000888C
  8828 0001:0000888E  8829 0001:00008890  8830 0001:00008892  8831 0001:00008897
  8832 0001:00008898  8833 0001:00008899  8834 0001:0000889B  8835 0001:0000889D
  8836 0001:0000889E  8837 0001:000088A0  8838 0001:000088A1  8839 0001:000088A3
  8840 0001:000088A5  8841 0001:000088A7  8842 0001:000088AA  8843 0001:000088AC
  8844 0001:000088AD  8845 0001:000088AF  8846 0001:000088B1  8847 0001:000088B2
  8848 0001:000088B4  8849 0001:000088B6  8850 0001:000088B8  8851 0001:000088BA
  8852 0001:000088BC  8853 0001:000088BE  8854 0001:000088C0  8860 0001:000088C1
  8861 0001:000088C6  8862 0001:000088CB  8863 0001:000088CE  8864 0001:000088D0
  8865 0001:000088D3  8866 0001:000088D4  8867 0001:000088D9  8868 0001:000088DA
  8869 0001:000088DC  8873 0001:000088DE  8874 0001:000088E1  8875 0001:000088E4
  8876 0001:000088E6  8884 0001:000088E8  8885 0001:000088EA  8886 0001:000088ED
  8887 0001:000088F1  8888 0001:000088F2  8889 0001:000088F7  8896 0001:000088F8
  8902 0001:000088FD  8903 0001:00008900  8904 0001:00008903  8905 0001:00008905
  8906 0001:0000890A  8907 0001:0000890E  8908 0001:00008910  8909 0001:00008912
  8910 0001:00008914  8911 0001:00008915  8912 0001:00008917  8913 0001:00008919
  8914 0001:0000891D  8915 0001:0000891F  8916 0001:00008921  8917 0001:00008922
  8918 0001:00008924  8919 0001:00008926  8920 0001:00008928  8921 0001:00008929
  8922 0001:0000892E  8923 0001:0000892F  8924 0001:00008930  8925 0001:00008932
  8926 0001:00008933  8927 0001:00008935  8928 0001:00008938  8929 0001:0000893A
  8930 0001:0000893C  8931 0001:0000893D  8932 0001:0000893F  8933 0001:00008941
  8934 0001:00008943  8935 0001:00008945  8936 0001:00008948  8937 0001:0000894A
  8938 0001:0000894C  8939 0001:0000894D  8940 0001:0000894F  8941 0001:00008951
  8942 0001:00008952  8943 0001:00008953  8944 0001:00008955  8945 0001:00008956
  8946 0001:00008958  8947 0001:0000895D  8948 0001:0000895E  8949 0001:0000895F
  8950 0001:00008961  8956 0001:00008962  8957 0001:00008964  8958 0001:00008967
  8959 0001:0000896C  8960 0001:00008970  8961 0001:00008972  8962 0001:00008975
  8963 0001:0000897A  8964 0001:0000897C  8965 0001:0000897E  8966 0001:00008980
  8967 0001:00008982  8968 0001:00008989  8969 0001:0000898C  8970 0001:00008991
  8971 0001:00008993  8972 0001:00008995  8973 0001:00008997  8974 0001:00008998
  8975 0001:00008999  8976 0001:0000899B  8977 0001:0000899D  8978 0001:0000899F
  8979 0001:000089A1  8980 0001:000089A2  8981 0001:000089A4  8982 0001:000089A9
  8983 0001:000089AB  8984 0001:000089B0  8985 0001:000089B1  8986 0001:000089B2
  8987 0001:000089B3  8988 0001:000089B5  8994 0001:000089B6  8995 0001:000089B7
  8996 0001:000089BA  8997 0001:000089BC  8998 0001:000089BE  8999 0001:000089C1
  9000 0001:000089C3  9001 0001:000089C4  9006 0001:000089C5  9007 0001:000089CA
  9008 0001:000089CF  9009 0001:000089D4  9010 0001:000089D9  9011 0001:000089DE
  9012 0001:000089E3  9013 0001:000089E8  9014 0001:000089ED  9015 0001:000089F2
  9016 0001:000089F7  9017 0001:000089FC  9018 0001:00008A01  9019 0001:00008A06
  9020 0001:00008A0B  9021 0001:00008A10  9022 0001:00008A15  9023 0001:00008A1A
  9024 0001:00008A1F  9025 0001:00008A24  9028 0001:00008A29 10106 0001:00008A30
 10107 0001:00008A36 10108 0001:00008A37 10109 0001:00008A38 10110 0001:00008A39
 10111 0001:00008A3B 10118 0001:00008A3D 10120 0001:00008A44 10121 0001:00008A47
 10122 0001:00008A49 10123 0001:00008A4E 10124 0001:00008A53 10125 0001:00008A58
 10131 0001:00008A5D 10132 0001:00008A61 10133 0001:00008A63 10134 0001:00008A68
 10135 0001:00008A6A 10136 0001:00008A6F 10138 0001:00008A71 10139 0001:00008A77
 10142 0001:00008A79 10143 0001:00008A7C 10144 0001:00008A7E 10145 0001:00008A85
 10146 0001:00008A87 10147 0001:00008A88 10148 0001:00008A8A 10149 0001:00008A8E
 10150 0001:00008A93 10151 0001:00008A95 10152 0001:00008A9A 10153 0001:00008AA0
 10154 0001:00008AA3 10155 0001:00008AA4 10156 0001:00008AA7 10157 0001:00008AAC
 10158 0001:00008AAF 10159 0001:00008AB1 10160 0001:00008AB2 10161 0001:00008AB5
 10162 0001:00008ABA 10163 0001:00008ABB 10164 0001:00008ABD 10165 0001:00008AC0
 10166 0001:00008AC6 10167 0001:00008AC8 10168 0001:00008ACC 10169 0001:00008ACD
 10170 0001:00008AD3 10171 0001:00008AD5 10172 0001:00008ADB 10173 0001:00008ADE
 10174 0001:00008AE1 10175 0001:00008AE4 10176 0001:00008AE9 10177 0001:00008AEA
 10178 0001:00008AEE 10179 0001:00008AF0 10180 0001:00008AF3 10181 0001:00008AF6
 10182 0001:00008AFA 10183 0001:00008AFC 10184 0001:00008AFD 10185 0001:00008AFF
 10186 0001:00008B01 10187 0001:00008B02 10188 0001:00008B05 10189 0001:00008B08
 10190 0001:00008B0A 10191 0001:00008B0C 10192 0001:00008B11 10193 0001:00008B14
 10194 0001:00008B16 10195 0001:00008B19 10196 0001:00008B1C 10197 0001:00008B1E
 10198 0001:00008B23 10199 0001:00008B25 10200 0001:00008B2A 10201 0001:00008B2B
 10202 0001:00008B2D 10203 0001:00008B31 10204 0001:00008B36 10205 0001:00008B38
 10206 0001:00008B3A 10207 0001:00008B40 10208 0001:00008B43 10209 0001:00008B45
 10210 0001:00008B4A 10211 0001:00008B4F 10212 0001:00008B50 10213 0001:00008B52
 10214 0001:00008B57 10215 0001:00008B59 10217 0001:00008B5D 10218 0001:00008B60
 10219 0001:00008B64 10220 0001:00008B67 10221 0001:00008B6A 10222 0001:00008B6B
 10223 0001:00008B6D 10226 0001:00008B6F 10227 0001:00008B73 10228 0001:00008B77
 10229 0001:00008B7B 10235 0001:00008B7F 10236 0001:00008B81 10237 0001:00008B84
 10238 0001:00008B86 10239 0001:00008B88 10240 0001:00008B8E 10241 0001:00008B90
 10242 0001:00008B92 10243 0001:00008B94 10244 0001:00008B96 10245 0001:00008B99
 10246 0001:00008B9B 10247 0001:00008B9E 10248 0001:00008BA0 10249 0001:00008BA2
 10250 0001:00008BA4 10251 0001:00008BA7 10252 0001:00008BA9 10253 0001:00008BAE
 10254 0001:00008BAF 10255 0001:00008BB4 10256 0001:00008BBA 10257 0001:00008BBC
 10258 0001:00008BBD 10259 0001:00008BC2 10260 0001:00008BC8 10261 0001:00008BCB
 10262 0001:00008BCE 10263 0001:00008BD1 10264 0001:00008BD3 10265 0001:00008BD8
 10266 0001:00008BDA 10267 0001:00008BDC 10268 0001:00008BDF 10269 0001:00008BE6
 10270 0001:00008BE9 10271 0001:00008BEC 10272 0001:00008BED 10273 0001:00008BEF
 10274 0001:00008BF1 10275 0001:00008BF6 10276 0001:00008BFA 10277 0001:00008BFC
 10278 0001:00008BFF 10279 0001:00008C01 10280 0001:00008C03 10281 0001:00008C05
 10282 0001:00008C07 10283 0001:00008C08 10284 0001:00008C0A 10285 0001:00008C0C
 10286 0001:00008C0E 10287 0001:00008C10 10288 0001:00008C11 10289 0001:00008C16
 10290 0001:00008C1A 10291 0001:00008C1C 10292 0001:00008C1F 10293 0001:00008C21
 10294 0001:00008C22 10295 0001:00008C24 10296 0001:00008C26 10297 0001:00008C28
 10298 0001:00008C29 10299 0001:00008C2A 10300 0001:00008C2C 10301 0001:00008C2E
 10302 0001:00008C32 10303 0001:00008C34 10304 0001:00008C37 10305 0001:00008C38
 10306 0001:00008C3B 10307 0001:00008C3D 10308 0001:00008C40 10309 0001:00008C43
 10310 0001:00008C45 10311 0001:00008C47 10312 0001:00008C49 10313 0001:00008C4C
 10314 0001:00008C4F 10315 0001:00008C52 10318 0001:00008C53 10319 0001:00008C54
 10320 0001:00008C55 10321 0001:00008C56 10339 0001:00008C5C 10340 0001:00008C62
 10341 0001:00008C63 10342 0001:00008C64 10343 0001:00008C65 10344 0001:00008C67
 10354 0001:00008C69 10355 0001:00008C70 10356 0001:00008C75 10357 0001:00008C78
 10359 0001:00008C7A 10360 0001:00008C7E 10364 0001:00008C81 10366 0001:00008C87
 10367 0001:00008C89 10368 0001:00008C8E 10369 0001:00008C90 10370 0001:00008C93
 10371 0001:00008C95 10372 0001:00008C98 10373 0001:00008C9A 10374 0001:00008C9B
 10375 0001:00008C9D 10376 0001:00008CA2 10377 0001:00008CA4 10378 0001:00008CA6
 10379 0001:00008CA9 10380 0001:00008CAB 10381 0001:00008CAC 10382 0001:00008CB1
 10383 0001:00008CB3 10384 0001:00008CB5 10385 0001:00008CB7 10386 0001:00008CB9
 10387 0001:00008CBB 10388 0001:00008CBD 10389 0001:00008CBF 10390 0001:00008CC0
 10391 0001:00008CC1 10392 0001:00008CC6 10393 0001:00008CC7 10394 0001:00008CC9
 10395 0001:00008CCE 10396 0001:00008CD1 10397 0001:00008CD3 10398 0001:00008CD5
 10399 0001:00008CD8 10400 0001:00008CDA 10401 0001:00008CDD 10402 0001:00008CDE
 10403 0001:00008CE1 10404 0001:00008CE6 10405 0001:00008CE7 10406 0001:00008CEA
 10407 0001:00008CEC 10408 0001:00008CEE 10409 0001:00008CF1 10410 0001:00008CF3
 10411 0001:00008CF5 10412 0001:00008CF7 10413 0001:00008CF9 10414 0001:00008CFC
 10415 0001:00008D00 10416 0001:00008D02 10417 0001:00008D04 10418 0001:00008D06
 10419 0001:00008D08 10420 0001:00008D0A 10421 0001:00008D0D 10422 0001:00008D10
 10423 0001:00008D11 10427 0001:00008D13 10428 0001:00008D14 10429 0001:00008D16
 10430 0001:00008D18 10431 0001:00008D1A 10432 0001:00008D1C 10433 0001:00008D1D
 10440 0001:00008D1E 10441 0001:00008D20 10442 0001:00008D22 10443 0001:00008D23
 10444 0001:00008D25 10445 0001:00008D27 10451 0001:00008D29 10453 0001:00008D2F
 10454 0001:00008D32 10455 0001:00008D35 10456 0001:00008D36 10457 0001:00008D38
 10458 0001:00008D39 10465 0001:00008D3A 10466 0001:00008D3C 10467 0001:00008D3E
 10468 0001:00008D40 10469 0001:00008D43 10470 0001:00008D45 10471 0001:00008D48
 10472 0001:00008D4A 10473 0001:00008D4B 10474 0001:00008D4D 10475 0001:00008D4F
 10476 0001:00008D51 10477 0001:00008D53 10478 0001:00008D54 10479 0001:00008D57
 10480 0001:00008D59 10481 0001:00008D5F 10482 0001:00008D61 10483 0001:00008D64
 10484 0001:00008D66 10485 0001:00008D68 10488 0001:00008D69 10489 0001:00008D6A
 10490 0001:00008D6B 10491 0001:00008D6C 10664 0001:00008D70 10665 0001:00008D79
 10667 0001:00008D99 10681 0001:00008DA0 10682 0001:00008DA9 10684 0001:00008DC9
 10809 0001:00008DD0 10810 0001:00008DDC 10811 0001:00008DF4 10822 0001:00008DF8
 10823 0001:00008E04 10824 0001:00008E19 10825 0001:00008E1F 10826 0001:00008E2B
 10841 0001:00008E30 10842 0001:00008E3C 10843 0001:00008E51 10844 0001:00008E57
 10845 0001:00008E63 10884 0001:00008E68 10885 0001:00008E74 10886 0001:00008E8C
 10901 0001:00008E90 10902 0001:00008E93 10909 0001:00008E94 10911 0001:00008E96
 10912 0001:00008E98 10913 0001:00008E9B 10914 0001:00008EA1 10915 0001:00008EA4
 10916 0001:00008EA7 10917 0001:00008EA8 10918 0001:00008EA9 10919 0001:00008EAA
 10920 0001:00008EAC 10921 0001:00008EAE 10922 0001:00008EB0 10923 0001:00008EB2
 10924 0001:00008EB5 10925 0001:00008EBB 10926 0001:00008EBD 10927 0001:00008EBF
 10928 0001:00008EC5 10929 0001:00008ECA 10930 0001:00008ECC 10931 0001:00008ECF
 10932 0001:00008ED0 11016 0001:00008ED4 11017 0001:00008EE6 11018 0001:00008EEA
 11020 0001:00008F07 11024 0001:00008F41 11026 0001:00008F48 11029 0001:00008F54
 11030 0001:00008F66 11031 0001:00008F84 11032 0001:00008F91 11037 0001:00008F98
 11038 0001:00008FA7 11039 0001:00008FC8 11040 0001:00008FDC 11041 0001:00008FF0
 11046 0001:00008FF8 11047 0001:00009000 11048 0001:00009039 11054 0001:0000903C
 11055 0001:0000904F 11056 0001:00009053 11057 0001:0000906C 11060 0001:000090B6
 11061 0001:000090E0 11062 0001:000090E8 11063 0001:00009130 11065 0001:00009137
 11068 0001:00009140 11069 0001:00009152 11070 0001:0000916B 11071 0001:00009178
 11083 0001:0000917C 11084 0001:0000918B 11085 0001:0000919F 11087 0001:000091A5
 11088 0001:000091AD 11089 0001:000091B5 11090 0001:000091BD 11091 0001:000091C5
 11094 0001:000091CE 11095 0001:000091E0 11096 0001:000091E3 11097 0001:000091E9
 11099 0001:000091F2 11100 0001:000091F9 11097 0001:000091FF 11102 0001:00009208
 11103 0001:0000921B 11105 0001:00009222 11106 0001:00009226 11108 0001:0000922C
 11109 0001:00009235 11110 0001:00009249 11111 0001:00009254 11112 0001:00009268
 11114 0001:0000926F 11115 0001:00009273 11117 0001:00009279 11118 0001:00009281
 11119 0001:0000928D 11120 0001:0000929F 11123 0001:000092A5 11124 0001:000092B5
 11125 0001:000092BF 11126 0001:000092C7 11121 0001:000092CB 11128 0001:000092CD
 11129 0001:000092D7 11130 0001:000092E1 11132 0001:000092EF 11143 0001:000092F8
 11144 0001:00009307 11145 0001:0000931F 11172 0001:00009328 11173 0001:0000932E
 11174 0001:00009350 11228 0001:00009358 11229 0001:0000935E 11230 0001:00009367
 11233 0001:0000939C 11299 0001:000093A0 11300 0001:000093A6 11301 0001:000093AF
 11302 0001:000093BB 11326 0001:000093C0 11327 0001:000093CC 11328 0001:000093DD
 11329 0001:000093EB 11330 0001:0000940F 11331 0001:0000941B 11334 0001:00009420
 11335 0001:00009427 11336 0001:0000943E 11343 0001:00009444 11344 0001:00009450
 11346 0001:0000948D 11360 0001:00009494 11361 0001:00009498 11362 0001:000094A3
 11363 0001:000094B9 11364 0001:000094C9 11367 0001:000094CC 11368 0001:000094CF
 11370 0001:000094D8 11371 0001:000094FB 11373 0001:00009502 11376 0001:00009504
 11377 0001:00009507 11379 0001:00009510 11380 0001:0000953A 11382 0001:00009541
 11391 0001:00009544 11392 0001:0000956C 11395 0001:00009574 11396 0001:0000957F
 11397 0001:0000958A 11400 0001:00009595 11401 0001:000095A2 11404 0001:000095D0
 11405 0001:000095E3 11407 0001:000095ED 11409 0001:00009600 11411 0001:00009626
 11414 0001:0000964A 11415 0001:00009665 11420 0001:000096B8 11427 0001:000096C8
 11428 0001:000096EA 11431 0001:000096F2 11432 0001:000096FD 11433 0001:00009708
 11436 0001:00009713 11437 0001:00009719 11439 0001:00009728 11441 0001:00009735
 11444 0001:0000975F 11445 0001:00009772 11446 0001:00009782 11448 0001:000097BF
 11496 0001:000097E0 11497 0001:000097FF 11499 0001:00009819 11500 0001:00009822
 11501 0001:00009826 11502 0001:0000982A 11503 0001:0000982E 11506 0001:00009837
 11507 0001:0000983F 11509 0001:00009850 11510 0001:00009867 11511 0001:00009872
 11512 0001:00009876 11514 0001:0000987B 11515 0001:00009886 11516 0001:0000988C
 11517 0001:00009899 11519 0001:000098A2 11520 0001:000098B2 11522 0001:000098B8
 11525 0001:0000994F 11526 0001:00009956 11527 0001:0000995D 11528 0001:00009963
 11529 0001:00009986 11533 0001:0000999E 11534 0001:000099A5 11535 0001:000099AC
 11539 0001:000099CB 11540 0001:000099D2 11541 0001:000099D9 11545 0001:000099F8
 11546 0001:000099FF 11547 0001:00009A06 11548 0001:00009A13 11549 0001:00009A29
 11551 0001:00009A43 11556 0001:00009A5D 11557 0001:00009A64 11560 0001:00009A77
 11561 0001:00009A7E 11563 0001:00009A94 11564 0001:00009ABB 11565 0001:00009AE2
 11567 0001:00009AF6 11572 0001:00009B0A 11573 0001:00009B11 11574 0001:00009B18
 11575 0001:00009B1C 11578 0001:00009B27 11580 0001:00009B3A 11581 0001:00009B45
 11583 0001:00009B4A 11585 0001:00009B78 11587 0001:00009B7E 11590 0001:00009BC0
 11591 0001:00009BC4 11595 0001:00009BC6 11597 0001:00009BCE 11576 0001:00009BD1
 11599 0001:00009BDD 11600 0001:00009BE5 11601 0001:00009BEB 11602 0001:00009C06
 11603 0001:00009C13 11607 0001:00009C29 11608 0001:00009C30 11609 0001:00009C37
 11610 0001:00009C44 11614 0001:00009C5A 11615 0001:00009C61 11616 0001:00009C68
 11617 0001:00009C75 11621 0001:00009C8B 11622 0001:00009C92 11623 0001:00009C98
 11624 0001:00009CAC 11628 0001:00009CC0 11629 0001:00009CC7 11630 0001:00009CCE
 11631 0001:00009CDB 11635 0001:00009CF1 11636 0001:00009CF8 11637 0001:00009CFF
 11639 0001:00009D15 11640 0001:00009D20 11641 0001:00009D32 11642 0001:00009D36
 11644 0001:00009D3F 11646 0001:00009D55 11647 0001:00009D60 11648 0001:00009D72
 11649 0001:00009D76 11651 0001:00009D7F 11653 0001:00009D95 11654 0001:00009D9C
 11655 0001:00009DAD 11656 0001:00009DBC 11657 0001:00009DC0 11659 0001:00009DC9
 11661 0001:00009DDF 11662 0001:00009DE6 11663 0001:00009E08 11665 0001:00009E11
 11667 0001:00009E27 11668 0001:00009E2E 11669 0001:00009E50 11671 0001:00009E59
 11675 0001:00009E70 11676 0001:00009E77 11677 0001:00009E86 11678 0001:00009E8D
 11680 0001:00009EA6 11681 0001:00009EBA 11685 0001:00009ECE 11686 0001:00009EDB
 11688 0001:00009EF4 11689 0001:00009F01 11692 0001:00009F17 11695 0001:00009F1F
 11696 0001:00009F32 11698 0001:00009F3F 11693 0001:00009F42 11700 0001:00009F54
 11701 0001:00009F67 11704 0001:00009F74 11504 0001:00009F86 11707 0001:00009F92
 11709 0001:00009FBD 11711 0001:00009FE8 11712 0001:00009FFD 11713 0001:0000A005
 11714 0001:0000A00D 11715 0001:0000A031 11716 0001:0000A048 12157 0001:0000A054
 12158 0001:0000A05B 12159 0001:0000A06B 12168 0001:0000A070 12169 0001:0000A07C
 12170 0001:0000A08D 12186 0001:0000A094 12187 0001:0000A0A0 12188 0001:0000A0AA
 12189 0001:0000A0C7 12190 0001:0000A0CF 12197 0001:0000A0D4 12198 0001:0000A0E3
 12199 0001:0000A0E7 12200 0001:0000A0ED 12201 0001:0000A0F8 12202 0001:0000A100
 12205 0001:0000A108 12206 0001:0000A127 12203 0001:0000A12A 12208 0001:0000A14F
 12210 0001:0000A159 12211 0001:0000A168 12212 0001:0000A170 12213 0001:0000A17A
 12215 0001:0000A181 12219 0001:0000A188 12220 0001:0000A1AB 12221 0001:0000A1AF
 12223 0001:0000A1B5 12224 0001:0000A1C0 12226 0001:0000A1EA 12227 0001:0000A1F7
 12230 0001:0000A21B 12233 0001:0000A220 12234 0001:0000A22F 12235 0001:0000A233
 12236 0001:0000A23E 12238 0001:0000A25E 12239 0001:0000A263 12241 0001:0000A26A
 12246 0001:0000A270 12247 0001:0000A279 12248 0001:0000A27D 12251 0001:0000A286
 12252 0001:0000A2A4 12253 0001:0000A2AA 12254 0001:0000A2B0 12255 0001:0000A2B6
 12257 0001:0000A2BC 12249 0001:0000A2BF 12262 0001:0000A2CC 12263 0001:0000A2D3
 12266 0001:0000A2D8 12269 0001:0000A2E6 12270 0001:0000A300 12272 0001:0000A314
 12267 0001:0000A319 12274 0001:0000A33A 12279 0001:0000A340 12280 0001:0000A349
 12281 0001:0000A34E 12283 0001:0000A355 12284 0001:0000A362 12286 0001:0000A384
 12287 0001:0000A391 12289 0001:0000A393 12281 0001:0000A396 12290 0001:0000A39F
 12303 0001:0000A3A4 12305 0001:0000A3AD 12307 0001:0000A3B6 12308 0001:0000A3BC
 12309 0001:0000A3E1 12310 0001:0000A3EA 12313 0001:0000A3F2 12315 0001:0000A3F8
 12316 0001:0000A407 12318 0001:0000A40C 12319 0001:0000A438 12320 0001:0000A43E
 12321 0001:0000A444 12322 0001:0000A44A 12323 0001:0000A44E 12324 0001:0000A452
 12325 0001:0000A45F 12326 0001:0000A464 12328 0001:0000A477 12329 0001:0000A482
 12330 0001:0000A4A4 12333 0001:0000A4B1 12334 0001:0000A4C5 12335 0001:0000A4CD
 12337 0001:0000A51A 12339 0001:0000A533 12340 0001:0000A54D 12341 0001:0000A55C
 12342 0001:0000A57C 12343 0001:0000A59C 12345 0001:0000A5BA 12346 0001:0000A5C0
 12348 0001:0000A5D1 12350 0001:0000A5D7 12351 0001:0000A5EB 12352 0001:0000A5FE
 12353 0001:0000A611 12357 0001:0000A618 12358 0001:0000A621 12360 0001:0000A627
 12363 0001:0000A639 12366 0001:0000A649 12367 0001:0000A65A 12368 0001:0000A665
 12370 0001:0000A68A 12371 0001:0000A697 12374 0001:0000A6A9 12375 0001:0000A6CC
 12376 0001:0000A6D7 12380 0001:0000A746 12381 0001:0000A783 12482 0001:0000A7A0
 12483 0001:0000A7AF 12484 0001:0000A7B3 12485 0001:0000A7BA 12486 0001:0000A7E3
 12487 0001:0000A7EA 12488 0001:0000A813 12489 0001:0000A81A 12490 0001:0000A82B
 12491 0001:0000A845 12492 0001:0000A84B 12493 0001:0000A851 12494 0001:0000A857
 12496 0001:0000A86C 12497 0001:0000A886 12499 0001:0000A89B 12500 0001:0000A8B5
 12501 0001:0000A8CA 12504 0001:0000A8E4 12505 0001:0000A8EA 12506 0001:0000A913
 12508 0001:0000A91A 12509 0001:0000A943 12510 0001:0000A94A 12512 0001:0000A950
 12513 0001:0000A95E 12514 0001:0000A96B 12516 0001:0000A973 12517 0001:0000A97E
 12518 0001:0000A99E 12636 0001:0000A9BC 12637 0001:0000A9C8 12638 0001:0000A9CF
 12639 0001:0000A9FA 12680 0001:0000AA00 12681 0001:0000AA0C 12682 0001:0000AA10
 12683 0001:0000AA17 12684 0001:0000AA1F 12688 0001:0000AA50 12690 0001:0000AA60
 12691 0001:0000AA6E 12693 0001:0000AA7C 12694 0001:0000AA8B 12725 0001:0000AA94
 12726 0001:0000AAA3 12729 0001:0000AAC8 12730 0001:0000AAE3 12731 0001:0000AAF4
 12747 0001:0000AAF8 12748 0001:0000AB0A 12749 0001:0000AB26 12750 0001:0000AB4B
 12762 0001:0000AB54 12763 0001:0000AB63 12764 0001:0000AB7A 12765 0001:0000AB82
 12766 0001:0000AB8B 12803 0001:0000AB90 12804 0001:0000AB9F 12805 0001:0000ABB3
 12806 0001:0000ABCC 12808 0001:0000ABD4 12809 0001:0000ABEE 12810 0001:0000ABF6
 12812 0001:0000ABFD 12814 0001:0000AC2C 12816 0001:0000AC5B 12810 0001:0000AC5E
 12817 0001:0000AC64 12819 0001:0000AC6B 12820 0001:0000AC7C 12822 0001:0000ACAA
 12824 0001:0000ACD8 12817 0001:0000ACDB 12825 0001:0000AD03 12912 0001:0000AD08
 12913 0001:0000AD0E 12914 0001:0000AD13 12916 0001:0000AD1C 12918 0001:0000AD22
 12915 0001:0000AD25 12919 0001:0000AD32 12920 0001:0000AD44 12921 0001:0000AD4E
 12926 0001:0000AD54 12927 0001:0000AD6D 12928 0001:0000AD72 12930 0001:0000AD7B
 12932 0001:0000AD81 12929 0001:0000AD84 12933 0001:0000AD91 12934 0001:0000ADB0
 12935 0001:0000ADD7 12941 0001:0000ADE0 12942 0001:0000ADF9 12944 0001:0000AE21
 12947 0001:0000AE2C 12948 0001:0000AE42 12949 0001:0000AE49 12948 0001:0000AE5A
 12950 0001:0000AE60 12953 0001:0000AE93 12961 0001:0000AEA4 12962 0001:0000AECC
 12963 0001:0000AED3 12964 0001:0000AEDB 12966 0001:0000AF03 12968 0001:0000AF12
 12969 0001:0000AF2D 12973 0001:0000AF35 12974 0001:0000AF47 12975 0001:0000AF67
 12971 0001:0000AF6A 12979 0001:0000AF7C 12980 0001:0000AF87 12985 0001:0000AF8C
 12987 0001:0000AFA4 12988 0001:0000AFB2 12989 0001:0000AFD2 12992 0001:0000AFDD
 12994 0001:0000AFFA 12995 0001:0000B00A 12997 0001:0000B012 12999 0001:0000B02F
 13000 0001:0000B03F 13002 0001:0000B045 13004 0001:0000B062 13005 0001:0000B072
 13007 0001:0000B077 13008 0001:0000B089 13010 0001:0000B09B 13011 0001:0000B0BB
 12983 0001:0000B0BE 13014 0001:0000B0F1 13122 0001:0000B148 13123 0001:0000B14B
 13124 0001:0000B14D 13125 0001:0000B14F 13127 0001:0000B154 13138 0001:0000B158
 13139 0001:0000B16A 13140 0001:0000B17C 13143 0001:0000B1A4 13144 0001:0000B1BB
 13147 0001:0000B1CA 13148 0001:0000B1D6 13149 0001:0000B1F6 13150 0001:0000B1FE
 13151 0001:0000B206 13153 0001:0000B218 13154 0001:0000B226 13155 0001:0000B231
 13157 0001:0000B24C 13159 0001:0000B271 13161 0001:0000B2F1 13162 0001:0000B2FF
 13200 0001:0000B310 13201 0001:0000B31F 13202 0001:0000B335 13204 0001:0000B33F
 13205 0001:0000B34E 13206 0001:0000B361 13207 0001:0000B387 13212 0001:0000B3A3
 13213 0001:0000B3C2 13215 0001:0000B3D9 13251 0001:0000B3EC 13252 0001:0000B407
 13253 0001:0000B430 13257 0001:0000B434 13258 0001:0000B463 13259 0001:0000B4BB
 13267 0001:0000B4C4 13268 0001:0000B4DF 13269 0001:0000B508 13279 0001:0000B50C
 13280 0001:0000B53E 13281 0001:0000B5A6 13328 0001:0000B5B0 13329 0001:0000B5B7
 13330 0001:0000B5C0 13331 0001:0000B5C8 13353 0001:0000B5EC 13354 0001:0000B5F2
 13355 0001:0000B5F7 13356 0001:0000B601 13357 0001:0000B619 13358 0001:0000B61F
 13359 0001:0000B63A 13360 0001:0000B65F 13361 0001:0000B66B 13405 0001:0000B690
 13406 0001:0000B69C 13408 0001:0000B6AE 13410 0001:0000B6B8 13413 0001:0000B6C2
 13414 0001:0000B6D1 13417 0001:0000B6E8 13419 0001:0000B6F0 13420 0001:0000B6FB
 13436 0001:0000B700 13437 0001:0000B726 13438 0001:0000B746 13440 0001:0000B7B1
 13448 0001:0000B7B8 13449 0001:0000B7BA 13450 0001:0000B7BD 13451 0001:0000B7C0
 13452 0001:0000B7C5 13461 0001:0000B7C8 13462 0001:0000B7D7 13466 0001:0000B7E8
 13470 0001:0000B7F9 13477 0001:0000B800 13478 0001:0000B803 13479 0001:0000B81A
 13579 0001:0000B81C 13580 0001:0000B825 13582 0001:0000B883 13584 0001:0000B889
 13586 0001:0000B88F 13590 0001:0000B895 13592 0001:0000B89B 13594 0001:0000B8A1
 13597 0001:0000B8A7 13599 0001:0000B8AD 13601 0001:0000B8B3 13603 0001:0000B8B9
 13605 0001:0000B8BF 13607 0001:0000B8C5 13609 0001:0000B8CC 13614 0001:0000B8D0
 13615 0001:0000B8D9 13616 0001:0000B8E4 13617 0001:0000B8F6 13629 0001:0000B8FC
 13630 0001:0000B930 13632 0001:0000B939 13633 0001:0000B942 13635 0001:0000B951
 13636 0001:0000B95E 13637 0001:0000B967 13638 0001:0000B979 13640 0001:0000B9A3
 13644 0001:0000BA40 13647 0001:0000BADC 13649 0001:0000BAE0 13650 0001:0000BAFC
 13651 0001:0000BB0C 13653 0001:0000BB1F 13654 0001:0000BB43 13656 0001:0000BB4F
 13658 0001:0000BB80 13659 0001:0000BBBB 13692 0001:0000BBC0 13693 0001:0000BBCC
 13694 0001:0000BBD7 13695 0001:0000BBE1 13974 0001:0000BBE8 13975 0001:0000BBEB
 13976 0001:0000BC02 13977 0001:0000BC19 13978 0001:0000BC24 13979 0001:0000BC2F
 13982 0001:0000BC3C 13983 0001:0000BC47 13986 0001:0000BC52 13997 0001:0000BC5F
 14004 0001:0000BC6C 14007 0001:0000BC70 14008 0001:0000BC73 14010 0001:0000BC7C
 14011 0001:0000BC85 14012 0001:0000BC8F 14014 0001:0000BC96 14016 0001:0000BC9F
 14017 0001:0000BCA8 14018 0001:0000BCB2 14020 0001:0000BCB9 14021 0001:0000BCC2
 14022 0001:0000BCCB 14024 0001:0000BCD4 14025 0001:0000BCDD 14027 0001:0000BCE6
 14032 0001:0000BCEF 14038 0001:0000BCF4 14039 0001:0000BCFD 14040 0001:0000BD07
 14043 0001:0000BD17 14044 0001:0000BD22 14045 0001:0000BD2D 14046 0001:0000BD38
 14047 0001:0000BD41 14049 0001:0000BD53 14050 0001:0000BD5E 14052 0001:0000BD70
 14055 0001:0000BD74 14056 0001:0000BD80 14059 0001:0000BDAA 14068 0001:0000BDB0
 14069 0001:0000BDCC 14072 0001:0000BDD3 14073 0001:0000BDDE 14074 0001:0000BDE6
 14075 0001:0000BDFB 14077 0001:0000BE01 14078 0001:0000BE0C 14079 0001:0000BE1A
 14080 0001:0000BE38 14081 0001:0000BE52 14083 0001:0000BE68 14086 0001:0000BE98
 14123 0001:0000BEA0 14124 0001:0000BEAC 14125 0001:0000BEB0 14126 0001:0000BEC6
 14128 0001:0000BECC 14132 0001:0000BEE5 14133 0001:0000BEEE 14134 0001:0000BF0E
 14135 0001:0000BF2A 14137 0001:0000BF48 14164 0001:0000BF4C 14165 0001:0000BF58
 14166 0001:0000BF5C 14167 0001:0000BF65 14168 0001:0000BF7C 14171 0001:0000BF80
 14172 0001:0000BF8C 14173 0001:0000BF90 14174 0001:0000BF99 14175 0001:0000BFAA
 14178 0001:0000BFB0 14179 0001:0000BFBC 14180 0001:0000BFD4 14181 0001:0000BFE5
 14186 0001:0000BFEC 14187 0001:0000BFF8 14188 0001:0000BFFD 14189 0001:0000C010
 14190 0001:0000C016 14191 0001:0000C01F 14192 0001:0000C026 14193 0001:0000C02B
 14195 0001:0000C033 14196 0001:0000C04B 14198 0001:0000C05B 14199 0001:0000C05E
 14193 0001:0000C061 14201 0001:0000C06C 14206 0001:0000C070 14207 0001:0000C07F
 14208 0001:0000C08A 14209 0001:0000C091 14212 0001:0000C09A 14213 0001:0000C09D
 14214 0001:0000C0B5 14216 0001:0000C0C5 14210 0001:0000C0C8 14218 0001:0000C0D8
 14219 0001:0000C100 14220 0001:0000C10F 14221 0001:0000C117 14222 0001:0000C11F
 14227 0001:0000C128 14228 0001:0000C134 14229 0001:0000C139 14230 0001:0000C14C
 14232 0001:0000C15B 14233 0001:0000C16E 14234 0001:0000C184 14236 0001:0000C18B
 14239 0001:0000C190 14240 0001:0000C199 14245 0001:0000C1A0 14246 0001:0000C1AC
 14247 0001:0000C1B1 14248 0001:0000C1B7 14249 0001:0000C1CF 14251 0001:0000C1D8
 14252 0001:0000C1EA 14253 0001:0000C1F7 14256 0001:0000C204 14257 0001:0000C20D
 14262 0001:0000C214 14268 0001:0000C21D 14269 0001:0000C226 14271 0001:0000C237
 14273 0001:0000C241 14276 0001:0000C248 14281 0001:0000C251 14283 0001:0000C260
 14286 0001:0000C264 14287 0001:0000C270 14289 0001:0000C277 14290 0001:0000C298
 14291 0001:0000C2AF 14294 0001:0000C2B4 14295 0001:0000C2C0 14297 0001:0000C2C7
 14298 0001:0000C2E8 14299 0001:0000C302 14341 0001:0000C308 14342 0001:0000C314
 14343 0001:0000C319 14344 0001:0000C333 14345 0001:0000C339 14346 0001:0000C34D
 14433 0001:0000C354 14434 0001:0000C360 14435 0001:0000C365 14436 0001:0000C391
 14437 0001:0000C39C 14438 0001:0000C3A7 14441 0001:0000C3B7 14443 0001:0000C3C8
 14445 0001:0000C3EF 14451 0001:0000C3F8 14452 0001:0000C3FB 14439 0001:0000C409
 14454 0001:0000C41F 14455 0001:0000C427 14458 0001:0000C42C 14459 0001:0000C438
 14460 0001:0000C446 14461 0001:0000C44C 14463 0001:0000C452 14465 0001:0000C458
 14466 0001:0000C45E 14467 0001:0000C461 14463 0001:0000C46F 14470 0001:0000C478
 14473 0001:0000C47C 14474 0001:0000C488 14475 0001:0000C496 14478 0001:0000C49C
 14480 0001:0000C4B2 14486 0001:0000C4B5 14487 0001:0000C4B8 14475 0001:0000C4C6
 14489 0001:0000C4CF 14495 0001:0000C4D4 14496 0001:0000C4F0 14497 0001:0000C504
 14498 0001:0000C548 14516 0001:0000C54C 14517 0001:0000C552 14520 0001:0000C569
 14523 0001:0000C570 14524 0001:0000C58F 14523 0001:0000C5A1 14525 0001:0000C5A6
 14521 0001:0000C5AA 14528 0001:0000C5C6 14562 0001:0000C5CC 14563 0001:0000C5D0
 14564 0001:0000C5EA 14566 0001:0000C5F0 14568 0001:0000C5FB 14569 0001:0000C605
 14570 0001:0000C60F 14572 0001:0000C619 14573 0001:0000C621 14575 0001:0000C62F
 14576 0001:0000C637 14578 0001:0000C63E 14579 0001:0000C64E 14582 0001:0000C65A
 14583 0001:0000C66B 14585 0001:0000C678 14587 0001:0000C683 14588 0001:0000C68A
 14593 0001:0000C696 14594 0001:0000C69D 14595 0001:0000C6B6 14597 0001:0000C6BF
 14598 0001:0000C6C6 14602 0001:0000C6CB 14603 0001:0000C6D2 14602 0001:0000C6E2
 14604 0001:0000C6EB 14605 0001:0000C6F4 14606 0001:0000C711 14608 0001:0000C718
 14609 0001:0000C72C 14611 0001:0000C735 14606 0001:0000C738 14616 0001:0000C743
 14617 0001:0000C754 14618 0001:0000C765 14619 0001:0000C76E 14621 0001:0000C775
 14646 0001:0000C79C 14647 0001:0000C7BA 14648 0001:0000C7BF 14649 0001:0000C7C4
 14650 0001:0000C7D2 14651 0001:0000C7DA 14652 0001:0000C7FA 14653 0001:0000C81F
 14654 0001:0000C844 14655 0001:0000C858 14656 0001:0000C86C 14657 0001:0000C891
 14658 0001:0000C8A5 14659 0001:0000C8D3 14660 0001:0000C901 14661 0001:0000C915
 14662 0001:0000C938 14663 0001:0000C95B 14664 0001:0000C963 14665 0001:0000C96B
 14666 0001:0000C98F 14667 0001:0000C99E 14668 0001:0000C9AB 14669 0001:0000C9CF
 14670 0001:0000C9F3 14672 0001:0000CA02 14673 0001:0000CA0F 14674 0001:0000CA2C
 14675 0001:0000CA49 14676 0001:0000CA8C 15443 0001:0000CB30 15631 0001:0000CB38
 15632 0001:0000CB51 15633 0001:0000CB59 15634 0001:0000CB5F 15637 0001:0000CB9B
 15638 0001:0000CBB0 15639 0001:0000CBB9 15640 0001:0000CBDE 15653 0001:0000CBE4
 15654 0001:0000CBED 15655 0001:0000CBF8 15656 0001:0000CC01 15682 0001:0000CC08
 15683 0001:0000CC0F 15684 0001:0000CC13 15687 0001:0000CC1D 15688 0001:0000CC26
 15685 0001:0000CC2E 15690 0001:0000CC3D 15695 0001:0000CC44 15698 0001:0000CC4A
 15699 0001:0000CC52 15700 0001:0000CC5C 15696 0001:0000CC69 15702 0001:0000CC72
 15811 0001:0000CC78 15812 0001:0000CC7C 15813 0001:0000CC89 15814 0001:0000CC8F
 15815 0001:0000CCA2 15816 0001:0000CCAB 15817 0001:0000CCB5 15824 0001:0000CCDC
 15825 0001:0000CCE1 15826 0001:0000CCE2 15827 0001:0000CCE6 15828 0001:0000CCE7
 15832 0001:0000CCE8 15833 0001:0000CCED 15834 0001:0000CCEE 15835 0001:0000CCF2
 15836 0001:0000CCF3 15840 0001:0000CCF4 15841 0001:0000CCF6 15842 0001:0000CCF8
 15847 0001:0000CCFC 15848 0001:0000CCFD 15849 0001:0000CD01 15896 0001:0000CD04
 15897 0001:0000CD15 15899 0001:0000CD1A 15900 0001:0000CD27 15901 0001:0000CD33
 15903 0001:0000CD39 15904 0001:0000CD3F 15905 0001:0000CD47 15901 0001:0000CD4F
 15907 0001:0000CD55 15897 0001:0000CD58 15908 0001:0000CD5E 15909 0001:0000CD7A
 15914 0001:0000CD80 15915 0001:0000CD89 15916 0001:0000CD92 15917 0001:0000CDA0
 15924 0001:0000CDA4 15925 0001:0000CDB0 15926 0001:0000CDBB 15928 0001:0000CDC3
 15930 0001:0000CDD4 15929 0001:0000CDDC 15932 0001:0000CDED 15934 0001:0000CDF3
 15936 0001:0000CDFE 15938 0001:0000CE04 15939 0001:0000CE11 15940 0001:0000CE1A
 15945 0001:0000CE24 15946 0001:0000CE2C 15949 0001:0000CE45 15950 0001:0000CE4D
 15958 0001:0000CE54 15959 0001:0000CE60 15960 0001:0000CE6A 15961 0001:0000CE74
 15966 0001:0000CE78 15967 0001:0000CE81 15968 0001:0000CE98 15970 0001:0000CE9E
 15971 0001:0000CEB1 15973 0001:0000CEBA 15974 0001:0000CEC5 15977 0001:0000CEC7
 15968 0001:0000CECF 15979 0001:0000CED8 15991 0001:0000CEDC 15992 0001:0000CEF4
 15993 0001:0000CEFE 15994 0001:0000CF08 15995 0001:0000CF1B 15996 0001:0000CF2E
 15997 0001:0000CF38 15998 0001:0000CF65 16001 0001:0000CF6C 16002 0001:0000CF7D
 16003 0001:0000CF85 16004 0001:0000CF93 16005 0001:0000CF9F 16006 0001:0000CFAB
 16007 0001:0000CFC4 16010 0001:0000CFC8 16011 0001:0000CFCF 16012 0001:0000CFDB
 16015 0001:0000CFE0 16016 0001:0000CFE7 16017 0001:0000CFF3 16020 0001:0000CFF8
 16021 0001:0000CFFF 16022 0001:0000D00B 16025 0001:0000D010 16026 0001:0000D017
 16027 0001:0000D02A 16030 0001:0000D030 16031 0001:0000D037 16032 0001:0000D04A
 16052 0001:0000D050 16067 0001:0000D059 16068 0001:0000D05D 16069 0001:0000D065
 16073 0001:0000D074 16075 0001:0000D07C 16077 0001:0000D085 16080 0001:0000D093
 16082 0001:0000D09E 16083 0001:0000D0A4 16098 0001:0000D0B1 16104 0001:0000D0C4
 16109 0001:0000D0CA 16089 0001:0000D0D2 16120 0001:0000D0E9 16123 0001:0000D0F1
 16124 0001:0000D0F7 16126 0001:0000D102 16128 0001:0000D10B 16131 0001:0000D11E
 16135 0001:0000D127 16140 0001:0000D12C 16145 0001:0000D135 16146 0001:0000D143
 16147 0001:0000D149 16149 0001:0000D152 16150 0001:0000D15A 16154 0001:0000D16A
 16158 0001:0000D172 16160 0001:0000D17A 16161 0001:0000D183 16165 0001:0000D191
 16172 0001:0000D198 16177 0001:0000D1A1 16178 0001:0000D1AF 16179 0001:0000D1B5
 16181 0001:0000D1C0 16190 0001:0000D1CD 16194 0001:0000D1D3 16204 0001:0000D1DD
 16207 0001:0000D1EB 16208 0001:0000D1F4 16211 0001:0000D1FC 16216 0001:0000D203
 16195 0001:0000D20B 16226 0001:0000D21A 16232 0001:0000D220 16236 0001:0000D229
 16237 0001:0000D237 16238 0001:0000D23D 16240 0001:0000D246 16243 0001:0000D254
 16245 0001:0000D261 16253 0001:0000D26F 16254 0001:0000D278 16255 0001:0000D282
 16257 0001:0000D288 16258 0001:0000D297 16265 0001:0000D29F 16271 0001:0000D2A4
 16272 0001:0000D2AD 16273 0001:0000D2B5 16274 0001:0000D2BC 16275 0001:0000D2C4
 16280 0001:0000D2C8 16281 0001:0000D2D7 16282 0001:0000D2FD 16287 0001:0000D304
 16288 0001:0000D327 16291 0001:0000D395 16445 0001:0000D3AC 16446 0001:0000D3B8
 16447 0001:0000D3C4 16449 0001:0000D3D2 16451 0001:0000D3D5 16452 0001:0000D3E3
 16455 0001:0000D401 16456 0001:0000D403 16460 0001:0000D41B 16462 0001:0000D42F
 16594 0001:0000D704 16600 0001:0000D72B 16601 0001:0000D730 16603 0001:0000D880
 16575 0001:0000D884 16576 0001:0000D8B2 16577 0001:0000D8CA 16587 0001:0000D8CF
 16588 0001:0000D8D4 16590 0001:0000D8D9 16592 0001:0000D8F3

Line numbers for VarUtils(varutils.pas) segment .text

   309 0001:0000D904   310 0001:0000D90C   311 0001:0000D914   313 0001:0000D91C
  1071 0001:0000D924  1072 0001:0000D928  1073 0001:0000D931  1075 0001:0000D93A
  1076 0001:0000D957  1080 0001:0000D95C  1081 0001:0000D960  1082 0001:0000D96A
  1085 0001:0000D970  1086 0001:0000D974  1087 0001:0000D97E  1090 0001:0000D984
  1091 0001:0000D988  1092 0001:0000D992  1102 0001:0000D998  1103 0001:0000D9B1
  1104 0001:0000D9BA  1106 0001:0000D9C3  1107 0001:0000DA06  1111 0001:0000DA0C
  1112 0001:0000DA25  1113 0001:0000DA2E  1115 0001:0000DA37  1116 0001:0000DA7A
  1120 0001:0000DA80  1121 0001:0000DA99  1122 0001:0000DAA2  1124 0001:0000DAAB
  1125 0001:0000DAEE  1129 0001:0000DAF4  1130 0001:0000DB0D  1131 0001:0000DB16
  1133 0001:0000DB1F  1134 0001:0000DB62  1138 0001:0000DB68  1139 0001:0000DB81
  1140 0001:0000DB8A  1142 0001:0000DB93  1143 0001:0000DBD6  1149 0001:0000DBDC
  1150 0001:0000DBF5  1151 0001:0000DBFE  1154 0001:0000DC07  1155 0001:0000DC2A
  1157 0001:0000DC57  1162 0001:0000DC60  1163 0001:0000DC84  1164 0001:0000DC8D
  1167 0001:0000DC96  1168 0001:0000DCAF  1170 0001:0000DCD4  1174 0001:0000DCDC
  1175 0001:0000DD00  1176 0001:0000DD09  1179 0001:0000DD12  1180 0001:0000DD2B
  1182 0001:0000DD50  1186 0001:0000DD58  1187 0001:0000DD7C  1188 0001:0000DD85
  1191 0001:0000DD8E  1192 0001:0000DDAB  1194 0001:0000DDD0  1201 0001:0000DDD8
  1210 0001:0000DDE0  1211 0001:0000DDE8  1219 0001:0000DDF0  2028 0001:0000DDF8
  2029 0001:0000DE04  2030 0001:0000DE0A  2032 0001:0000DE13  2033 0001:0000DE26
  2034 0001:0000DE2C  2036 0001:0000DE35  2038 0001:0000DE3C  2039 0001:0000DE40
  2045 0001:0000DE4D  2076 0001:0000DE63  2077 0001:0000DE79  2079 0001:0000DE8F
  2080 0001:0000DEA5  2081 0001:0000DEBB  2082 0001:0000DED1  2083 0001:0000DEE7
  2084 0001:0000DEFD  2085 0001:0000DF13  2086 0001:0000DF29  2087 0001:0000DF3F
  2089 0001:0000DF55  2091 0001:0000DF6B  2092 0001:0000DF81  2093 0001:0000DF97
  2094 0001:0000DFAD  2095 0001:0000DFC3  2096 0001:0000DFD9  2098 0001:0000DFEF
  2099 0001:0000E005  2100 0001:0000E01B  2102 0001:0000E031  2138 0001:0000E178
  2139 0001:0000E184  2140 0001:0000E189

Line numbers for Variants(variants.pas) segment .text

   196 0001:0000E18C   519 0001:0000E764   520 0001:0000E777   521 0001:0000E7B5
   524 0001:0000E7B8   525 0001:0000E7DD   527 0001:0000E84E   530 0001:0000E854
   531 0001:0000E867   532 0001:0000E8A5   540 0001:0000E8A8   541 0001:0000E8CD
   543 0001:0000E93E   556 0001:0000E944   557 0001:0000E957   558 0001:0000E995
   561 0001:0000E998   562 0001:0000E9B8   563 0001:0000EA27   564 0001:0000EA31
   565 0001:0000EA57   566 0001:0000EA61   567 0001:0000EA87   568 0001:0000EAAD
   569 0001:0000EAD3   570 0001:0000EAF9   571 0001:0000EB1F   572 0001:0000EB42
   574 0001:0000EB65   577 0001:0000EBE4   581 0001:0000EBEC   582 0001:0000EBF0
   583 0001:0000EBF5   586 0001:0000EBF8   587 0001:0000EBF9   588 0001:0000EBFD
   589 0001:0000EC0E   590 0001:0000EC19   592 0001:0000EC24   594 0001:0000EC29
   614 0001:0000EC2C   615 0001:0000EC3F   616 0001:0000EC7D   621 0001:0000EC80
   622 0001:0000EC83   623 0001:0000EC8A   624 0001:0000EC8F   636 0001:0000EC94
   638 0001:0000ECA1   639 0001:0000ECB5   640 0001:0000ECB6   641 0001:0000ECC0
   646 0001:0000ECC4   647 0001:0000ECC9   648 0001:0000ECCB   649 0001:0000ECD5
   650 0001:0000ECF7   651 0001:0000ECFB   654 0001:0000ECFF   655 0001:0000ED0C
   657 0001:0000ED1B   658 0001:0000ED20   660 0001:0000ED32   661 0001:0000ED3E
   664 0001:0000ED48   668 0001:0000ED62   669 0001:0000ED6D   671 0001:0000ED80
   674 0001:0000ED8F   675 0001:0000ED9E   676 0001:0000EDB2   678 0001:0000EDBA
   679 0001:0000EDD9   681 0001:0000EDF5   682 0001:0000EE0D   675 0001:0000EE11
   685 0001:0000EE14   686 0001:0000EE2C   685 0001:0000EE36   690 0001:0000EE39
   692 0001:0000EE4D   695 0001:0000EE6C   697 0001:0000EE77   701 0001:0000EE84
   702 0001:0000EE95   707 0001:0000EE9C   709 0001:0000EEA1   710 0001:0000EEAA
   713 0001:0000EEB7   715 0001:0000EEBE   716 0001:0000EEC3   720 0001:0000EECD
   721 0001:0000EED4   724 0001:0000EEDE   725 0001:0000EEE5   728 0001:0000EEEE
   729 0001:0000EEFB   733 0001:0000EF07   734 0001:0000EF12   739 0001:0000EF18
   740 0001:0000EF1F   742 0001:0000EF25   743 0001:0000EF2A   747 0001:0000EF2C
   748 0001:0000EF2D   749 0001:0000EF32   750 0001:0000EF33   818 0001:0000EF34
   820 0001:0000EF41   821 0001:0000EF55   822 0001:0000EF56   823 0001:0000EF60
   828 0001:0000EF64   829 0001:0000EF69   830 0001:0000EF6B   831 0001:0000EF75
   832 0001:0000EF97   833 0001:0000EF9B   836 0001:0000EF9F   837 0001:0000EFAC
   839 0001:0000EFBB   840 0001:0000EFC0   842 0001:0000EFDA   843 0001:0000EFE0
   846 0001:0000EFEA   850 0001:0000EFFE   851 0001:0000F003   853 0001:0000F010
   856 0001:0000F019   857 0001:0000F028   858 0001:0000F03C   860 0001:0000F044
   861 0001:0000F063   862 0001:0000F07F   863 0001:0000F097   857 0001:0000F09B
   866 0001:0000F09E   867 0001:0000F0B5   868 0001:0000F0B9   871 0001:0000F0BE
   872 0001:0000F0C9   873 0001:0000F0D4   876 0001:0000F0DD   877 0001:0000F0F5
   876 0001:0000F0FF   881 0001:0000F102   883 0001:0000F116   884 0001:0000F135
   887 0001:0000F14E   889 0001:0000F162   894 0001:0000F171   895 0001:0000F183
   899 0001:0000F18C   900 0001:0000F191   905 0001:0000F194   907 0001:0000F19C
   908 0001:0000F1A3   911 0001:0000F1AA   912 0001:0000F1B3   915 0001:0000F1C1
   917 0001:0000F1C8   918 0001:0000F1CD   919 0001:0000F1D2   923 0001:0000F1DF
   925 0001:0000F1E6   926 0001:0000F1E9   927 0001:0000F1EF   931 0001:0000F1F9
   932 0001:0000F200   935 0001:0000F210   936 0001:0000F21D   940 0001:0000F22E
   941 0001:0000F23A   944 0001:0000F240   946 0001:0000F246   950 0001:0000F24A
   954 0001:0000F251   955 0001:0000F258   958 0001:0000F25F   959 0001:0000F263
   960 0001:0000F269   961 0001:0000F26F   964 0001:0000F277   965 0001:0000F280
  2204 0001:0000F284  2205 0001:0000F28A  2207 0001:0000F2B5  2210 0001:0000F2BC
  2211 0001:0000F2C2  2213 0001:0000F2ED  2216 0001:0000F2F4  2217 0001:0000F311
  2219 0001:0000F337  2221 0001:0000F348  2222 0001:0000F369  2224 0001:0000F38A
  2226 0001:0000F3B1  2231 0001:0000F3B8  2232 0001:0000F3DA  2233 0001:0000F3E3
  2234 0001:0000F3F1  2236 0001:0000F414  2238 0001:0000F44C  2240 0001:0000F47E
  2245 0001:0000F484  2246 0001:0000F490  2247 0001:0000F499  2248 0001:0000F4A7
  2249 0001:0000F4B1  2250 0001:0000F4BA  2252 0001:0000F4D1  2254 0001:0000F4E1
  2260 0001:0000F4E8  2261 0001:0000F4FF  2262 0001:0000F50D  2264 0001:0000F513
  2265 0001:0000F51C  2266 0001:0000F52A  2267 0001:0000F53C  2269 0001:0000F554
  2272 0001:0000F567  2275 0001:0000F56C  2276 0001:0000F58F  2277 0001:0000F5F9
  2280 0001:0000F605  2281 0001:0000F60E  2282 0001:0000F61B  2284 0001:0000F62D
  2285 0001:0000F648  2286 0001:0000F662  2287 0001:0000F683  2288 0001:0000F6A4
  2289 0001:0000F6C1  2290 0001:0000F6DE  2291 0001:0000F70E  2292 0001:0000F729
  2293 0001:0000F744  2294 0001:0000F760  2295 0001:0000F77B  2296 0001:0000F799
  2298 0001:0000F7B6  2301 0001:0000F7C7  2303 0001:0000F7E0  2304 0001:0000F7F0
  2305 0001:0000F7FF  2307 0001:0000F818  2308 0001:0000F821  2309 0001:0000F88D
  2310 0001:0000F8AA  2311 0001:0000F8C6  2312 0001:0000F8E9  2313 0001:0000F90C
  2314 0001:0000F92B  2315 0001:0000F94A  2316 0001:0000F95B  2317 0001:0000F978
  2318 0001:0000F995  2319 0001:0000F9B2  2320 0001:0000F9CF  2321 0001:0000F9EC
  2323 0001:0000FA08  2325 0001:0000FA16  2328 0001:0000FA2C  2329 0001:0000FA40
  2332 0001:0000FAAA  2345 0001:0000FAB0  2346 0001:0000FACF  2347 0001:0000FAD8
  2348 0001:0000FAE6  2350 0001:0000FB09  2352 0001:0000FB34  2354 0001:0000FB61
  2359 0001:0000FB68  2360 0001:0000FB74  2361 0001:0000FB7D  2362 0001:0000FB8B
  2363 0001:0000FB95  2364 0001:0000FB9E  2366 0001:0000FBB5  2368 0001:0000FBC5
  2374 0001:0000FBCC  2375 0001:0000FBF6  2376 0001:0000FC04  2378 0001:0000FC0A
  2379 0001:0000FC13  2380 0001:0000FC21  2381 0001:0000FC30  2383 0001:0000FC5E
  2386 0001:0000FC8E  2389 0001:0000FC94  2390 0001:0000FCB8  2391 0001:0000FD22
  2394 0001:0000FD2E  2395 0001:0000FD37  2396 0001:0000FD44  2398 0001:0000FD56
  2399 0001:0000FD71  2400 0001:0000FD8B  2401 0001:0000FDAC  2402 0001:0000FDCD
  2403 0001:0000FDEA  2404 0001:0000FE07  2405 0001:0000FE2A  2406 0001:0000FE45
  2407 0001:0000FE60  2408 0001:0000FE7C  2409 0001:0000FE97  2410 0001:0000FEB5
  2412 0001:0000FED2  2415 0001:0000FEE3  2417 0001:0000FEFC  2418 0001:0000FF0C
  2419 0001:0000FF1B  2421 0001:0000FF34  2422 0001:0000FF3D  2423 0001:0000FFA9
  2424 0001:0000FFC6  2425 0001:0000FFE2  2426 0001:00010005  2427 0001:00010028
  2428 0001:00010047  2429 0001:00010066  2430 0001:00010077  2431 0001:00010094
  2432 0001:000100B1  2433 0001:000100CE  2434 0001:000100EB  2435 0001:00010108
  2437 0001:00010124  2439 0001:00010132  2442 0001:00010148  2443 0001:0001015C
  2446 0001:000101ED  2523 0001:000101F4  2524 0001:000101FD  2525 0001:00010204
  2526 0001:0001020B  2527 0001:00010214  2529 0001:00010224  2530 0001:00010229
  2531 0001:0001022C  2590 0001:00010230  2591 0001:00010236  2592 0001:0001023D
  2593 0001:00010244  2594 0001:00010249  2595 0001:00010255  2630 0001:0001025C
  2631 0001:00010262  2632 0001:00010269  2633 0001:00010270  2634 0001:00010275
  2635 0001:0001027F  2639 0001:00010284  2640 0001:00010285  2641 0001:0001028A
  2642 0001:0001028B  2643 0001:00010290  2644 0001:00010293  2645 0001:00010294
  2649 0001:00010298  2650 0001:00010299  2651 0001:0001029E  2652 0001:0001029F
  2653 0001:000102A4  2654 0001:000102A7  2655 0001:000102A8  2659 0001:000102AC
  2660 0001:000102AD  2661 0001:000102B2  2662 0001:000102B3  2663 0001:000102B8
  2664 0001:000102BB  2665 0001:000102BC  2668 0001:000102C0  2669 0001:000102C6
  2670 0001:000102CD  2671 0001:000102D4  2672 0001:000102D9  2673 0001:000102DE
  2674 0001:000102E8  2682 0001:000102EC  2683 0001:000102F2  2684 0001:000102F9
  2685 0001:00010300  2686 0001:00010305  2687 0001:0001030A  2688 0001:0001031F
  3942 0001:00010324  3943 0001:00010328  3944 0001:0001032A  3945 0001:0001032D
  3946 0001:00010330  3947 0001:00010333  3948 0001:00010335  3949 0001:0001033A
  3950 0001:0001033C  3951 0001:00010341  3953 0001:00010344  3963 0001:000104A8
  3964 0001:000104CE  3965 0001:000104DB  3966 0001:000104F1  3967 0001:000104F8
  3968 0001:00010509  3969 0001:00010510  3970 0001:0001051E  3971 0001:0001052C
  3973 0001:00010567  3975 0001:0001058F  3976 0001:00010594  3977 0001:000105A2
  3978 0001:000105A7  3979 0001:000105D5  4194 0001:00010618  4195 0001:0001061E
  4196 0001:00010625  4197 0001:0001062A  4198 0001:0001062D  4210 0001:00010630
  4211 0001:0001063A  5008 0001:00010660  5009 0001:0001066A  5010 0001:00010674
  5011 0001:00010682  5012 0001:00010691  5013 0001:0001069E  5011 0001:000106A4
  5015 0001:000106B6  5017 0001:000106C8  5023 0001:000106CC  5024 0001:000106CF
  5025 0001:000106D4  5030 0001:000106D8  5031 0001:000106E2  5032 0001:000106F0
  5034 0001:00010704  5035 0001:0001070B  5041 0001:00010710  5042 0001:00010723
  5044 0001:00010738  5046 0001:00010748  5047 0001:0001074F  5051 0001:00010758
  5052 0001:0001075B  5053 0001:00010760  5068 0001:00010764  5069 0001:0001076F
  5070 0001:0001077C  5071 0001:00010791  5077 0001:0001079C  5078 0001:000107A7
  5079 0001:000107B6  5081 0001:000107C8  5082 0001:000107CF  5123 0001:000107D8
  5124 0001:000107E9  5125 0001:000107F3  5126 0001:00010801  5127 0001:0001080D
  5129 0001:00010830  5132 0001:00010842  5133 0001:0001085E  5137 0001:00010864
  5138 0001:00010866  5142 0001:00010868  5143 0001:0001086B  5144 0001:00010875
  5145 0001:00010877  5150 0001:0001087C  5151 0001:00010881  5152 0001:00010883
  5156 0001:00010884  5157 0001:00010889  5161 0001:0001088C  5162 0001:00010891
  5166 0001:00010894  5167 0001:00010899  5171 0001:0001089C  5172 0001:0001089F
  5173 0001:000108A9  5174 0001:000108AB  5192 0001:000108B0  5193 0001:000108B5
  5253 0001:000108B8  5254 0001:000108BB  5255 0001:000108C0  5273 0001:000108C4
  5274 0001:000108C7  5275 0001:000108CA  5278 0001:000108D0  5279 0001:000108D3
  5280 0001:000108D6  5285 0001:000108DC  5286 0001:000108E3  5287 0001:000108F4
  5289 0001:000108F8  5290 0001:000108FD  5541 0001:00010904  5543 0001:0001090F
  5545 0001:0001092F  5547 0001:00010935  5548 0001:0001093F  5549 0001:0001094D
  5550 0001:00010968  5552 0001:0001096E  5553 0001:0001097C  5557 0001:000109A1
  5560 0001:000109B6  5566 0001:000109BC  5567 0001:000109E1  5568 0001:000109E5
  5569 0001:000109EF  5570 0001:000109FD  5572 0001:00010A10  5573 0001:00010A18
  5576 0001:00010A4E  5577 0001:00010A53  5578 0001:00010A57  5580 0001:00010A59
  5570 0001:00010A5A  5582 0001:00010A6A  5584 0001:00010A9C  5593 0001:00010AA4
  5594 0001:00010AA9  5776 0001:00010AAC  5777 0001:00010ACA  5778 0001:00010B22
  5760 0001:00010B24  5761 0001:00010B3E  5763 0001:00010B48  5764 0001:00010B52
  5765 0001:00010B5C  5766 0001:00010B67  5768 0001:00010B6C  5769 0001:00010B79
  5770 0001:00010B86  5771 0001:00010B93  5772 0001:00010BA0  5774 0001:00010BAD
  5775 0001:00010BCC

Line numbers for RTLConsts(RTLConsts.pas) segment .text

   319 0001:00010CE8   319 0001:00010CEF

Line numbers for TypInfo(TypInfo.pas) segment .text

   693 0001:00010D1C   694 0001:00010D1E   695 0001:00010D21   696 0001:00010D25
   736 0001:00010D28   737 0001:00010D29   738 0001:00010D2A   740 0001:00010D2B
   741 0001:00010D2D   744 0001:00010D2F   745 0001:00010D31   746 0001:00010D34
   747 0001:00010D38   748 0001:00010D3A   749 0001:00010D3D   752 0001:00010D41
   755 0001:00010D45   760 0001:00010D47   761 0001:00010D49   762 0001:00010D4C
   766 0001:00010D4E   767 0001:00010D52   768 0001:00010D55   769 0001:00010D58
   770 0001:00010D5A   771 0001:00010D5B   774 0001:00010D5D   777 0001:00010D5F
   779 0001:00010D61   780 0001:00010D62   781 0001:00010D66   782 0001:00010D68
   786 0001:00010D6A   789 0001:00010D6D   790 0001:00010D6E   791 0001:00010D6F
   792 0001:00010D70   795 0001:00010D74   796 0001:00010D80   797 0001:00010D88
   801 0001:00010D95   803 0001:00010DA3   804 0001:00010DB5   805 0001:00010DBC
   806 0001:00010DCE   808 0001:00010DD7   811 0001:00010DE4   813 0001:00010DF5
   821 0001:00010DFC   822 0001:00010DFD   823 0001:00010DFE   825 0001:00010DFF
   826 0001:00010E01   828 0001:00010E03   829 0001:00010E05   830 0001:00010E07
   831 0001:00010E09   832 0001:00010E0C   833 0001:00010E0E   836 0001:00010E14
   837 0001:00010E16   838 0001:00010E19   839 0001:00010E1D   840 0001:00010E20
   841 0001:00010E25   842 0001:00010E27   843 0001:00010E29   846 0001:00010E2D
   847 0001:00010E31   848 0001:00010E34   849 0001:00010E36   852 0001:00010E38
   853 0001:00010E3A   854 0001:00010E3B   855 0001:00010E3F   858 0001:00010E41
   859 0001:00010E44   860 0001:00010E46   861 0001:00010E48   862 0001:00010E4A
   865 0001:00010E4C   866 0001:00010E4E   867 0001:00010E51   868 0001:00010E54
   871 0001:00010E56   874 0001:00010E58   875 0001:00010E5C   876 0001:00010E60
   877 0001:00010E63   878 0001:00010E65   879 0001:00010E66   882 0001:00010E68
   883 0001:00010E69   884 0001:00010E6A   885 0001:00010E6B  1158 0001:00010E6C
  1159 0001:00010E6D  1160 0001:00010E6E  1161 0001:00010E70  1162 0001:00010E72
  1163 0001:00010E74  1164 0001:00010E77  1165 0001:00010E79  1166 0001:00010E7B
  1167 0001:00010E7E  1169 0001:00010E82  1170 0001:00010E85  1171 0001:00010E89
  1172 0001:00010E8C  1173 0001:00010E8E  1176 0001:00010E90  1177 0001:00010E93
  1178 0001:00010E95  1179 0001:00010E97  1182 0001:00010E99  1183 0001:00010E9B
  1186 0001:00010E9D  1187 0001:00010EA3  1188 0001:00010EA5  1189 0001:00010EA7
  1190 0001:00010EAA  1191 0001:00010EAC  1192 0001:00010EAF  1193 0001:00010EB2
  1194 0001:00010EB4  1196 0001:00010EB6  1197 0001:00010EB9  1198 0001:00010EBB
  1199 0001:00010EBE  1200 0001:00010EC0  1201 0001:00010EC3  1202 0001:00010EC6
  1203 0001:00010EC8  1204 0001:00010ECD  1206 0001:00010ED0  1207 0001:00010ED3
  1208 0001:00010ED5  1210 0001:00010EDA  1211 0001:00010EDB  1212 0001:00010EDC
  1221 0001:00010EE0  1222 0001:00010EE1  1223 0001:00010EE2  1224 0001:00010EE3
  1226 0001:00010EE5  1227 0001:00010EE7  1228 0001:00010EE9  1229 0001:00010EEB
  1230 0001:00010EEE  1231 0001:00010EF0  1232 0001:00010EF2  1233 0001:00010EF5
  1235 0001:00010EF9  1236 0001:00010EFC  1237 0001:00010F02  1238 0001:00010F04
  1240 0001:00010F06  1241 0001:00010F09  1242 0001:00010F0D  1243 0001:00010F0F
  1246 0001:00010F11  1247 0001:00010F14  1248 0001:00010F16  1249 0001:00010F18
  1252 0001:00010F1A  1253 0001:00010F1C  1256 0001:00010F1E  1257 0001:00010F24
  1258 0001:00010F26  1259 0001:00010F28  1260 0001:00010F2B  1261 0001:00010F2D
  1262 0001:00010F30  1263 0001:00010F33  1264 0001:00010F35  1266 0001:00010F37
  1267 0001:00010F38  1268 0001:00010F39  1269 0001:00010F3A  1451 0001:00010F3C
  1452 0001:00010F3D  1453 0001:00010F3E  1455 0001:00010F40  1456 0001:00010F43
  1457 0001:00010F49  1458 0001:00010F4B  1460 0001:00010F4D  1461 0001:00010F50
  1462 0001:00010F54  1463 0001:00010F56  1466 0001:00010F58  1467 0001:00010F5B
  1468 0001:00010F5D  1469 0001:00010F5F  1472 0001:00010F62  1473 0001:00010F64
  1476 0001:00010F67  1477 0001:00010F6D  1478 0001:00010F6F  1479 0001:00010F71
  1480 0001:00010F73  1481 0001:00010F75  1482 0001:00010F77  1483 0001:00010F7A
  1485 0001:00010F7E  1486 0001:00010F7F  1487 0001:00010F81  1488 0001:00010F83
  1490 0001:00010F85  1491 0001:00010F86  1492 0001:00010F88  1494 0001:00010F8A
  1495 0001:00010F8B  1496 0001:00010F8C  1511 0001:00010F90  1512 0001:00010FA2
  1513 0001:00010FB5  1514 0001:00010FC6  1517 0001:00010FCC  1518 0001:00010FD8
  1519 0001:00010FE3  1570 0001:00010FE8  1571 0001:00010FE9  1572 0001:00010FEA
  1574 0001:00010FEC  1575 0001:00010FEF  1576 0001:00010FF5  1577 0001:00010FF7
  1579 0001:00010FF9  1580 0001:00010FFC  1581 0001:00011000  1582 0001:00011002
  1585 0001:00011004  1586 0001:00011007  1587 0001:00011009  1588 0001:0001100B
  1591 0001:0001100E  1592 0001:00011010  1595 0001:00011013  1596 0001:00011019
  1597 0001:0001101B  1598 0001:0001101D  1601 0001:00011022  1602 0001:00011023
  1603 0001:00011024  1615 0001:00011028  1616 0001:0001104B  1617 0001:00011056
  1618 0001:00011081  1633 0001:00011088  1634 0001:00011097  1635 0001:000110AE
  1636 0001:000110BE  1637 0001:000110CE  1639 0001:000110DC  1692 0001:000110E0
  1693 0001:00011103  1695 0001:0001111D  1698 0001:0001113B  1699 0001:00011144
  1701 0001:00011153  1702 0001:00011161  1706 0001:0001116E  1708 0001:0001117D
  1711 0001:0001118F  1713 0001:00011195  1714 0001:0001119B  1715 0001:000111A7
  1717 0001:000111B2  1721 0001:000111DE  1789 0001:000111E4  1790 0001:000111F0
  1791 0001:000111F9  1793 0001:0001120A  1795 0001:0001121D  1796 0001:0001122B
  1797 0001:00011254  1798 0001:00011262  1799 0001:00011270  1800 0001:0001128B
  1801 0001:00011299  1806 0001:000112AD  1808 0001:000112BC  1811 0001:000112CE
  1813 0001:000112D4  1814 0001:000112DA  1816 0001:000112EA  1817 0001:00011313
  1818 0001:00011328  1819 0001:0001133D  1820 0001:00011353  1821 0001:00011368
  1826 0001:00011383  1827 0001:000113AC  1828 0001:000113C4  1829 0001:000113DC
  1830 0001:000113F5  1831 0001:0001140D  1835 0001:00011429  1838 0001:00011434
  1839 0001:00011440  1840 0001:0001144B  1890 0001:00011450  1891 0001:00011451
  1892 0001:00011452  1894 0001:00011454  1895 0001:00011457  1896 0001:0001145D
  1897 0001:0001145F  1899 0001:00011461  1900 0001:00011464  1901 0001:00011468
  1902 0001:0001146A  1905 0001:0001146C  1906 0001:0001146F  1907 0001:00011471
  1908 0001:00011473  1911 0001:00011476  1912 0001:00011478  1915 0001:0001147B
  1916 0001:00011481  1917 0001:00011483  1918 0001:00011485  1921 0001:0001148A
  1922 0001:0001148B  1923 0001:0001148C  1976 0001:00011490  1977 0001:00011491
  1978 0001:00011494  1979 0001:00011498  1980 0001:0001149A  1981 0001:0001149D
  1982 0001:000114A0  1983 0001:000114A2  1986 0001:000114A4  1987 0001:000114A7
  1988 0001:000114A9  1989 0001:000114AB  1992 0001:000114AD  1993 0001:000114AF
  1996 0001:000114B1  1997 0001:000114B7  1998 0001:000114B9  1999 0001:000114BB
  2000 0001:000114BE  2001 0001:000114C0  2004 0001:000114C3  2005 0001:000114C4
  2043 0001:000114C8  2047 0001:000114CB  2048 0001:000114CF  2049 0001:000114D2
  2050 0001:000114D4  2051 0001:000114D7  2052 0001:000114DA  2053 0001:000114DD
  2056 0001:000114DF  2057 0001:000114E2  2058 0001:000114E4  2059 0001:000114E6
  2062 0001:000114E8  2063 0001:000114EA  2066 0001:000114EC  2067 0001:000114F2
  2068 0001:000114F4  2069 0001:000114F7  2070 0001:000114FA  2071 0001:000114FC
  2074 0001:000114FF  2130 0001:00011504  2131 0001:00011513  2132 0001:0001151C
  2134 0001:0001152B  2135 0001:00011539  2139 0001:00011546  2141 0001:00011555
  2144 0001:00011567  2146 0001:0001156D  2147 0001:00011573  2148 0001:0001157F
  2150 0001:0001158A  2152 0001:00011599  2154 0001:000115F0  2154 0001:000115F7

Line numbers for ActiveX(ActiveX.pas) segment .text

  6690 0001:00011628  6690 0001:0001162F

Line numbers for Classes(classes.pas) segment .text

   321 0001:00011EF4   752 0001:00012548  1288 0001:000128D4  1622 0001:00012C54
  1623 0001:00012C63  1624 0001:00012C71  1627 0001:00012C78  1630 0001:00012C86
  1631 0001:00012C8E  1633 0001:00012C99  1646 0001:00012CA0  1647 0001:00012CAF
  1648 0001:00012CC5  1656 0001:00012CCC  1657 0001:00012CDB  1658 0001:00012CF1
  1666 0001:00012CF8  1667 0001:00012D01  1668 0001:00012D1E  1732 0001:00012DD4
  1733 0001:00012DE0  1734 0001:00012DEE  1740 0001:00012DF4  1741 0001:00012E00
  1742 0001:00012E05  1744 0001:00012E1E  1745 0001:00012E2F  1746 0001:00012E3E
  1747 0001:00012E53  1748 0001:00012E59  1742 0001:00012E5C  1749 0001:00012E64
  1756 0001:00012E68  1757 0001:00012E77  1758 0001:00012E7D  1759 0001:00012E8D
  1760 0001:00012E92  1761 0001:00012E98  1762 0001:00012EA8  1763 0001:00012EAD
  1764 0001:00012EB3  1766 0001:00012EB9  1769 0001:00012EC0  1771 0001:00012EC8
  1773 0001:00012ECE  1776 0001:00012ED6  1777 0001:00012EE5  1779 0001:00012EED
  1780 0001:00012EF6  1783 0001:00012EFC  1784 0001:00012F17  1785 0001:00012F21
  1786 0001:00012F33  1787 0001:00012F45  1788 0001:00012F57  1789 0001:00012F80
  1792 0001:00012F84  1793 0001:00012F95  1794 0001:00012FA3  1795 0001:00012FAE
  1796 0001:00012FB9  1797 0001:00012FD2  1802 0001:00012FD8  1803 0001:00012FE4
  1805 0001:00012FFD  1806 0001:0001300E  1807 0001:0001301D  1803 0001:00013020
  1808 0001:00013025  1809 0001:00013036  1811 0001:0001303C  1812 0001:0001304D
  1814 0001:0001304F  1815 0001:00013057  1828 0001:0001305C  1829 0001:00013068
  1830 0001:0001306C  1831 0001:00013085  1830 0001:000130A4  1832 0001:000130A9
  1833 0001:000130B0  1838 0001:000130B4  1839 0001:000130D6  1840 0001:000130F2
  1841 0001:00013101  1842 0001:00013131  1843 0001:0001315C  1853 0001:00013160
  1854 0001:0001316C  1855 0001:00013183  1868 0001:00013188  1869 0001:00013194
  1870 0001:000131B3  1875 0001:000131B8  1883 0001:000131C4  1884 0001:000131D6
  1885 0001:000131F0  1883 0001:00013201  1886 0001:00013207  1887 0001:00013219
  1888 0001:00013233  1886 0001:00013244  1889 0001:0001324A  1890 0001:0001325E
  1891 0001:00013278  1889 0001:00013289  1892 0001:0001328F  1899 0001:00013294
  1900 0001:000132A0  1902 0001:000132AB  1903 0001:000132B4  1904 0001:000132CD
  1905 0001:000132DE  1903 0001:000132F2  1907 0001:000132F7  1917 0001:000132FC
  1918 0001:00013314  1919 0001:0001331E  1920 0001:00013330  1922 0001:0001333C
  1923 0001:00013351  1924 0001:0001335F  1925 0001:00013381  1930 0001:00013388
  1931 0001:00013399  1932 0001:000133A5  1933 0001:000133BE  1932 0001:000133D4
  1934 0001:000133D9  1935 0001:000133E4  1936 0001:00013400  1942 0001:00013404
  1943 0001:00013410  1944 0001:00013415  1946 0001:0001342E  1947 0001:0001343F
  1948 0001:00013456  1944 0001:00013459  1949 0001:00013461  1954 0001:00013468
  1955 0001:00013474  1956 0001:00013479  1957 0001:00013492  1959 0001:000134A3
  1960 0001:000134BA  1961 0001:000134C0  1956 0001:000134C3  1962 0001:000134CB
  1977 0001:000134D0  1978 0001:000134EF  1979 0001:0001355A  1986 0001:00013560
  1987 0001:0001356F  1988 0001:0001357D  1989 0001:0001358A  1998 0001:00013595
  2000 0001:000135B2  2001 0001:000135C3  2002 0001:000135CB  2004 0001:000135DD
  2005 0001:000135EE  2009 0001:000135FD  2011 0001:0001360D  2012 0001:0001361B
  2014 0001:00013629  2002 0001:0001362C  2015 0001:00013632  1998 0001:00013635
  2016 0001:0001363E  2019 0001:00013644  2020 0001:0001364B  2021 0001:00013657
  2026 0001:0001365C  2027 0001:00013668  2028 0001:00013676  2029 0001:00013687
  2043 0001:0001368C  2044 0001:00013698  2045 0001:0001369C  2046 0001:000136B5
  2045 0001:000136D2  2047 0001:000136D7  2048 0001:000136DE  2053 0001:000136E4
  2055 0001:000136F0  2056 0001:00013709  2057 0001:00013726  2055 0001:00013729
  2059 0001:0001372E  2060 0001:0001374A  2063 0001:00013750  2064 0001:00013757
  2065 0001:00013763  2079 0001:00013768  2080 0001:00013774  2082 0001:00013786
  2083 0001:00013797  2084 0001:000137A2  2086 0001:000137AE  2087 0001:000137B6
  2089 0001:000137C4  2080 0001:000137C7  2090 0001:000137CD  2099 0001:000137D4
  2100 0001:000137EF  2101 0001:000137F9  2102 0001:0001380B  2103 0001:00013815
  2104 0001:00013823  2105 0001:00013834  2107 0001:0001384F  2108 0001:00013862
  2109 0001:00013871  2110 0001:0001387F  2105 0001:00013882  2111 0001:00013887
  2112 0001:0001388D  2114 0001:000138A8  2115 0001:000138BB  2116 0001:000138C4
  2117 0001:000138D2  2112 0001:000138D5  2119 0001:000138E7  2121 0001:00013914
  2124 0001:0001391C  2125 0001:0001392D  2126 0001:00013938  2127 0001:00013954
  2132 0001:00013958  2133 0001:00013964  2134 0001:00013969  2135 0001:00013973
  2136 0001:00013981  2137 0001:0001399A  2139 0001:000139AB  2140 0001:000139B9
  2141 0001:000139C6  2136 0001:000139C9  2143 0001:000139DB  2145 0001:000139F0
  2171 0001:000139F4  2172 0001:000139F7  2173 0001:000139F9  2174 0001:000139FB
  2176 0001:000139FE  2179 0001:00013A00  2180 0001:00013A1C  2181 0001:00013A6A
  2184 0001:00013A70  2185 0001:00013A79  2186 0001:00013A83  2187 0001:00013A91
  2189 0001:00013AAE  2191 0001:00013AC3  2194 0001:00013AC8  2195 0001:00013AD1
  2196 0001:00013ADC  2197 0001:00013AED  2200 0001:00013AF4  2201 0001:00013AFB
  2202 0001:00013B05  2205 0001:00013B15  2206 0001:00013B22  2207 0001:00013B2D
  2203 0001:00013B38  2210 0001:00013B56  2212 0001:00013B68  2249 0001:00013B6C
  2250 0001:00013B73  2251 0001:00013B7D  2252 0001:00013B8B  2254 0001:00013BA5
  2256 0001:00013BB7  2259 0001:00013BBC  2260 0001:00013BC3  2261 0001:00013BCD
  2262 0001:00013BDB  2264 0001:00013BF5  2266 0001:00013C07  2269 0001:00013C0C
  2270 0001:00013C18  2271 0001:00013C22  2272 0001:00013C30  2274 0001:00013C4D
  2276 0001:00013C5F  2279 0001:00013C64  2280 0001:00013C6D  2281 0001:00013C77
  2282 0001:00013C85  2283 0001:00013C90  2285 0001:00013CAA  2287 0001:00013CBF
  2359 0001:00013D1C  2360 0001:00013D37  2361 0001:00013D40  2362 0001:00013D49
  2363 0001:00013D6D  2367 0001:00013D74  2368 0001:00013D83  2369 0001:00013DA6
  2411 0001:00013DAC  2412 0001:00013DB5  2413 0001:00013DBA  2414 0001:00013DC7
  2415 0001:00013DD5  2416 0001:00013DE4  2417 0001:00013DF2  2419 0001:00013DFD
  2420 0001:00013E06  2421 0001:00013E0D  2415 0001:00013E10  2423 0001:00013E23
  2425 0001:00013E38  2430 0001:00013E3C  2431 0001:00013E4B  2432 0001:00013E5D
  2434 0001:00013E73  2435 0001:00013E77  2436 0001:00013E85  2437 0001:00013E87
  2431 0001:00013E8A  2438 0001:00013E8F  2439 0001:00013E96  2444 0001:00013E9C
  2445 0001:00013EAB  2446 0001:00013EBD  2448 0001:00013ECB  2449 0001:00013ECF
  2450 0001:00013EE1  2451 0001:00013EE3  2445 0001:00013EE6  2452 0001:00013EEB
  2453 0001:00013EF2  2459 0001:00013EF8  2460 0001:00013EFF  2461 0001:00013F08
  2462 0001:00013F19  2463 0001:00013F2A  2464 0001:00013F37  2467 0001:00013F3C
  2468 0001:00013F43  2469 0001:00013F4C  2470 0001:00013F59  2475 0001:00013F5C
  2476 0001:00013F66  2477 0001:00013F6B  2479 0001:00013F74  2481 0001:00013F85
  2482 0001:00013F9C  2483 0001:00013FA2  2479 0001:00013FA5  2485 0001:00013FAE
  2488 0001:00013FB4  2489 0001:00013FBD  2490 0001:00013FC6  2491 0001:00013FD4
  2492 0001:00013FE5  2497 0001:00013FEC  2498 0001:00013FFB  2499 0001:00014009
  2500 0001:00014020  2501 0001:00014028  2502 0001:0001402E  2503 0001:00014046
  2504 0001:00014054  2506 0001:00014073  2508 0001:00014083  2509 0001:0001408A
  2518 0001:00014090  2519 0001:00014095  2520 0001:000140A3  2522 0001:000140A9
  2523 0001:000140B8  2525 0001:000140C6  2526 0001:000140D9  2527 0001:000140F2
  2533 0001:000140F8  2534 0001:000140FE  2535 0001:0001410C  2536 0001:00014122
  2535 0001:00014135  2537 0001:0001413A  2542 0001:00014140  2543 0001:00014145
  2544 0001:00014155  2545 0001:00014163  2546 0001:00014178  2547 0001:00014187
  2549 0001:00014190  2550 0001:0001419D  2552 0001:000141A5  2557 0001:000141AC
  2558 0001:000141CB  2559 0001:000141CF  2560 0001:000141E5  2561 0001:000141FA
  2563 0001:0001425B  2567 0001:00014260  2568 0001:0001426C  2569 0001:00014276
  2570 0001:00014284  2571 0001:000142A0  2572 0001:000142AB  2573 0001:000142B9
  2574 0001:000142CB  2576 0001:000142E3  2579 0001:00014303  2581 0001:00014318
  2746 0001:00014324  2747 0001:00014335  2748 0001:0001434B  2751 0001:00014350
  2752 0001:0001435D  2753 0001:00014366  2754 0001:00014371  2755 0001:00014378
  2756 0001:00014387  2757 0001:0001438D  2758 0001:00014393  2759 0001:000143A3
  2762 0001:000143A8  2763 0001:000143AF  2764 0001:000143B9  2765 0001:000143C3
  2770 0001:000143C8  2771 0001:000143D5  2772 0001:000143E6  2773 0001:000143F9
  2774 0001:00014407  2775 0001:0001440D  2776 0001:00014418  2778 0001:00014444
  2779 0001:0001444A  2780 0001:00014457  2785 0001:0001445C  2786 0001:0001445F
  2787 0001:00014462  2789 0001:00014464  2790 0001:00014473  2791 0001:0001449F
  2794 0001:000144A4  2795 0001:000144C7  2796 0001:000144FF  2812 0001:00014504
  2813 0001:0001450D  2814 0001:0001451B  2815 0001:00014522  2816 0001:0001452B
  2819 0001:00014530  2820 0001:00014539  2821 0001:00014549  2824 0001:00014550
  2825 0001:0001455C  2826 0001:0001456D  2827 0001:00014580  2828 0001:00014592
  2833 0001:00014598  2834 0001:000145A1  2835 0001:000145AA  2837 0001:000145BF
  2838 0001:000145C8  2840 0001:000145D1  2841 0001:000145D8  2842 0001:000145E9
  2845 0001:000145F0  2846 0001:000145FC  2848 0001:00014603  2847 0001:00014606
  2849 0001:00014622  2850 0001:0001462D  2851 0001:00014637  2854 0001:0001463C
  2855 0001:0001464C  2856 0001:0001465D  2857 0001:00014670  2858 0001:0001467E
  2859 0001:00014685  2860 0001:00014690  2862 0001:000146BC  2863 0001:000146CB
  2864 0001:000146D1  2865 0001:000146D7  2866 0001:000146E4  2869 0001:000146EC
  2870 0001:000146F5  2871 0001:0001470A  2892 0001:00014710  2893 0001:00014720
  2894 0001:00014731  2895 0001:00014744  2897 0001:00014755  2898 0001:00014764
  2899 0001:00014773  2900 0001:00014779  2901 0001:00014786  2902 0001:0001478C
  2904 0001:00014799  2907 0001:000147A0  2908 0001:000147AC  2909 0001:000147BA
  2910 0001:000147C0  2911 0001:000147CE  2923 0001:000147D4  2924 0001:000147E0
  2925 0001:000147F4  2926 0001:00014807  2928 0001:00014812  2929 0001:00014823
  2931 0001:0001482C  2936 0001:00014830  2937 0001:0001483C  2938 0001:0001484B
  2939 0001:0001485E  2940 0001:00014869  2941 0001:00014874  2942 0001:0001487F
  2944 0001:000148A3  2945 0001:000148B8  2944 0001:000148C6  2946 0001:000148CB
  2947 0001:000148D4  3001 0001:000148D8  3002 0001:000148E7  3090 0001:000148EC
  3091 0001:00014904  3092 0001:0001490E  3093 0001:0001491A  3094 0001:0001492C
  3095 0001:0001494E  3098 0001:00014954  3099 0001:00014965  3100 0001:0001496D
  3101 0001:0001497B  3102 0001:00014986  3104 0001:000149A1  3105 0001:000149A9
  3107 0001:000149CB  3110 0001:000149D0  3111 0001:000149DC  3112 0001:000149E4
  3113 0001:000149F2  3115 0001:00014A0C  3116 0001:00014A1C  3117 0001:00014A25
  3119 0001:00014A48  3121 0001:00014A58  3134 0001:00014A5C  3135 0001:00014A65
  3136 0001:00014A71  3137 0001:00014A7D  3140 0001:00014A84  3141 0001:00014A90
  3142 0001:00014A98  3143 0001:00014AA6  3145 0001:00014AC1  3147 0001:00014AD1
  3150 0001:00014AD8  3151 0001:00014ADF  3152 0001:00014AEB  3365 0001:00014AF0
  3366 0001:00014B01  3367 0001:00014B0B  3368 0001:00014B27  3371 0001:00014B2C
  3372 0001:00014B33  3373 0001:00014B4A  3382 0001:00014B50  3383 0001:00014B5C
  3384 0001:00014B62  3385 0001:00014B73  3387 0001:00014B78  3388 0001:00014B84
  3390 0001:00014B93  3391 0001:00014BA1  3392 0001:00014BB8  3393 0001:00014BD2
  3395 0001:00014BDA  3396 0001:00014BDF  3398 0001:00014BE5  3399 0001:00014BF0
  3401 0001:00014BFD  3403 0001:00014C03  3404 0001:00014C09  3405 0001:00014C26
  3407 0001:00014C34  3409 0001:00014C3D  3411 0001:00014C46  3415 0001:00014C4C
  3416 0001:00014C4F  3418 0001:00014C51  3419 0001:00014C54  3420 0001:00014C56
  3421 0001:00014C58  3422 0001:00014C5B  3424 0001:00014C5C  3425 0001:00014C5F
  3427 0001:00014C60  3428 0001:00014C63  3429 0001:00014C69  3430 0001:00014C6A
  3431 0001:00014C6B  3432 0001:00014C6C  3433 0001:00014C6D  3434 0001:00014C72
  3435 0001:00014C73  3436 0001:00014C74  3437 0001:00014C75  3438 0001:00014C77
  3456 0001:00014C78  3457 0001:00014C81  3458 0001:00014C99  3459 0001:00014CAB
  3461 0001:00014CBF  3462 0001:00014CCE  3464 0001:00014CD2  3466 0001:00014CE2
  3467 0001:00014CF2  3468 0001:00014D06  3470 0001:00014D08  3462 0001:00014D0B
  3471 0001:00014D11  3458 0001:00014D14  3472 0001:00014D19  3473 0001:00014D25
  3478 0001:00014D30  3479 0001:00014D41  3480 0001:00014D49  3481 0001:00014D65
  3484 0001:00014D6C  3485 0001:00014D78  3486 0001:00014D94  3491 0001:00014D98
  3492 0001:00014DBA  3493 0001:00014DC0  3494 0001:00014DE0  3495 0001:00014DED
  3496 0001:00014E5D  3499 0001:00014E70  3500 0001:00014E7C  3501 0001:00014E87
  3504 0001:00014E8C  3505 0001:00014E98  3510 0001:00014E9C  3511 0001:00014EBF
  3512 0001:00014EDD  3514 0001:00014EED  3515 0001:00014F05  3516 0001:00014F0B
  3518 0001:00014F42  3521 0001:00014F54  3522 0001:00014F5D  3523 0001:00014F65
  3528 0001:00014F6C  3529 0001:00014F74  3530 0001:00014F7C  3531 0001:00014F8C
  3532 0001:00014FB1  3535 0001:00014FC8  3536 0001:00014FCC  3537 0001:00014FD5
  3538 0001:00014FE6  3539 0001:00014FF0  3542 0001:00014FF8  3543 0001:00014FFC
  3544 0001:00015005  3545 0001:00015016  3546 0001:00015020  3552 0001:00015028
  3553 0001:0001502C  3554 0001:0001504F  3735 0001:00015054  3736 0001:0001505D
  3737 0001:0001506E  3738 0001:0001507C  3770 0001:00015080  3771 0001:00015087
  3773 0001:00015093  3774 0001:0001509B  3776 0001:000150AB  3775 0001:000150BB
  3778 0001:000150D4  3781 0001:000150E4  3977 0001:000150E8  3978 0001:000150F9
  3979 0001:00015103  3980 0001:0001511F  3983 0001:00015124  3984 0001:00015131
  3985 0001:0001513C  3986 0001:0001514D  3989 0001:00015154  3990 0001:00015164
  3991 0001:00015172  3992 0001:00015183  4002 0001:00015188  4003 0001:000151A8
  4004 0001:000151B0  4005 0001:000151BE  4006 0001:000151D6  4005 0001:00015201
  4008 0001:00015213  4010 0001:00015240  4013 0001:00015248  4014 0001:00015254
  4016 0001:00015266  4017 0001:0001526E  4018 0001:0001527C  4019 0001:00015284
  4020 0001:00015290  4021 0001:0001529C  4022 0001:000152A8  4023 0001:000152B4
  4025 0001:000152CC  4029 0001:000152DC  4030 0001:000152E7  4033 0001:000152EC
  4034 0001:000152F3  4035 0001:00015306  4036 0001:0001530C  4041 0001:00015310
  4042 0001:00015314  4044 0001:00015320  4045 0001:00015324  4046 0001:0001533C
  4048 0001:00015357  4049 0001:0001536B  4051 0001:00015370  4052 0001:0001537D
  4053 0001:000153A5  4056 0001:000153BC  4057 0001:000153C3  4058 0001:000153C9
  4059 0001:000153DC  4064 0001:000153E0  4065 0001:00015403  4066 0001:00015407
  4067 0001:00015412  4068 0001:0001541F  4069 0001:00015465  4070 0001:0001548E
  4075 0001:00015494  4076 0001:00015497  4077 0001:0001549A  4079 0001:0001549C
  4080 0001:000154AB  4081 0001:000154D7  4084 0001:000154DC  4085 0001:000154FF
  4086 0001:00015535  4092 0001:0001553C  4093 0001:00015562  4094 0001:0001556A
  4095 0001:00015578  4096 0001:00015586  4097 0001:00015594  4098 0001:000155B0
  4099 0001:000155C8  4100 0001:000155D6  4102 0001:000155F1  4104 0001:00015623
  4118 0001:00015628  4119 0001:00015631  4120 0001:0001563F  4177 0001:00015644
  4178 0001:00015650  4179 0001:00015658  4182 0001:0001565C  4183 0001:00015678
  4184 0001:000156B3  4191 0001:000156B8  4192 0001:000156DE  4193 0001:000156E9
  4194 0001:000156EE  4195 0001:000156FB  4196 0001:0001573B  4197 0001:00015748
  4198 0001:00015750  4200 0001:00015763  4201 0001:00015771  4202 0001:0001577C
  4204 0001:00015782  4205 0001:00015790  4207 0001:00015796  4208 0001:000157A1
  4210 0001:000157A7  4211 0001:000157B5  4213 0001:000157BB  4198 0001:000157BE
  4214 0001:000157ED  4227 0001:00015800  4228 0001:00015820  4229 0001:00015838
  4228 0001:0001585B  4230 0001:00015860  4231 0001:00015887  4237 0001:0001588C
  4238 0001:000158B2  4240 0001:000158CA  4241 0001:000158D8  4242 0001:000158F8
  4243 0001:00015925  4238 0001:00015928  4244 0001:0001592D  4245 0001:00015961
  4248 0001:00015968  4249 0001:00015974  4250 0001:0001598C  4249 0001:0001599F
  4251 0001:000159A4  4252 0001:000159AE  4256 0001:000159B4  4257 0001:000159C4
  4258 0001:000159D2  4259 0001:000159E0  4264 0001:000159E8  4265 0001:000159F4
  4266 0001:00015A08  4267 0001:00015A16  4269 0001:00015A2E  4271 0001:00015A3E
  4277 0001:00015A44  4278 0001:00015A64  4279 0001:00015A6C  4280 0001:00015A7A
  4281 0001:00015A90  4282 0001:00015A9D  4283 0001:00015AAB  4285 0001:00015AC3
  4287 0001:00015AF0  4293 0001:00015AF8  4294 0001:00015B1B  4296 0001:00015B23
  4297 0001:00015B2B  4298 0001:00015B39  4299 0001:00015B47  4300 0001:00015B55
  4301 0001:00015B60  4303 0001:00015B7F  4306 0001:00015BAC  4311 0001:00015BB4
  4312 0001:00015BC4  4313 0001:00015BD2  4314 0001:00015BDD  4315 0001:00015BEF
  4318 0001:00015BF4  4319 0001:00015C03  4322 0001:00015C08  4323 0001:00015C27
  4324 0001:00015C2F  4325 0001:00015C37  4326 0001:00015C45  4327 0001:00015C4F
  4329 0001:00015C7E  4331 0001:00015C8E  4332 0001:00015CB3  4337 0001:00015CB8
  4338 0001:00015CC4  4339 0001:00015CDB  4340 0001:00015CE9  4342 0001:00015D01
  4344 0001:00015D11  4349 0001:00015D18  4350 0001:00015D37  4351 0001:00015D42
  4352 0001:00015D74  4355 0001:00015D78  4357 0001:00015D84  4367 0001:00015D88
  4368 0001:00015D94  4369 0001:00015DA8  4370 0001:00015DB6  4371 0001:00015DCD
  4374 0001:00015DD4  4375 0001:00015DF3  4376 0001:00015E26  4382 0001:00015E2C
  4383 0001:00015E4B  4384 0001:00015E53  4385 0001:00015E61  4386 0001:00015E69
  4387 0001:00015E6F  4390 0001:00015E77  4391 0001:00015E7F  4392 0001:00015E93
  4393 0001:00015EA4  4394 0001:00015EAF  4395 0001:00015EBA  4388 0001:00015EC5
  4398 0001:00015EDA  4400 0001:00015F07  4403 0001:00015F0C  4404 0001:00015F18
  4424 0001:00015F1C  4425 0001:00015F3C  4426 0001:00015F44  4427 0001:00015F7D
  4428 0001:00015FA2  4524 0001:00015FA8  4525 0001:00015FB7  4526 0001:00015FC8
  4529 0001:00015FCC  4530 0001:00015FD5  4531 0001:00015FDE  4532 0001:00015FE8
  4533 0001:00015FF4  4536 0001:00015FF8  4537 0001:00016004  4539 0001:00016018
  4540 0001:0001601F  4542 0001:00016028  4565 0001:0001602C  4566 0001:0001603D
  4567 0001:00016048  4568 0001:00016053  4569 0001:00016061  4570 0001:00016081
  4571 0001:00016089  4572 0001:000160A1  4575 0001:000160A8  4576 0001:000160B5
  4577 0001:000160C8  4580 0001:000160D0  4581 0001:000160E0  4582 0001:000160E9
  4584 0001:000160F4  4585 0001:00016109  4587 0001:00016119  4589 0001:00016129
  4590 0001:00016141  4593 0001:00016148  4594 0001:00016150  4595 0001:00016163
  4596 0001:0001616F  4599 0001:00016174  4600 0001:0001617C  4601 0001:0001618F
  4602 0001:0001619B  4605 0001:000161A0  4606 0001:000161A7  4608 0001:000161B0
  4609 0001:000161BB  4610 0001:000161D2  4611 0001:000161DA  4612 0001:000161E4
  4614 0001:000161EF  4617 0001:000161F4  4618 0001:00016201  4619 0001:00016223
  4620 0001:0001622E  4621 0001:00016245  4622 0001:0001624B  4623 0001:00016256
  4625 0001:00016282  4626 0001:0001628D  4629 0001:00016294  4630 0001:000162A3
  4631 0001:000162C5  4632 0001:000162E7  4633 0001:000162F2  4634 0001:00016300
  4635 0001:0001630B  4641 0001:00016310  4642 0001:0001631F  4643 0001:0001632E
  4644 0001:0001633D  4645 0001:00016345  4646 0001:0001634F  4647 0001:00016357
  4648 0001:00016360  4649 0001:0001636C  4650 0001:00016375  4655 0001:0001637C
  4656 0001:0001638C  4657 0001:00016390  4658 0001:00016395  4659 0001:0001639F
  4661 0001:000163A7  4662 0001:000163B2  4663 0001:000163CC  4665 0001:000163DB
  4666 0001:000163E2  4668 0001:000163E8  4669 0001:000163EC  4659 0001:000163FB
  4673 0001:00016403  4674 0001:0001640E  4677 0001:00016414  4678 0001:00016423
  4679 0001:00016445  4680 0001:00016459  4683 0001:00016460  4684 0001:00016469
  4685 0001:00016475  4688 0001:0001647C  4689 0001:00016485  4690 0001:00016491
  4693 0001:00016498  4694 0001:000164A4  4695 0001:000164C6  4696 0001:000164D9
  4701 0001:000164E0  4702 0001:000164E9  4703 0001:00016507  4704 0001:00016519
  4705 0001:00016520  4706 0001:00016531  4709 0001:00016538  4710 0001:00016545
  4711 0001:0001655E  4712 0001:0001657D  4715 0001:00016584  4716 0001:00016594
  4717 0001:000165A4  4721 0001:000165AC  4722 0001:000165BC  4723 0001:000165D5
  4724 0001:000165F7  4725 0001:0001660C  4728 0001:00016614  4729 0001:00016623
  4730 0001:0001662E  4731 0001:00016644  4732 0001:0001664F  4734 0001:00016679
  4736 0001:00016688  4737 0001:0001668F  4738 0001:00016698  4740 0001:000166A3
  4741 0001:000166A9  4742 0001:000166B4  4745 0001:000166BC  4746 0001:000166CB
  4747 0001:000166E4  4748 0001:00016706  4749 0001:00016711  4750 0001:00016725
  4751 0001:00016730  4754 0001:00016734  4755 0001:00016743  4756 0001:00016765
  4757 0001:00016770  4758 0001:00016780  4759 0001:0001678B  4764 0001:00016790
  4766 0001:0001679F  4767 0001:000167A5  4768 0001:000167AB  4770 0001:000167B8
  4771 0001:000167CD  4772 0001:000167E0  4774 0001:000167E8  4775 0001:000167F6
  4776 0001:000167FE  4777 0001:00016806  4778 0001:0001680E  4779 0001:00016814
  4780 0001:00016817  4782 0001:0001681A  4783 0001:00016822  4784 0001:0001683C
  4785 0001:00016842  4786 0001:0001684E  4789 0001:00016854  4790 0001:00016860
  4791 0001:00016871  4792 0001:0001687A  4795 0001:00016880  4796 0001:0001688C
  4798 0001:00016897  4799 0001:000168A8  4801 0001:000168B1  4804 0001:000168B8
  4805 0001:000168C4  4806 0001:000168E2  4809 0001:000168E8  4810 0001:000168F8
  4812 0001:0001691E  4815 0001:00016924  4816 0001:0001692B  4817 0001:0001693B
  4820 0001:00016940  4821 0001:0001694C  4823 0001:0001695E  4824 0001:00016969
  4825 0001:0001697E  4827 0001:00016989  4830 0001:00016990  4831 0001:0001699F
  4832 0001:000169A8  4834 0001:000169B8  4835 0001:000169C9  4849 0001:000169D0
  4850 0001:000169D9  4851 0001:000169F3  4854 0001:000169F8  4855 0001:000169FF
  4856 0001:00016A0F  4861 0001:00016A14  4862 0001:00016A1D  4863 0001:00016A31
  4864 0001:00016A45  4865 0001:00016A5B  4868 0001:00016A60  4871 0001:00016A6C
  4874 0001:00016A70  4875 0001:00016A77  4876 0001:00016A85  4879 0001:00016A8C
  4885 0001:00016A93  4886 0001:00016AB9  4887 0001:00016AD0  4888 0001:00016ADD
  4893 0001:00016AE4  4894 0001:00016AED  4895 0001:00016B2A  4903 0001:00016B30
  4909 0001:00016B40  4910 0001:00016B4E  4912 0001:00016B5B  4911 0001:00016B66
  4913 0001:00016B77  4914 0001:00016B84  4915 0001:00016B92  4916 0001:00016B9A
  4917 0001:00016BA1  4918 0001:00016BB8  4921 0001:00016BBC  4924 0001:00016BC9
  4925 0001:00016BEF  4926 0001:00016C06  4927 0001:00016C25  4930 0001:00016C2C
  4931 0001:00016C3C  4932 0001:00016C55  4933 0001:00016C6C  4936 0001:00016C74
  4937 0001:00016C84  4938 0001:00016C9D  4939 0001:00016CB4  4947 0001:00016CBC
  4948 0001:00016CC8  4950 0001:00016CD4  4951 0001:00016CE0  4953 0001:00016CED
  4954 0001:00016CF9  4955 0001:00016D1B  4956 0001:00016D26  4959 0001:00016D36
  4960 0001:00016D56  4961 0001:00016D64  4962 0001:00016D72  4957 0001:00016D7C
  4965 0001:00016D95  4967 0001:00016DAE  4972 0001:00016DB4  4973 0001:00016DC0
  4974 0001:00016DD7  4975 0001:00016DE5  4977 0001:00016E00  4979 0001:00016E13
  5059 0001:00016E18  5060 0001:00016E33  5061 0001:00016E3D  5062 0001:00016E61
  5065 0001:00016E68  5066 0001:00016E77  5067 0001:00016E8B  5068 0001:00016E99
  5071 0001:00016EA0  5072 0001:00016EAF  5073 0001:00016EC3  5074 0001:00016ED1
  5077 0001:00016ED8  5078 0001:00016EE4  5079 0001:00016F06  5082 0001:00016F0C
  5083 0001:00016F18  5084 0001:00016F26  5087 0001:00016F2C  5088 0001:00016F33
  5090 0001:00016F43  5095 0001:00016F54  5100 0001:00016F5C  5102 0001:00016F77
  5106 0001:00016FA6  5109 0001:00016FAC  5110 0001:00016FE4  5112 0001:00016FEC
  5113 0001:00017003  5114 0001:00017010  5118 0001:0001705B  5119 0001:00017073
  5120 0001:0001707C  5122 0001:00017102  5125 0001:0001710C  5126 0001:0001711D
  5127 0001:00017131  5128 0001:0001714D  5134 0001:00017154  5135 0001:00017163
  5136 0001:0001716C  5137 0001:00017175  5140 0001:0001717C  5141 0001:0001718B
  5143 0001:0001719A  5144 0001:000171A9  5146 0001:000171AF  5147 0001:000171BD
  5148 0001:000171D4  5149 0001:000171DD  5152 0001:000171DF  5153 0001:000171E7
  5156 0001:000171EC  5157 0001:000171FC  5158 0001:0001720F  5159 0001:0001721A
  5160 0001:00017225  5162 0001:00017234  5163 0001:00017240  5188 0001:00017244
  5189 0001:00017255  5190 0001:0001725D  5191 0001:00017279  5194 0001:00017280
  5195 0001:00017287  5196 0001:00017291  5197 0001:00017299  5198 0001:000172A1
  5203 0001:000172A4  5204 0001:000172B0  5205 0001:000172BC  5206 0001:000172C6
  5207 0001:000172D1  5208 0001:000172E8  5223 0001:000172EC  5224 0001:000172F8
  5225 0001:00017313  5226 0001:0001731C  5231 0001:00017320  5232 0001:0001732D
  5233 0001:00017336  5234 0001:00017341  5235 0001:0001734A  5236 0001:00017360
  5239 0001:00017368  5240 0001:00017374  5241 0001:00017389  5242 0001:0001739D
  5243 0001:000173A6  5245 0001:000173B3  5248 0001:000173BB  5252 0001:000173C6
  5256 0001:000173CD  5257 0001:000173D6  5259 0001:000173ED  5266 0001:00017409
  5269 0001:00017429  5274 0001:00017430  5275 0001:0001743F  5277 0001:0001744E
  5278 0001:0001745A  5280 0001:00017460  5282 0001:0001746B  5283 0001:00017476
  5284 0001:00017481  5286 0001:0001748A  5287 0001:000174A1  5288 0001:000174AA
  5289 0001:000174B0  5292 0001:000174B2  5293 0001:000174BA  5357 0001:000174C0
  5358 0001:000174DB  5359 0001:000174E5  5360 0001:00017519  5372 0001:00017520
  5373 0001:00017539  5374 0001:0001758A  5376 0001:00017590  5377 0001:0001759F
  5378 0001:000175B6  5379 0001:000175C6  5380 0001:000175DC  5381 0001:000175EC
  5382 0001:00017614  5385 0001:0001761C  5386 0001:0001762D  5387 0001:00017638
  5388 0001:00017644  5389 0001:00017660  5392 0001:00017664  5393 0001:00017673
  5394 0001:0001768D  5399 0001:00017694  5400 0001:000176AF  5401 0001:000176B8
  5402 0001:000176C6  5403 0001:000176EA  5406 0001:000176F0  5407 0001:00017701
  5408 0001:00017729  5411 0001:00017730  5412 0001:0001773C  5413 0001:00017745
  5439 0001:00017824  5440 0001:0001783F  5441 0001:00017848  5442 0001:00017851
  5443 0001:0001785A  5444 0001:00017868  5445 0001:00017891  5451 0001:00017898
  5452 0001:000178A1  5453 0001:000178A5  5454 0001:000178AE  5455 0001:000178B6
  5456 0001:000178C6  5457 0001:000178CE  5458 0001:000178E2  5459 0001:000178F9
  5460 0001:00017900  5463 0001:00017904  5464 0001:00017910  5465 0001:00017924
  5470 0001:00017928  5471 0001:00017947  5472 0001:0001794F  5473 0001:00017955
  5474 0001:0001797F  5475 0001:00017987  5476 0001:000179B8  5483 0001:000179BC
  5484 0001:000179DB  5485 0001:000179E0  5486 0001:000179EA  5487 0001:000179F0
  5490 0001:000179FB  5491 0001:00017A03  5492 0001:00017A15  5493 0001:00017A26
  5494 0001:00017A34  5495 0001:00017A4B  5496 0001:00017A51  5497 0001:00017A57
  5498 0001:00017A62  5499 0001:00017A6D  5500 0001:00017A78  5488 0001:00017A7E
  5502 0001:00017A8A  5503 0001:00017AB0  5516 0001:00017AC4  5517 0001:00017ACB
  5519 0001:00017AEF  5520 0001:00017AFD  5525 0001:00017B00  5526 0001:00017B09
  5527 0001:00017B1A  5528 0001:00017B2E  5529 0001:00017B40  5530 0001:00017B4E
  5532 0001:00017B54  5535 0001:00017B5A  5536 0001:00017B64  5537 0001:00017B72
  5538 0001:00017B7F  5539 0001:00017B8D  5541 0001:00017B9A  5542 0001:00017BA9
  5543 0001:00017BB7  5544 0001:00017BC6  5545 0001:00017BD4  5547 0001:00017BDE
  5549 0001:00017BEC  5550 0001:00017BFA  5552 0001:00017C15  5554 0001:00017C1B
  5555 0001:00017C2C  5557 0001:00017C36  5558 0001:00017C43  5559 0001:00017C4E
  5562 0001:00017C58  5563 0001:00017C65  5546 0001:00017C68  5567 0001:00017C84
  5569 0001:00017C94  5571 0001:00017CAA  5572 0001:00017CB8  5573 0001:00017CCA
  5574 0001:00017CD3  5569 0001:00017CD6  5576 0001:00017CE8  5580 0001:00017D05
  5583 0001:00017D24  5585 0001:00017D36  5641 0001:00017D3C  5642 0001:00017D48
  5643 0001:00017D55  5644 0001:00017D62  5645 0001:00017D70  5647 0001:00017D7F
  5648 0001:00017D8D  5651 0001:00017DB6  5652 0001:00017DC1  5654 0001:00017DC9
  5645 0001:00017DCC  5656 0001:00017DDF  5658 0001:00017DF1  5664 0001:00017DF8
  5665 0001:00017E01  5666 0001:00017E0A  5667 0001:00017E17  5668 0001:00017E25
  5670 0001:00017E34  5671 0001:00017E42  5673 0001:00017E4D  5674 0001:00017E58
  5676 0001:00017E60  5668 0001:00017E63  5678 0001:00017E76  5680 0001:00017E88
  5706 0001:00017E8C  5707 0001:00017E93  5708 0001:00017EA7  5711 0001:00017EAC
  5712 0001:00017EAF  5713 0001:00017EB9  5716 0001:00017EBC  5717 0001:00017EC5
  5718 0001:00017EEC  5721 0001:00017EF0  5722 0001:00017EFC  5723 0001:00017F0A
  5724 0001:00017F18  5727 0001:00017F1C  5728 0001:00017F2E  5729 0001:00017F49
  5730 0001:00017F65  5744 0001:00017F6C  5745 0001:00017F78  5747 0001:00017F85
  5748 0001:00017F8B  5749 0001:00017F93  5751 0001:00017F98  5755 0001:00017F9C
  5756 0001:00017FAB  5758 0001:00017FC4  5759 0001:00017FCD  5761 0001:00017FD8
  5768 0001:00017FE0  5769 0001:00017FEF  5771 0001:00018010  5773 0001:0001801C
  5774 0001:00018022  5775 0001:0001802A  5776 0001:00018031  5778 0001:00018036
  5779 0001:00018045  5780 0001:00018053  5781 0001:00018063  5782 0001:0001806E
  5783 0001:0001807F  5784 0001:00018086  5786 0001:0001809C  5788 0001:000180AC
  5790 0001:000180B7  5793 0001:000180C0  5794 0001:000180C9  5795 0001:000180D7
  5796 0001:000180E0  5806 0001:000180E4  5807 0001:000180F1  5808 0001:000180F5
  5809 0001:00018115  5815 0001:0001811C  5816 0001:0001812F  5817 0001:00018155
  5818 0001:0001815D  5819 0001:0001817E  5820 0001:0001818C  5825 0001:00018194
  5826 0001:0001819D  5827 0001:000181AA  5828 0001:000181B8  5829 0001:000181C7
  5830 0001:000181D5  5832 0001:000181F1  5833 0001:000181F9  5834 0001:00018204
  5828 0001:00018207  5836 0001:0001821A  5838 0001:0001822C  5845 0001:00018230
  5846 0001:0001824C  5847 0001:00018259  5848 0001:00018267  5849 0001:00018284
  5851 0001:00018295  5852 0001:000182A3  5853 0001:000182AE  5859 0001:000182BF
  5860 0001:000182D2  5862 0001:000182E4  5863 0001:000182FE  5866 0001:00018310
  5867 0001:0001831A  5848 0001:0001831D  5869 0001:00018333  5871 0001:00018360
  5883 0001:00018364  5884 0001:0001836B  5885 0001:00018381  5886 0001:00018389
  5887 0001:00018391  5892 0001:00018394  5893 0001:0001839D  5895 0001:000183A6
  5896 0001:000183DA  5897 0001:000183E5  5899 0001:000183ED  5906 0001:000183F4
  5907 0001:00018403  5910 0001:00018410  5911 0001:0001841B  5912 0001:00018421
  5914 0001:00018437  5915 0001:00018446  5916 0001:00018455  5912 0001:00018458
  5917 0001:0001845D  5908 0001:00018468  5919 0001:00018473  5920 0001:0001847C
  5922 0001:0001848F  5923 0001:0001849D  5926 0001:000184A4  5927 0001:000184AD
  5928 0001:000184CC  5931 0001:000184D0  5932 0001:000184D9  5933 0001:000184E4
  5934 0001:000184ED  5937 0001:000184F4  5938 0001:00018500  5939 0001:00018508
  5940 0001:00018510  5944 0001:00018514  5945 0001:00018515  5946 0001:00018516
  5947 0001:00018517  5948 0001:00018519  5949 0001:0001851B  5950 0001:0001851D
  5951 0001:0001851F  5952 0001:00018522  5953 0001:00018525  5954 0001:00018527
  5955 0001:00018529  5956 0001:0001852E  5957 0001:00018531  5958 0001:00018533
  5959 0001:00018535  5960 0001:00018537  5961 0001:00018538  5962 0001:0001853A
  5963 0001:0001853D  5964 0001:00018540  5965 0001:00018543  5966 0001:00018545
  5967 0001:00018547  5968 0001:0001854A  5969 0001:0001854B  5970 0001:0001854D
  5971 0001:0001854F  5972 0001:00018552  5973 0001:00018554  5974 0001:00018555
  5975 0001:00018557  5976 0001:00018559  5977 0001:0001855A  5978 0001:0001855B
  5979 0001:0001855C  5982 0001:00018560  5983 0001:00018568  5984 0001:00018585
  5985 0001:000185A5  5986 0001:000185AD  5989 0001:000185B4  5990 0001:000185BD
  5991 0001:000185CE  5996 0001:000185D4  5997 0001:000185F0  5998 0001:000185FB
  5999 0001:00018606  6000 0001:0001860B  6001 0001:00018633  6006 0001:00018638
  6007 0001:00018644  6008 0001:0001864C  6009 0001:0001865A  6012 0001:00018670
  6013 0001:00018686  6014 0001:00018691  6015 0001:0001869B  6016 0001:000186B2
  6010 0001:000186BA  6018 0001:000186C6  6020 0001:000186DB  6022 0001:000186EB
  6035 0001:00018714  6036 0001:0001871D  6037 0001:00018738  6036 0001:00018755
  6038 0001:0001875A  6043 0001:00018760  6044 0001:0001876A  6045 0001:00018782
  6047 0001:00018793  6048 0001:000187B9  6049 0001:000187DB  6044 0001:000187DE
  6050 0001:000187E3  6055 0001:000187E8  6056 0001:000187F5  6057 0001:00018810
  6058 0001:00018816  6060 0001:0001883C  6056 0001:00018865  6061 0001:0001886A
  6064 0001:00018870  6065 0001:00018874  6066 0001:00018892  6069 0001:00018898
  6070 0001:000188A1  6071 0001:000188A5  6072 0001:000188B9  6073 0001:000188D1
  6074 0001:000188D8  6075 0001:000188E5  6076 0001:000188FE  6081 0001:00018904
  6082 0001:0001890B  6083 0001:00018919  6084 0001:0001892D  6085 0001:00018935
  6086 0001:00018942  6087 0001:0001895E  6089 0001:00018967  6090 0001:00018973
  6092 0001:0001897C  6093 0001:00018987  6095 0001:00018993  6096 0001:000189A1
  6098 0001:000189C7  6099 0001:000189CF  6102 0001:000189D9  6104 0001:000189F3
  6106 0001:00018A11  6109 0001:00018A18  6110 0001:00018A1E  6111 0001:00018A2C
  6112 0001:00018A44  6113 0001:00018A5B  6114 0001:00018A7A  6116 0001:00018A95
  6118 0001:00018AB3  6121 0001:00018AB8  6122 0001:00018ABE  6123 0001:00018ACC
  6124 0001:00018AF6  6125 0001:00018B0E  6127 0001:00018B3B  6129 0001:00018B59
  6133 0001:00018B60  6134 0001:00018B88  6135 0001:00018B96  6136 0001:00018BA1
  6137 0001:00018BAC  6138 0001:00018BB5  6139 0001:00018BBE  6140 0001:00018BCC
  6141 0001:00018BD2  6142 0001:00018BD8  6143 0001:00018BDE  6144 0001:00018BE7
  6145 0001:00018BEE  6146 0001:00018BF8  6147 0001:00018C06  6148 0001:00018C10
  6149 0001:00018C18  6150 0001:00018C27  6151 0001:00018C34  6152 0001:00018C4C
  6153 0001:00018C55  6154 0001:00018C5E  6155 0001:00018C66  6156 0001:00018C75
  6157 0001:00018C80  6158 0001:00018C88  6159 0001:00018C97  6160 0001:00018CB2
  6162 0001:00018CC1  6164 0001:00018CD3  6165 0001:00018CDD  6170 0001:00018CED
  6171 0001:00018CF7  6174 0001:00018D14  6175 0001:00018D27  6178 0001:00018D3E
  6179 0001:00018D47  6181 0001:00018D8B  6184 0001:00018D9C  6185 0001:00018DA8
  6187 0001:00018DB1  6188 0001:00018DC3  6189 0001:00018DD1  6190 0001:00018DDC
  6192 0001:00018DF1  6195 0001:00018E01  6196 0001:00018E0C  6201 0001:00018E10
  6202 0001:00018E1F  6203 0001:00018E36  6204 0001:00018E3E  6205 0001:00018E47
  6206 0001:00018E50  6207 0001:00018E62  6208 0001:00018E70  6209 0001:00018E82
  6210 0001:00018E99  6211 0001:00018EAF  6213 0001:00018EC4  6214 0001:00018ECD
  6216 0001:00018EDE  6219 0001:00018EE4  6220 0001:00018EED  6222 0001:00018F0B
  6223 0001:00018F11  6225 0001:00018F29  6228 0001:00018F30  6229 0001:00018F39
  6231 0001:00018F57  6232 0001:00018F5D  6234 0001:00018F75  6237 0001:00018F7C
  6238 0001:00018F85  6240 0001:00018FA3  6241 0001:00018FA9  6243 0001:00018FC7
  6246 0001:00018FD0  6247 0001:00018FD9  6249 0001:00018FF7  6250 0001:00018FFD
  6252 0001:00019015  6257 0001:0001901C  6258 0001:00019028  6261 0001:0001906F
  6262 0001:0001907F  6263 0001:0001908E  6266 0001:000190A7  6268 0001:000190B6
  6270 0001:000190C5  6272 0001:000190D4  6274 0001:000190E3  6276 0001:000190E8
  6282 0001:00019128  6283 0001:00019131  6286 0001:00019147  6287 0001:00019157
  6291 0001:00019160  6292 0001:00019170  6295 0001:00019179  6297 0001:0001918B
  6299 0001:00019193  6302 0001:00019198  6303 0001:000191A1  6305 0001:000191AD
  6306 0001:000191B5  6309 0001:000191C7  6310 0001:000191DC  6313 0001:000191E0
  6314 0001:000191E7  6315 0001:000191F1  6318 0001:000191F4  6319 0001:000191FB
  6320 0001:00019205  6325 0001:00019208  6326 0001:00019217  6327 0001:00019222
  6329 0001:00019230  6330 0001:0001923B  6331 0001:00019245  6333 0001:0001925A
  6346 0001:00019264  6347 0001:00019283  6348 0001:0001928B  6349 0001:000192A0
  6350 0001:000192B1  6351 0001:000192D8  6352 0001:0001935F  6355 0001:00019364
  6356 0001:00019367  6357 0001:00019372  6358 0001:0001937C  6360 0001:00019380
  6361 0001:000193A2  6362 0001:000193B0  6363 0001:000193BB  6364 0001:000193C9
  6365 0001:000193D0  6366 0001:000193DB  6367 0001:000193E1  6370 0001:000193E8
  6371 0001:000193F0  6372 0001:00019408  6373 0001:00019420  6374 0001:00019428
  6375 0001:00019440  6376 0001:00019446  6377 0001:00019454  6378 0001:00019459
  6379 0001:00019465  6380 0001:00019473  6381 0001:0001948C  6382 0001:00019492
  6368 0001:00019495  6384 0001:0001949A  6385 0001:000194B2  6388 0001:000194C8
  6389 0001:000194CF  6390 0001:000194DA  6391 0001:000194E1  6392 0001:000194EA
  6395 0001:00019513  6398 0001:00019540  6399 0001:00019543  6401 0001:00019585
  6415 0001:0001958C  6416 0001:0001959B  6417 0001:000195AA  6418 0001:000195BD
  6420 0001:000195CD  6421 0001:000195D2  6425 0001:000195D8  6426 0001:000195E7
  6427 0001:0001961A  6431 0001:00019620  6432 0001:00019637  6433 0001:00019676
  6438 0001:0001967C  6439 0001:00019691  6441 0001:000196A0  6442 0001:000196AB
  6443 0001:000196B3  6446 0001:000196C9  6447 0001:00019735  6449 0001:0001973C
  6450 0001:0001976E  6451 0001:00019777  6454 0001:000197AE  6455 0001:000197B8
  6456 0001:000197C2  6458 0001:0001981C  6459 0001:00019828  6461 0001:00019848
  6463 0001:00019862  6465 0001:0001987E  6467 0001:000198A6  6469 0001:000198C5
  6471 0001:000198E3  6473 0001:00019901  6475 0001:0001991E  6478 0001:00019930
  6479 0001:00019938  6483 0001:0001994A  6484 0001:00019952  6487 0001:0001996C
  6490 0001:0001998C  6492 0001:00019998  6493 0001:000199A0  6497 0001:000199B2
  6498 0001:000199D1  6499 0001:000199DA  6502 0001:000199F0  6504 0001:000199F9
  6506 0001:00019A10  6508 0001:00019A4E  6515 0001:00019A54  6516 0001:00019A60
  6517 0001:00019A65  6520 0001:00019A72  6521 0001:00019A75  6518 0001:00019A9F
  6523 0001:00019AAD  6529 0001:00019AC4  6530 0001:00019AF5  6531 0001:00019AFD
  6532 0001:00019B02  6533 0001:00019B0C  6534 0001:00019B1A  6535 0001:00019B28
  6536 0001:00019B36  6538 0001:00019B3C  6539 0001:00019B59  6542 0001:00019B71
  6543 0001:00019B77  6544 0001:00019B82  6545 0001:00019B8B  6547 0001:00019B98
  6548 0001:00019BA0  6549 0001:00019BA8  6552 0001:00019BCB  6553 0001:00019BD4
  6554 0001:00019BF2  6555 0001:00019C00  6556 0001:00019C09  6557 0001:00019C17
  6558 0001:00019C1D  6559 0001:00019C28  6560 0001:00019C3A  6561 0001:00019C48
  6562 0001:00019C5D  6563 0001:00019C6E  6564 0001:00019C7A  6565 0001:00019C85
  6566 0001:00019C90  6567 0001:00019C9E  6568 0001:00019CA9  6569 0001:00019CAF
  6571 0001:00019CF0  6572 0001:00019D01  6575 0001:00019D1E  6578 0001:00019D31
  6582 0001:00019D3F  6583 0001:00019D44  6585 0001:00019D5B  6577 0001:00019D79
  6588 0001:00019D8A  6589 0001:00019D94  6590 0001:00019DA2  6593 0001:00019DB9
  6595 0001:00019DF0  6629 0001:00019DF8  6630 0001:00019E1A  6631 0001:00019E28
  6632 0001:00019E39  6633 0001:00019E49  6636 0001:00019E4E  6637 0001:00019E59
  6638 0001:00019E5F  6634 0001:00019E73  6641 0001:00019E84  6642 0001:00019E8C
  6644 0001:00019EB6  6649 0001:00019EC0  6650 0001:00019EC9  6651 0001:00019ED9
  6652 0001:00019EEE  6657 0001:00019EF4  6658 0001:00019F00  6659 0001:00019F10
  6660 0001:00019F1F  6661 0001:00019F36  6666 0001:00019F3C  6667 0001:00019F5B
  6668 0001:00019F6B  6671 0001:00019F83  6672 0001:00019F88  6674 0001:00019F9A
  6676 0001:00019FAC  6678 0001:00019FBE  6680 0001:00019FC3  6681 0001:00019FCE
  6683 0001:00019FFB  6689 0001:0001A000  6690 0001:0001A022  6691 0001:0001A032
  6694 0001:0001A04D  6695 0001:0001A052  6698 0001:0001A064  6699 0001:0001A074
  6700 0001:0001A07F  6704 0001:0001A093  6705 0001:0001A0A3  6706 0001:0001A0AE
  6707 0001:0001A0BC  6710 0001:0001A0C9  6713 0001:0001A0F3  6716 0001:0001A0F8
  6717 0001:0001A101  6718 0001:0001A114  6728 0001:0001A118  6729 0001:0001A134
  6730 0001:0001A162  6735 0001:0001A168  6736 0001:0001A16D  6737 0001:0001A187
  6738 0001:0001A192  6743 0001:0001A194  6744 0001:0001A19D  6745 0001:0001A1B0
  6746 0001:0001A1C2  6749 0001:0001A1C8  6752 0001:0001A1CD  6753 0001:0001A1E9
  6754 0001:0001A1FB  6755 0001:0001A215  6750 0001:0001A220  6757 0001:0001A22F
  6758 0001:0001A23A  6760 0001:0001A23C  6761 0001:0001A258  6763 0001:0001A2CC
  6764 0001:0001A2D8  6765 0001:0001A2EA  6766 0001:0001A2FC  6767 0001:0001A30E
  6768 0001:0001A320  6770 0001:0001A330  6771 0001:0001A33E  6772 0001:0001A348
  6773 0001:0001A356  6774 0001:0001A35F  6775 0001:0001A36E  6776 0001:0001A37D
  6777 0001:0001A38C  6778 0001:0001A39A  6779 0001:0001A3A9  6781 0001:0001A3D2
  6864 0001:0001A3D8  6865 0001:0001A3F4  6866 0001:0001A3FF  6867 0001:0001A424
  6873 0001:0001A428  6874 0001:0001A44B  6876 0001:0001A451  6877 0001:0001A45F
  6878 0001:0001A46A  6880 0001:0001A477  6881 0001:0001A48B  6882 0001:0001A495
  6883 0001:0001A4AB  6884 0001:0001A4D5  6890 0001:0001A4DC  6891 0001:0001A4FF
  6892 0001:0001A50A  6893 0001:0001A50F  6894 0001:0001A518  6895 0001:0001A529
  6897 0001:0001A52F  6898 0001:0001A539  6899 0001:0001A550  6900 0001:0001A556
  6902 0001:0001A59D  6905 0001:0001A5A4  6906 0001:0001A5B1  6907 0001:0001A5CA
  6910 0001:0001A5D0  6911 0001:0001A5E0  6912 0001:0001A5FD  6913 0001:0001A60A
  6916 0001:0001A610  6917 0001:0001A61D  6918 0001:0001A631  6919 0001:0001A64E
  6920 0001:0001A662  6921 0001:0001A66C  6922 0001:0001A67F  6923 0001:0001A697
  6924 0001:0001A6A2  6929 0001:0001A6A8  6930 0001:0001A6B7  6931 0001:0001A6BD
  6933 0001:0001A6C6  6934 0001:0001A6D9  6938 0001:0001A6E2  6939 0001:0001A6F3
  6930 0001:0001A6F8  6941 0001:0001A6FE  6953 0001:0001A704  6954 0001:0001A724
  6956 0001:0001A731  6957 0001:0001A736  6958 0001:0001A745  6959 0001:0001A753
  6961 0001:0001A762  6962 0001:0001A775  6963 0001:0001A783  6965 0001:0001A797
  6966 0001:0001A7AE  6967 0001:0001A7BC  6968 0001:0001A7C7  6969 0001:0001A7D7
  6970 0001:0001A7E5  6972 0001:0001A7F6  6974 0001:0001A820  6975 0001:0001A837
  6976 0001:0001A844  6978 0001:0001A85F  6981 0001:0001A87C  6982 0001:0001A884
  6984 0001:0001A8B9  6986 0001:0001A8D0  6987 0001:0001A8F1  6988 0001:0001A8F9
  6989 0001:0001A968  6990 0001:0001A978  6991 0001:0001A985  6992 0001:0001A9A1
  6993 0001:0001A9BD  6994 0001:0001A9D6  6995 0001:0001A9EB  6996 0001:0001AA00
  6997 0001:0001AA15  6998 0001:0001AA2A  7000 0001:0001AA42  7001 0001:0001AA5A
  7002 0001:0001AA71  7003 0001:0001AA88  7005 0001:0001AA9C  7007 0001:0001AAE0
  7075 0001:0001AAE4  7076 0001:0001AAE5  7077 0001:0001AAE6  7078 0001:0001AAE7
  7079 0001:0001AAE9  7080 0001:0001AAEB  7081 0001:0001AAED  7082 0001:0001AAEF
  7083 0001:0001AAF2  7084 0001:0001AAF5  7085 0001:0001AAF7  7086 0001:0001AAF9
  7087 0001:0001AAFE  7088 0001:0001AB01  7089 0001:0001AB03  7090 0001:0001AB05
  7091 0001:0001AB07  7092 0001:0001AB09  7093 0001:0001AB0A  7094 0001:0001AB0D
  7095 0001:0001AB10  7096 0001:0001AB13  7097 0001:0001AB15  7098 0001:0001AB17
  7099 0001:0001AB1A  7100 0001:0001AB1B  7101 0001:0001AB1D  7102 0001:0001AB1F
  7103 0001:0001AB22  7104 0001:0001AB24  7105 0001:0001AB25  7106 0001:0001AB27
  7107 0001:0001AB29  7108 0001:0001AB2A  7109 0001:0001AB2B  7110 0001:0001AB2C
  7130 0001:0001AB30  7131 0001:0001AB37  7132 0001:0001AB4E  7133 0001:0001AB56
  7136 0001:0001AB5C  7137 0001:0001AB68  7138 0001:0001AB6E  7140 0001:0001AB7A
  7141 0001:0001AB84  7341 0001:0001AB88  7342 0001:0001AB94  7344 0001:0001ABA0
  7345 0001:0001ABAA  7347 0001:0001ABBC  7349 0001:0001ABCE  7350 0001:0001ABD8
  7354 0001:0001ABEA  7355 0001:0001ABF4  7357 0001:0001AC04  7371 0001:0001AC08
  7372 0001:0001AC0F  7373 0001:0001AC19  7376 0001:0001AC1C  7377 0001:0001AC23
  7378 0001:0001AC2D  8002 0001:0001AC30  8003 0001:0001AC3F  8005 0001:0001AC4C
  8006 0001:0001AC57  8007 0001:0001AC61  8008 0001:0001AC71  8012 0001:0001AC81
  8013 0001:0001AC8C  8015 0001:0001AC95  8016 0001:0001AC9F  8019 0001:0001ACB1
  8020 0001:0001ACBB  8022 0001:0001ACCB  8024 0001:0001ACD9  8027 0001:0001ACE0
  8028 0001:0001ACFF  8029 0001:0001AD35  8049 0001:0001AD3C  8050 0001:0001AD48
  8051 0001:0001AD58  9229 0001:0001AD5C  9230 0001:0001AD5F  9232 0001:0001AD69
  9233 0001:0001AD7E  9234 0001:0001AD87  9239 0001:0001AD8C  9242 0001:0001AD94
  9243 0001:0001AD97  9245 0001:0001ADA1  9250 0001:0001ADAC  9258 0001:0001ADB0
  9260 0001:0001ADB3  9265 0001:0001ADBE  9273 0001:0001ADC0  9275 0001:0001ADC7
  9276 0001:0001ADDA  9285 0001:0001ADDF  9317 0001:0001ADE4  9318 0001:0001ADF0
  9319 0001:0001ADFF  9320 0001:0001AE28  9321 0001:0001AE2E  9323 0001:0001AE38
  9324 0001:0001AE3D  9325 0001:0001AE42  9326 0001:0001AE4C  9327 0001:0001AE5A
  9328 0001:0001AE6B  9329 0001:0001AE79  9330 0001:0001AE91  9334 0001:0001AEA0
  9335 0001:0001AEAD  9336 0001:0001AEB7  9337 0001:0001AEC1  9338 0001:0001AECF
  9339 0001:0001AEDD  9341 0001:0001AEF7  9344 0001:0001AF16  9347 0001:0001AF28
  9332 0001:0001AF34  9355 0001:0001AF4E  9358 0001:0001AF6B  9360 0001:0001AF80
  9743 0001:0001AF88  9744 0001:0001AFA3  9745 0001:0001AFAF  9746 0001:0001AFDB
  9749 0001:0001AFE4  9750 0001:0001AFF6  9751 0001:0001AFFE  9754 0001:0001B009
  9753 0001:0001B028  9755 0001:0001B03D  9757 0001:0001B048  9758 0001:0001B050
  9759 0001:0001B067  9760 0001:0001B083  9763 0001:0001B088  9764 0001:0001B08F
  9765 0001:0001B098  9766 0001:0001B0A0  9769 0001:0001B0A4  9770 0001:0001B0B0
  9774 0001:0001B0C7  9775 0001:0001B0E2  9777 0001:0001B0F4  9778 0001:0001B102
  9781 0001:0001B10D  9782 0001:0001B116  9785 0001:0001B11C  9786 0001:0001B128
  9787 0001:0001B137  9790 0001:0001B13C  9791 0001:0001B148  9792 0001:0001B157
  9795 0001:0001B15C  9796 0001:0001B168  9797 0001:0001B177  9800 0001:0001B17C
  9801 0001:0001B188  9802 0001:0001B197  9805 0001:0001B19C  9806 0001:0001B1A8
  9807 0001:0001B1C3  9808 0001:0001B1D1  9809 0001:0001B1DA  9812 0001:0001B1E0
  9813 0001:0001B1EC  9814 0001:0001B1F4  9815 0001:0001B202  9817 0001:0001B20E
  9818 0001:0001B219  9820 0001:0001B221  9823 0001:0001B228  9824 0001:0001B236
  9825 0001:0001B245  9826 0001:0001B259  9827 0001:0001B264  9828 0001:0001B26E
  9829 0001:0001B277  9830 0001:0001B283  9831 0001:0001B290  9834 0001:0001B298
  9835 0001:0001B2A5  9836 0001:0001B2B8  9837 0001:0001B2C5  9838 0001:0001B2CF
  9839 0001:0001B2DA  9844 0001:0001B2E0  9847 0001:0001B2EB  9848 0001:0001B2F9
  9850 0001:0001B31B  9852 0001:0001B328  9853 0001:0001B333  9845 0001:0001B33D
  9855 0001:0001B346  9860 0001:0001B350  9861 0001:0001B359  9863 0001:0001B362
  9864 0001:0001B36A  9865 0001:0001B373  9866 0001:0001B38C  9865 0001:0001B3A2
  9868 0001:0001B3A7  9871 0001:0001B3AC  9872 0001:0001B3B8  9874 0001:0001B3C1
  9875 0001:0001B3CF  9877 0001:0001B3DB  9878 0001:0001B3E6  9881 0001:0001B3EE
  9884 0001:0001B3F4  9885 0001:0001B400  9886 0001:0001B40B  9887 0001:0001B416
  9893 0001:0001B41C  9894 0001:0001B42C  9895 0001:0001B438  9896 0001:0001B443
  9898 0001:0001B44C  9899 0001:0001B459  9901 0001:0001B45F  9902 0001:0001B478
  9903 0001:0001B47B  9904 0001:0001B489  9899 0001:0001B496  9907 0001:0001B49C
  9913 0001:0001B4A4  9914 0001:0001B4B1  9915 0001:0001B4B6  9916 0001:0001B4BF
  9917 0001:0001B4CE  9919 0001:0001B4FB  9921 0001:0001B528  9924 0001:0001B54C
  9925 0001:0001B555  9926 0001:0001B55C  9929 0001:0001B560  9930 0001:0001B56C
  9933 0001:0001B574  9934 0001:0001B57D  9935 0001:0001B585  9938 0001:0001B58C
  9939 0001:0001B595  9940 0001:0001B59E  9943 0001:0001B5A4  9944 0001:0001B5B0
  9945 0001:0001B5BE  9948 0001:0001B5C4  9949 0001:0001B5CD  9950 0001:0001B5D9
  9953 0001:0001B5E0  9954 0001:0001B5EF  9957 0001:0001B5F4  9958 0001:0001B5FD
  9959 0001:0001B605  9962 0001:0001B60C  9963 0001:0001B618  9966 0001:0001B61C
  9967 0001:0001B623  9968 0001:0001B62B  9971 0001:0001B630  9972 0001:0001B637
  9973 0001:0001B63F  9976 0001:0001B644  9977 0001:0001B64B  9978 0001:0001B653
  9981 0001:0001B658  9983 0001:0001B65F  9986 0001:0001B664  9987 0001:0001B670
  9988 0001:0001B67B  9991 0001:0001B680  9992 0001:0001B68C  9993 0001:0001B697
  9997 0001:0001B69C  9998 0001:0001B6AC 10000 0001:0001B6DB 10001 0001:0001B702
 10002 0001:0001B714 10003 0001:0001B729 10006 0001:0001B730 10007 0001:0001B73D
 10008 0001:0001B74C 10011 0001:0001B754 10012 0001:0001B760 10017 0001:0001B764
 10018 0001:0001B770 10019 0001:0001B77F 10021 0001:0001B798 10022 0001:0001B7A9
 10023 0001:0001B7BB 10019 0001:0001B7BE 10024 0001:0001B7C3 10025 0001:0001B7CB
 10028 0001:0001B7D0 10029 0001:0001B7DD 10031 0001:0001B7F1 10032 0001:0001B803
 10033 0001:0001B82A 10034 0001:0001B833 10035 0001:0001B84D 10036 0001:0001B861
 10037 0001:0001B86B 10038 0001:0001B876 10040 0001:0001B880 10043 0001:0001B888
 10044 0001:0001B894 10045 0001:0001B8A2 10055 0001:0001B8A8 10056 0001:0001B8B4
 10057 0001:0001B8D0 10058 0001:0001B8E4 10061 0001:0001B8E8 10062 0001:0001B8F1
 10063 0001:0001B8FA 10064 0001:0001B908 10065 0001:0001B910 10070 0001:0001B914
 10071 0001:0001B920 10073 0001:0001B929 10074 0001:0001B93D 10076 0001:0001B943
 10077 0001:0001B952 10078 0001:0001B95D 10079 0001:0001B96C 10081 0001:0001B974
 10082 0001:0001B985 10086 0001:0001B999 10102 0001:0001B9A0 10103 0001:0001B9AF
 10104 0001:0001B9B5 10105 0001:0001B9BF 10106 0001:0001B9C7 10107 0001:0001B9CD
 10108 0001:0001BA02 10127 0001:0001BA08 10128 0001:0001BA17 10130 0001:0001BA20
 10131 0001:0001BA4A 10132 0001:0001BA50 10134 0001:0001BA67 10137 0001:0001BA6C
 10138 0001:0001BA78 10139 0001:0001BA86 10140 0001:0001BA8C 10141 0001:0001BA9A
 10144 0001:0001BAA0 10145 0001:0001BAAC 10146 0001:0001BABA 10147 0001:0001BAC0
 10148 0001:0001BACE 10172 0001:0001BAD4 10174 0001:0001BAE4 10175 0001:0001BAED
 10188 0001:0001BB03 10189 0001:0001BB17 10198 0001:0001BB1C 10199 0001:0001BB2B
 10204 0001:0001BB34 10206 0001:0001BB38 10209 0001:0001BB41 10210 0001:0001BB5A
 10214 0001:0001BB63 10216 0001:0001BB7C 10219 0001:0001BB84 10221 0001:0001BB88
 10222 0001:0001BB91 10224 0001:0001BB9A 10228 0001:0001BBAC 10231 0001:0001BBB4
 10233 0001:0001BBB8 10234 0001:0001BBC1 10236 0001:0001BBCA 10240 0001:0001BBDC
 10296 0001:0001BBE4 10297 0001:0001BBED 10298 0001:0001BBF6 10371 0001:0001BBFC
 10372 0001:0001BC17 10373 0001:0001BC21 10374 0001:0001BC46 10377 0001:0001BC4C
 10378 0001:0001BC58 10381 0001:0001BC5C 10382 0001:0001BC6D 10383 0001:0001BC84
 10384 0001:0001BCA0 10387 0001:0001BCA4 10388 0001:0001BCAC 10389 0001:0001BCC5
 10392 0001:0001BCCC 10393 0001:0001BCD9 10394 0001:0001BCE7 10395 0001:0001BCFC
 10398 0001:0001BD04 10399 0001:0001BD10 10401 0001:0001BD1B 10402 0001:0001BD32
 10403 0001:0001BD3B 10405 0001:0001BD4C 10408 0001:0001BD50 10409 0001:0001BD59
 10410 0001:0001BD60 10413 0001:0001BD64 10414 0001:0001BD6B 10417 0001:0001BD70
 10418 0001:0001BD79 10419 0001:0001BD8A 10424 0001:0001BD90 10425 0001:0001BDAB
 10426 0001:0001BDB8 10427 0001:0001BDE5 10430 0001:0001BDEC 10431 0001:0001BDFD
 10432 0001:0001BE0B 10433 0001:0001BE14 10435 0001:0001BE24 10434 0001:0001BE39
 10436 0001:0001BE45 10437 0001:0001BE5E 10440 0001:0001BE64 10441 0001:0001BE70
 10442 0001:0001BE77 10445 0001:0001BE7C 10446 0001:0001BE88 10450 0001:0001BE8C
 10451 0001:0001BE9B 10452 0001:0001BEA9 10453 0001:0001BEBA 10454 0001:0001BEC2
 10457 0001:0001BEC8 10458 0001:0001BED4 10461 0001:0001BED8 10462 0001:0001BEE2
 10464 0001:0001BEEC 10465 0001:0001BEF8 10467 0001:0001BEFE 10468 0001:0001BF05
 10471 0001:0001BF0C 10472 0001:0001BF16 10474 0001:0001BF20 10475 0001:0001BF2C
 10477 0001:0001BF32 10478 0001:0001BF39 10483 0001:0001BF40 10484 0001:0001BF49
 10487 0001:0001BF5F 10488 0001:0001BF78 10487 0001:0001BF94 10489 0001:0001BF99
 10490 0001:0001BFA8 10492 0001:0001BFB0 10495 0001:0001BFB8 10496 0001:0001BFC0
 10497 0001:0001BFD6 10500 0001:0001BFDC 10501 0001:0001BFE8 10502 0001:0001BFF1
 10503 0001:0001BFFF 10508 0001:0001C004 10509 0001:0001C010 10510 0001:0001C029
 10512 0001:0001C03C 10513 0001:0001C044 10514 0001:0001C052 10515 0001:0001C054
 10509 0001:0001C057 10516 0001:0001C05C 10519 0001:0001C060 10520 0001:0001C06C
 10522 0001:0001C077 10523 0001:0001C080 10524 0001:0001C08E 10525 0001:0001C097
 10526 0001:0001C0A0 10528 0001:0001C0AE 10534 0001:0001C0B4 10535 0001:0001C0CF
 10536 0001:0001C0D9 10537 0001:0001C0E2 10538 0001:0001C106 10541 0001:0001C10C
 10542 0001:0001C11D 10544 0001:0001C126 10545 0001:0001C131 10547 0001:0001C139
 10548 0001:0001C155 10553 0001:0001C15C 10554 0001:0001C165 10555 0001:0001C173
 10557 0001:0001C179 10558 0001:0001C180 10560 0001:0001C18A 10561 0001:0001C19E
 10562 0001:0001C1AC 10564 0001:0001C1C0 10566 0001:0001C1CF 10571 0001:0001C1D8
 10572 0001:0001C1E1 10573 0001:0001C1EF 10575 0001:0001C1F5 10576 0001:0001C1FC
 10578 0001:0001C206 10579 0001:0001C21A 10580 0001:0001C228 10582 0001:0001C23C
 10584 0001:0001C24B 10590 0001:0001C254 10591 0001:0001C25D 10592 0001:0001C26B
 10594 0001:0001C277 10595 0001:0001C27E 10597 0001:0001C288 10598 0001:0001C2A1
 10599 0001:0001C2B6 10601 0001:0001C2CA 10603 0001:0001C2D9 10606 0001:0001C2E4
 10607 0001:0001C2EB 10608 0001:0001C2F9 10609 0001:0001C30A 10610 0001:0001C31E
 10612 0001:0001C327 10614 0001:0001C33B 10616 0001:0001C34A 10626 0001:0001C354
 10627 0001:0001C373 10628 0001:0001C378 10629 0001:0001C386 10630 0001:0001C394
 10631 0001:0001C3A2 10632 0001:0001C3B5 10634 0001:0001C3BE 10635 0001:0001C3C4
 10636 0001:0001C3CF 10639 0001:0001C3E2 10640 0001:0001C3F5 10642 0001:0001C3FE
 10643 0001:0001C404 10645 0001:0001C40E 10646 0001:0001C424 10647 0001:0001C438
 10648 0001:0001C450 10649 0001:0001C45A 10650 0001:0001C468 10651 0001:0001C480
 10652 0001:0001C48C 10653 0001:0001C4A1 10654 0001:0001C4B9 10655 0001:0001C4BF
 10643 0001:0001C4C9 10637 0001:0001C4D3 10659 0001:0001C4F8 10660 0001:0001C500
 10661 0001:0001C515 10664 0001:0001C541 10666 0001:0001C56D 10669 0001:0001C578
 10670 0001:0001C57C 10671 0001:0001C584 10674 0001:0001C58C 10675 0001:0001C590
 10676 0001:0001C59A 10680 0001:0001C5A0 10681 0001:0001C5A4 10682 0001:0001C5AE
 10686 0001:0001C5B4 10687 0001:0001C5B8 10688 0001:0001C5C2 10691 0001:0001C5C8
 10692 0001:0001C5CF 10693 0001:0001C5D4 10694 0001:0001C5E2 10697 0001:0001C5E9
 10698 0001:0001C5F3 10699 0001:0001C606 10700 0001:0001C60E 10701 0001:0001C616
 10702 0001:0001C61E 10703 0001:0001C626 10704 0001:0001C62E 10705 0001:0001C636
 10708 0001:0001C64F 10710 0001:0001C65E 10713 0001:0001C668 10714 0001:0001C677
 10715 0001:0001C681 10720 0001:0001C688 10721 0001:0001C68E 10722 0001:0001C69B
 10723 0001:0001C6A9 10724 0001:0001C6BF 10723 0001:0001C6D2 10726 0001:0001C6E4
 10728 0001:0001C6F6 10729 0001:0001C700 10732 0001:0001C704 10733 0001:0001C70B
 10734 0001:0001C713 10958 0001:0001C718 10959 0001:0001C71B 10960 0001:0001C71D
 10961 0001:0001C71E 10962 0001:0001C721 10963 0001:0001C724 10964 0001:0001C727
 10965 0001:0001C729 10966 0001:0001C72C 10967 0001:0001C72E 10968 0001:0001C731
 10969 0001:0001C732 10974 0001:0001C738 10975 0001:0001C744 10976 0001:0001C755
 10987 0001:0001C75C 10988 0001:0001C762 10990 0001:0001C76F 10991 0001:0001C785
 10992 0001:0001C78F 10993 0001:0001C7A4 10994 0001:0001C7BA 10996 0001:0001C7C3
 10997 0001:0001C7C9 10998 0001:0001C7DD 10999 0001:0001C7E8 11000 0001:0001C7F0
 11001 0001:0001C7F4 11002 0001:0001C801 11004 0001:0001C809 11005 0001:0001C811
 11006 0001:0001C819 11007 0001:0001C824 11008 0001:0001C836 11013 0001:0001C83C
 11014 0001:0001C843 11016 0001:0001C849 11017 0001:0001C855 11019 0001:0001C85D
 11038 0001:0001C870 11039 0001:0001C876 11043 0001:0001C880 11045 0001:0001C89E
 11047 0001:0001C8AE 11048 0001:0001C8B4 11049 0001:0001C8C5 11051 0001:0001C8CF
 11053 0001:0001C900 11054 0001:0001C907 11055 0001:0001C921 11060 0001:0001C92C
 11061 0001:0001C935 11062 0001:0001C943 11063 0001:0001C94C 11064 0001:0001C95E
 11090 0001:0001C964 11091 0001:0001C987 11092 0001:0001C991 11093 0001:0001C996
 11094 0001:0001C99F 11095 0001:0001C9A9 11096 0001:0001C9B9 11097 0001:0001C9C3
 11098 0001:0001C9CD 11099 0001:0001C9D7 11100 0001:0001C9E1 11101 0001:0001C9E6
 11103 0001:0001CA0F 11076 0001:0001CA14 11077 0001:0001CA2E 11078 0001:0001CA33
 11080 0001:0001CA3D 11085 0001:0001CA5C 11086 0001:0001CA6D 11087 0001:0001CA7E
 11089 0001:0001CAA4

Line numbers for Consts(Consts.pas) segment .text

   309 0001:0001CD38   309 0001:0001CD3F

Line numbers for Graphics(Graphics.pas) segment .text

   562 0001:0001D5B8  1063 0001:0001D9F0  1064 0001:0001D9F7  1065 0001:0001DA08
  1066 0001:0001DA11  1096 0001:0001DA74  1097 0001:0001DA76  1098 0001:0001DA78
  1099 0001:0001DA7A  1100 0001:0001DA7E  1101 0001:0001DA80  1102 0001:0001DA81
  1103 0001:0001DA82  1104 0001:0001DA84  1107 0001:0001DA88  1108 0001:0001DAA4
  1109 0001:0001DAAF  1110 0001:0001DAD6  1113 0001:0001DADC  1114 0001:0001DAED
  1115 0001:0001DB07  1118 0001:0001DB0C  1119 0001:0001DB13  1120 0001:0001DB1F
  1123 0001:0001DB24  1124 0001:0001DB2B  1125 0001:0001DB37  1130 0001:0001DB3C
  1131 0001:0001DB48  1132 0001:0001DB5B  1133 0001:0001DB63  1134 0001:0001DB71
  1137 0001:0001DB7C  1135 0001:0001DB84  1138 0001:0001DBB0  1140 0001:0001DBB6
  1141 0001:0001DBC8  1143 0001:0001DBCE  1144 0001:0001DBD9  1145 0001:0001DBE1
  1146 0001:0001DBEC  1147 0001:0001DBF7  1149 0001:0001DC0C  1151 0001:0001DC15
  1153 0001:0001DC28  1155 0001:0001DC3B  1161 0001:0001DC40  1162 0001:0001DC4C
  1163 0001:0001DC56  1165 0001:0001DC5C  1166 0001:0001DC64  1167 0001:0001DC72
  1168 0001:0001DC78  1169 0001:0001DC83  1171 0001:0001DC89  1172 0001:0001DC94
  1175 0001:0001DCA1  1176 0001:0001DCAC  1177 0001:0001DCBE  1181 0001:0001DCD5
  1183 0001:0001DCE5  1185 0001:0001DCEB  1186 0001:0001DD00  1189 0001:0001DD08
  1195 0001:0001DD0C  1196 0001:0001DD1C  1197 0001:0001DD24  1198 0001:0001DD32
  1199 0001:0001DD3B  1200 0001:0001DD4C  1201 0001:0001DD63  1203 0001:0001DD7B
  1205 0001:0001DD8B  1211 0001:0001DD90  1212 0001:0001DDA0  1213 0001:0001DDA8
  1214 0001:0001DDB6  1215 0001:0001DDBF  1217 0001:0001DDC7  1218 0001:0001DDCD
  1219 0001:0001DDD6  1220 0001:0001DDE2  1223 0001:0001DDFA  1225 0001:0001DE0A
  1235 0001:0001DE10  1236 0001:0001DE19  1237 0001:0001DE21  1238 0001:0001DE2F
  1239 0001:0001DE38  1241 0001:0001DE3E  1243 0001:0001DE44  1245 0001:0001DE56
  1246 0001:0001DE62  1248 0001:0001DE6A  1239 0001:0001DE72  1251 0001:0001DE85
  1253 0001:0001DE95  1257 0001:0001DE9C  1259 0001:0001DEA2  1260 0001:0001DEA7
  1261 0001:0001DEB4  1264 0001:0001DEC4  1266 0001:0001DED2  1267 0001:0001DEDA
  1268 0001:0001DEDD  1262 0001:0001DEE5  1271 0001:0001DEF0  1272 0001:0001DEFC
  1274 0001:0001DF15  1275 0001:0001DF28  1274 0001:0001DF3B  1276 0001:0001DF40
  1278 0001:0001DF52  1341 0001:0001E398  1342 0001:0001E3A1  1343 0001:0001E3A7
  1344 0001:0001E3BA  1345 0001:0001E3C3  1367 0001:0001E3C8  1368 0001:0001E3D4
  1369 0001:0001E3EC  1372 0001:0001E3F0  1373 0001:0001E3FC  1374 0001:0001E414
  1379 0001:0001E418  1380 0001:0001E420  1381 0001:0001E436  1384 0001:0001E43C
  1385 0001:0001E443  1386 0001:0001E458  1389 0001:0001E45C  1390 0001:0001E463
  1391 0001:0001E478  1429 0001:0001E630  1430 0001:0001E63C  1431 0001:0001E654
  1434 0001:0001E658  1435 0001:0001E664  1436 0001:0001E67C  1441 0001:0001E680
  1442 0001:0001E68E  1443 0001:0001E69F  1445 0001:0001E6A9  1448 0001:0001E6C0
  1449 0001:0001E6C9  1450 0001:0001E6D2  1451 0001:0001E6D9  1452 0001:0001E6DF
  1453 0001:0001E6E6  1454 0001:0001E6EC  1455 0001:0001E6F3  1456 0001:0001E6F9
  1457 0001:0001E700  1458 0001:0001E709  1459 0001:0001E729  1460 0001:0001E736
  1461 0001:0001E73F  1463 0001:0001E748  1465 0001:0001E74F  1468 0001:0001E757
  1471 0001:0001E760  1472 0001:0001E778  1473 0001:0001E77F  1474 0001:0001E794
  1475 0001:0001E79E  1476 0001:0001E7C5  1479 0001:0001E7CC  1480 0001:0001E7DD
  1481 0001:0001E7FB  1484 0001:0001E800  1485 0001:0001E807  1486 0001:0001E80F
  1487 0001:0001E823  1490 0001:0001E828  1491 0001:0001E834  1493 0001:0001E84A
  1494 0001:0001E852  1495 0001:0001E860  1496 0001:0001E868  1497 0001:0001E876
  1498 0001:0001E889  1499 0001:0001E897  1500 0001:0001E8A5  1502 0001:0001E8C4
  1505 0001:0001E8E1  1509 0001:0001E8F1  1510 0001:0001E8FC  1513 0001:0001E900
  1514 0001:0001E90E  1515 0001:0001E923  1516 0001:0001E92A  1519 0001:0001E930
  1520 0001:0001E93C  1521 0001:0001E944  1522 0001:0001E952  1524 0001:0001E96F
  1526 0001:0001E97F  1529 0001:0001E984  1530 0001:0001E991  1532 0001:0001E99C
  1533 0001:0001E9A5  1535 0001:0001E9B1  1540 0001:0001E9B8  1541 0001:0001E9DA
  1543 0001:0001E9E3  1545 0001:0001E9F0  1546 0001:0001E9FA  1548 0001:0001EA08
  1550 0001:0001EA15  1551 0001:0001EA1E  1552 0001:0001EA23  1553 0001:0001EA28
  1554 0001:0001EA2D  1555 0001:0001EA36  1557 0001:0001EA3F  1558 0001:0001EA46
  1559 0001:0001EA53  1560 0001:0001EA60  1561 0001:0001EA6D  1562 0001:0001EA76
  1563 0001:0001EA95  1565 0001:0001EAAF  1566 0001:0001EAC8  1568 0001:0001EACC
  1569 0001:0001EAD0  1570 0001:0001EAD4  1571 0001:0001EAE6  1572 0001:0001EAEC
  1574 0001:0001EAF2  1576 0001:0001EAF6  1579 0001:0001EB12  1582 0001:0001EB24
  1584 0001:0001EB52  1587 0001:0001EB68  1588 0001:0001EB74  1589 0001:0001EB8A
  1592 0001:0001EB90  1593 0001:0001EB99  1594 0001:0001EBA8  1599 0001:0001EBAC
  1600 0001:0001EBB8  1601 0001:0001EBC3  1602 0001:0001EBC9  1603 0001:0001EBD4
  1606 0001:0001EBD8  1607 0001:0001EBE4  1608 0001:0001EBF5  1613 0001:0001EBFC
  1614 0001:0001EC0B  1616 0001:0001EC11  1617 0001:0001EC1C  1618 0001:0001EC2B
  1619 0001:0001EC4E  1621 0001:0001EC59  1624 0001:0001EC60  1625 0001:0001EC69
  1626 0001:0001EC88  1629 0001:0001EC8C  1630 0001:0001EC98  1631 0001:0001ECB6
  1634 0001:0001ECBC  1635 0001:0001ECC5  1636 0001:0001ECD4  1641 0001:0001ECD8
  1642 0001:0001ECE4  1643 0001:0001ECEF  1644 0001:0001ECF5  1645 0001:0001ED00
  1648 0001:0001ED04  1649 0001:0001ED0D  1650 0001:0001ED1C  1655 0001:0001ED20
  1656 0001:0001ED2C  1657 0001:0001ED37  1658 0001:0001ED3D  1659 0001:0001ED48
  1662 0001:0001ED4C  1663 0001:0001ED55  1664 0001:0001ED64  1669 0001:0001ED68
  1670 0001:0001ED74  1671 0001:0001ED7F  1672 0001:0001ED85  1673 0001:0001ED90
  1685 0001:0001ED94  1686 0001:0001EDAC  1687 0001:0001EDC1  1688 0001:0001EDE3
  1691 0001:0001EDE8  1692 0001:0001EDF9  1693 0001:0001EE17  1696 0001:0001EE1C
  1697 0001:0001EE28  1699 0001:0001EE3E  1700 0001:0001EE46  1701 0001:0001EE54
  1702 0001:0001EE5C  1703 0001:0001EE6A  1704 0001:0001EE7D  1706 0001:0001EE98
  1709 0001:0001EEB5  1713 0001:0001EEC5  1714 0001:0001EED0  1717 0001:0001EED4
  1718 0001:0001EEE2  1719 0001:0001EEF4  1720 0001:0001EEFB  1723 0001:0001EF04
  1724 0001:0001EF10  1725 0001:0001EF18  1726 0001:0001EF26  1728 0001:0001EF43
  1730 0001:0001EF53  1733 0001:0001EF58  1734 0001:0001EF61  1735 0001:0001EF70
  1740 0001:0001EF74  1741 0001:0001EF80  1742 0001:0001EF8B  1743 0001:0001EF91
  1744 0001:0001EF9C  1753 0001:0001EFA0  1754 0001:0001EFA9  1756 0001:0001EFB2
  1758 0001:0001EFBB  1759 0001:0001EFC5  1761 0001:0001EFD3  1763 0001:0001EFDC
  1764 0001:0001EFEE  1765 0001:0001EFF7  1766 0001:0001F005  1769 0001:0001F021
  1772 0001:0001F033  1774 0001:0001F03F  1786 0001:0001F044  1787 0001:0001F051
  1789 0001:0001F05C  1790 0001:0001F065  1792 0001:0001F071  1795 0001:0001F078
  1796 0001:0001F081  1797 0001:0001F090  1802 0001:0001F094  1803 0001:0001F0A0
  1804 0001:0001F0AB  1805 0001:0001F0B1  1806 0001:0001F0BC  1809 0001:0001F0C0
  1810 0001:0001F0C9  1811 0001:0001F0D8  1816 0001:0001F0DC  1817 0001:0001F0E8
  1819 0001:0001F0EE  1820 0001:0001F0F9  1821 0001:0001F0FF  1823 0001:0001F10A
  1835 0001:0001F110  1836 0001:0001F128  1837 0001:0001F158  1840 0001:0001F15C
  1841 0001:0001F16D  1842 0001:0001F18B  1845 0001:0001F190  1846 0001:0001F19C
  1848 0001:0001F1AE  1849 0001:0001F1B6  1850 0001:0001F1C4  1851 0001:0001F1CC
  1852 0001:0001F1DA  1854 0001:0001F1FA  1857 0001:0001F217  1861 0001:0001F227
  1862 0001:0001F232  1865 0001:0001F238  1866 0001:0001F246  1867 0001:0001F258
  1868 0001:0001F25F  1869 0001:0001F267  1872 0001:0001F270  1873 0001:0001F27C
  1874 0001:0001F284  1875 0001:0001F292  1877 0001:0001F2AF  1879 0001:0001F2BF
  1889 0001:0001F2C4  1890 0001:0001F2D2  1891 0001:0001F2DE  1892 0001:0001F2E4
  1893 0001:0001F2EF  1896 0001:0001F2F8  1897 0001:0001F301  1898 0001:0001F310
  1903 0001:0001F314  1904 0001:0001F320  1905 0001:0001F32B  1906 0001:0001F331
  1907 0001:0001F33B  1908 0001:0001F346  1913 0001:0001F34C  1914 0001:0001F355
  1916 0001:0001F35E  1918 0001:0001F36B  1919 0001:0001F375  1920 0001:0001F383
  1924 0001:0001F390  1926 0001:0001F399  1927 0001:0001F3A0  1928 0001:0001F3AD
  1931 0001:0001F3BD  1932 0001:0001F3C2  1933 0001:0001F3D0  1934 0001:0001F3D7
  1936 0001:0001F3E0  1937 0001:0001F3E7  1940 0001:0001F3F4  1942 0001:0001F402
  1945 0001:0001F41E  1948 0001:0001F430  1950 0001:0001F43C  1962 0001:0001F440
  1963 0001:0001F449  1964 0001:0001F458  1969 0001:0001F45C  1970 0001:0001F468
  1971 0001:0001F473  1972 0001:0001F479  1973 0001:0001F486  1974 0001:0001F491
  2000 0001:0001F498  2001 0001:0001F4B0  2002 0001:0001F4BA  2003 0001:0001F4C6
  2004 0001:0001F4D8  2005 0001:0001F4EB  2006 0001:0001F4FA  2007 0001:0001F50C
  2008 0001:0001F51F  2009 0001:0001F52E  2010 0001:0001F540  2011 0001:0001F553
  2012 0001:0001F562  2013 0001:0001F56C  2014 0001:0001F578  2015 0001:0001F5A0
  2018 0001:0001F5A8  2019 0001:0001F5B9  2020 0001:0001F5C6  2021 0001:0001F5D0
  2022 0001:0001F5DB  2023 0001:0001F5E6  2024 0001:0001F5F1  2025 0001:0001F5FD
  2026 0001:0001F619  2124 0001:0001F620  2125 0001:0001F62F  2126 0001:0001F637
  2127 0001:0001F645  2128 0001:0001F653  2131 0001:0001F6B9  2132 0001:0001F6C1
  2135 0001:0001F6D0  2136 0001:0001F6E0  2138 0001:0001F6FA  2139 0001:0001F702
  2140 0001:0001F710  2141 0001:0001F72D  2142 0001:0001F748  2143 0001:0001F77E
  2145 0001:0001F786  2169 0001:0001F794  2170 0001:0001F7A0  2171 0001:0001F7A8
  2172 0001:0001F7B6  2173 0001:0001F7D2  2174 0001:0001F7DA  2202 0001:0001F7E4
  2203 0001:0001F7F3  2204 0001:0001F7FB  2205 0001:0001F809  2206 0001:0001F81D
  2207 0001:0001F825  2210 0001:0001F830  2211 0001:0001F837  2212 0001:0001F841
  2213 0001:0001F847  2214 0001:0001F851  2215 0001:0001F85D  2218 0001:0001F860
  2219 0001:0001F86F  2220 0001:0001F87D  2221 0001:0001F893  2294 0001:0001F89C
  2295 0001:0001F8AC  2297 0001:0001F8B2  2298 0001:0001F8BA  2299 0001:0001F8C8
  2300 0001:0001F8D6  2302 0001:0001F8DE  2344 0001:0001F8E8  2345 0001:0001F8F7
  2346 0001:0001F905  2347 0001:0001F90C  2348 0001:0001F914  2349 0001:0001F936
  2352 0001:0001F940  2353 0001:0001F94C  2354 0001:0001F963  2357 0001:0001F968
  2358 0001:0001F974  2359 0001:0001F98B  2362 0001:0001F990  2363 0001:0001F999
  2364 0001:0001F9A3  2365 0001:0001F9B1  2366 0001:0001F9BC  2368 0001:0001F9D7
  2370 0001:0001F9EC  2373 0001:0001F9F0  2374 0001:0001F9F7  2375 0001:0001FA03
  2376 0001:0001FA0D  2377 0001:0001FA13  2378 0001:0001FA1D  2381 0001:0001FA20
  2382 0001:0001FA2C  2383 0001:0001FA3A  2386 0001:0001FA40  2387 0001:0001FA4C
  2388 0001:0001FA5A  2391 0001:0001FA60  2392 0001:0001FA6C  2393 0001:0001FA7A
  2396 0001:0001FA80  2397 0001:0001FA8C  2398 0001:0001FA9A  2399 0001:0001FAAA
  2402 0001:0001FAB4  2403 0001:0001FAC6  2404 0001:0001FAD4  2407 0001:0001FADC
  2408 0001:0001FAEB  2409 0001:0001FAF9  2410 0001:0001FB13  2413 0001:0001FB1C
  2414 0001:0001FB2B  2415 0001:0001FB33  2416 0001:0001FB41  2417 0001:0001FB5E
  2418 0001:0001FB66  2427 0001:0001FB70  2428 0001:0001FB79  2429 0001:0001FB81
  2430 0001:0001FB8F  2431 0001:0001FB9B  2434 0001:0001FBA4  2435 0001:0001FBAB
  2437 0001:0001FBCB  2438 0001:0001FBDD  2439 0001:0001FBEF  2440 0001:0001FC01
  2442 0001:0001FC14  2445 0001:0001FC1C  2446 0001:0001FC23  2449 0001:0001FC28
  2450 0001:0001FC34  2452 0001:0001FC3F  2454 0001:0001FC48  2455 0001:0001FC50
  2456 0001:0001FC6A  2457 0001:0001FC72  2459 0001:0001FC79  2461 0001:0001FC7F
  2462 0001:0001FC86  2463 0001:0001FC8F  2466 0001:0001FC9D  2471 0001:0001FCA4
  2472 0001:0001FCB0  2473 0001:0001FCBE  2475 0001:0001FCC8  2477 0001:0001FCCE
  2478 0001:0001FCD6  2479 0001:0001FCDF  2481 0001:0001FCF6  2482 0001:0001FD04
  2483 0001:0001FD12  2484 0001:0001FD20  2486 0001:0001FD2F  2489 0001:0001FD38
  2490 0001:0001FD40  2491 0001:0001FD56  2494 0001:0001FD5C  2495 0001:0001FD64
  2496 0001:0001FD7A  2499 0001:0001FD80  2500 0001:0001FD87  2501 0001:0001FD9F
  2502 0001:0001FDBA  2510 0001:0001FDC0  2511 0001:0001FDC7  2512 0001:0001FDDF
  2513 0001:0001FDFE  2516 0001:0001FE04  2517 0001:0001FE0B  2518 0001:0001FE1C
  2519 0001:0001FE34  2521 0001:0001FE43  2522 0001:0001FE60  2528 0001:0001FE71
  2529 0001:0001FE90  2531 0001:0001FE9E  2534 0001:0001FEA4  2535 0001:0001FEB0
  2537 0001:0001FEB9  2538 0001:0001FEC0  2540 0001:0001FED2  2543 0001:0001FED8
  2544 0001:0001FEE4  2546 0001:0001FEED  2547 0001:0001FEF4  2549 0001:0001FF06
  2552 0001:0001FF0C  2553 0001:0001FF18  2555 0001:0001FF21  2556 0001:0001FF28
  2558 0001:0001FF3A  2582 0001:0001FF40  2583 0001:0001FF47  2584 0001:0001FF5B
  2587 0001:0001FF60  2588 0001:0001FF67  2589 0001:0001FF7B  2593 0001:0001FF80
  2594 0001:0001FF8A  2598 0001:0001FF8C  2599 0001:0001FF96  2607 0001:0001FF98
  2608 0001:0001FFAB  2609 0001:0001FFE9  2615 0001:0001FFEC  2616 0001:0002000B
  2617 0001:00020013  2619 0001:00020040  2621 0001:0002006F  2622 0001:00020094
  2625 0001:00020098  2626 0001:000200A1  2627 0001:000200AC  2628 0001:000200B5
  2635 0001:000200BC  2636 0001:000200D1  2637 0001:000200DB  2639 0001:000200E5
  2640 0001:000200F3  2641 0001:00020102  2642 0001:00020108  2645 0001:00020120
  2646 0001:0002012A  2647 0001:00020135  2648 0001:00020143  2649 0001:00020157
  2651 0001:0002016F  2655 0001:00020182  2657 0001:00020188  2658 0001:00020198
  2660 0001:000201A8  2662 0001:000201D2  2663 0001:000201E5  2666 0001:00020205
  2667 0001:0002020E  2669 0001:00020222  2672 0001:00020228  2673 0001:00020232
  2674 0001:00020247  2676 0001:00020257  2678 0001:0002025F  2681 0001:00020264
  2682 0001:00020273  2683 0001:00020276  2684 0001:00020289  2685 0001:0002029C
  2698 0001:000202A0  2699 0001:000202AF  2700 0001:000202B3  2702 0001:000202D9
  2703 0001:000202EE  2704 0001:000202FE  2706 0001:0002030C  2708 0001:0002035A
  2709 0001:0002036A  2713 0001:0002037B  2714 0001:00020380  2715 0001:0002038F
  2716 0001:0002039D  2717 0001:000203B6  2718 0001:000203C6  2719 0001:000203DA
  2720 0001:000203E9  2721 0001:000203EF  2723 0001:00020403  2724 0001:00020417
  2726 0001:00020420  2727 0001:0002044E  2728 0001:0002047C  2729 0001:0002048A
  2730 0001:0002049B  2731 0001:000204CD  2732 0001:000204FB  2733 0001:00020508
  2735 0001:00020515  2736 0001:00020528  2738 0001:0002053E  2739 0001:00020553
  2741 0001:00020567  2756 0001:00020570  2757 0001:00020579  2758 0001:0002057F
  2759 0001:00020585  2760 0001:0002058C  2762 0001:000205A7  2763 0001:000205B3
  2764 0001:000205BF  2765 0001:000205C9  2766 0001:000205D0  2759 0001:000205D3
  2767 0001:000205D9  2768 0001:000205E0  2776 0001:000205E4  2777 0001:000205F0
  2778 0001:000205F6  2779 0001:000205FC  2780 0001:00020610  2782 0001:0002062B
  2783 0001:00020637  2784 0001:00020643  2785 0001:0002064D  2779 0001:00020650
  2786 0001:00020655  2788 0001:00020660  2789 0001:00020682  2791 0001:0002068B
  2796 0001:00020690  2797 0001:0002069C  2799 0001:000206A5  2800 0001:000206A8
  2801 0001:000206AB  2802 0001:000206AC  2803 0001:000206AE  2804 0001:000206B1
  2805 0001:000206B6  2806 0001:000206B8  2807 0001:000206BB  2808 0001:000206BD
  2809 0001:000206C0  2810 0001:000206C3  2811 0001:000206C4  2812 0001:000206C6
  2814 0001:000206C8  2815 0001:000206C9  2816 0001:000206CB  2817 0001:000206CE
  2818 0001:000206D0  2819 0001:000206D2  2820 0001:000206D5  2821 0001:000206D8
  2822 0001:000206DA  2823 0001:000206DD  2824 0001:000206DE  2825 0001:000206E0
  2828 0001:000206E1  2835 0001:000206E8  2836 0001:000206F7  2837 0001:00020700
  2838 0001:00020709  2839 0001:0002071C  2840 0001:00020726  2841 0001:00020734
  2844 0001:00020742  2846 0001:0002074C  2848 0001:00020760  2850 0001:0002076C
  2851 0001:00020785  2852 0001:000207A6  2855 0001:000207BC  2861 0001:000207EA
  2863 0001:000207FD  2864 0001:0002080F  2870 0001:00020814  2871 0001:0002081D
  2872 0001:00020821  2874 0001:0002082E  2875 0001:00020838  2876 0001:00020846
  2877 0001:00020854  2881 0001:0002085A  2882 0001:00020870  2883 0001:0002088E
  2886 0001:0002089F  2889 0001:000208B5  2897 0001:000208BC  2898 0001:000208CE
  2899 0001:000208D3  2900 0001:000208DC  2902 0001:000208E2  2903 0001:000208EC
  2904 0001:000208FC  2905 0001:0002091A  2906 0001:00020927  2910 0001:00020932
  2911 0001:0002093D  2913 0001:00020951  2914 0001:0002095B  2915 0001:00020974
  2916 0001:00020986  2917 0001:00020998  2921 0001:0002099C  2922 0001:000209AB
  2923 0001:000209B0  2926 0001:000209CF  2927 0001:000209DF  2928 0001:000209F2
  2929 0001:00020A00  2942 0001:00020A04  2945 0001:00020A13  2946 0001:00020A19
  2947 0001:00020A3C  2949 0001:00020A4B  2950 0001:00020A55  2951 0001:00020A60
  2952 0001:00020A6E  2953 0001:00020A7F  2954 0001:00020AA0  2955 0001:00020AAE
  2957 0001:00020ACD  2961 0001:00020ADE  2962 0001:00020AE7  2963 0001:00020AF0
  2964 0001:00020B13  2965 0001:00020B1D  2967 0001:00020B27  2968 0001:00020B30
  2969 0001:00020B37  2970 0001:00020B41  2971 0001:00020B62  2972 0001:00020B70
  2974 0001:00020B8F  2977 0001:00020BAD  2979 0001:00020BC0  3011 0001:00020BC8
  3012 0001:00020BD1  3013 0001:00020BD7  3015 0001:00020BE0  3016 0001:00020BE9
  3021 0001:00020BF0  3022 0001:00020BFC  3023 0001:00020C0D  3024 0001:00020C20
  3025 0001:00020C31  3026 0001:00020C44  3028 0001:00020C98  3030 0001:00020C9C
  3031 0001:00020CAF  3032 0001:00020CB8  3033 0001:00020CC3  3034 0001:00020CD1
  3035 0001:00020CDF  3037 0001:00020CEC  3038 0001:00020CF8  3041 0001:00020D07
  3042 0001:00020D17  3043 0001:00020D21  3044 0001:00020D2C  3045 0001:00020D3A
  3046 0001:00020D5A  3047 0001:00020D61  3049 0001:00020D6A  3051 0001:00020D85
  3056 0001:00020D98  3057 0001:00020D9D  3058 0001:00020DAE  3060 0001:00020DC0
  3061 0001:00020DD7  3064 0001:00020E08  3065 0001:00020E0E  3067 0001:00020E14
  3058 0001:00020E17  3095 0001:00020E1C  3097 0001:00020E2A  3098 0001:00020E35
  3099 0001:00020E42  3100 0001:00020E50  3101 0001:00020E5E  3102 0001:00020E78
  3103 0001:00020E89  3104 0001:00020E9B  3105 0001:00020EAD  3106 0001:00020EBC
  3108 0001:00020ECE  3110 0001:00020EDD  3111 0001:00020EE6  3112 0001:00020EF1
  3113 0001:00020EFF  3114 0001:00020F05  3116 0001:00020F0E  3117 0001:00020F1F
  3118 0001:00020F30  3119 0001:00020F39  3120 0001:00020F42  3122 0001:00020F6F
  3124 0001:00020F89  3127 0001:00020FA9  3131 0001:00020FCC  3133 0001:00020FDF
  3157 0001:00020FE8  3158 0001:00020FF9  3159 0001:00020FFE  3160 0001:00021010
  3161 0001:0002101D  3163 0001:00021029  3166 0001:0002103A  3169 0001:00021049
  3170 0001:00021052  3171 0001:0002105B  3174 0001:00021064  3175 0001:0002107B
  3178 0001:00021086  3179 0001:0002108F  3183 0001:0002109A  3184 0001:000210A3
  3187 0001:000210AE  3189 0001:000210BD  3190 0001:000210C6  3191 0001:000210D4
  3192 0001:000210E0  3193 0001:000210E9  3194 0001:00021116  3200 0001:0002111C
  3201 0001:0002112B  3202 0001:00021139  3204 0001:00021140  3205 0001:00021149
  3206 0001:0002114F  3209 0001:00021157  3210 0001:0002115D  3213 0001:00021175
  3215 0001:00021183  3216 0001:0002118B  3220 0001:00021194  3221 0001:000211A3
  3222 0001:000211B3  3229 0001:000211B8  3230 0001:000211C7  3231 0001:000211D5
  3232 0001:000211DA  3233 0001:000211E4  3234 0001:000211F2  3236 0001:000211F8
  3237 0001:0002120A  3239 0001:00021213  3242 0001:00021246  3243 0001:0002125B
  3245 0001:0002126F  3248 0001:00021278  3249 0001:00021287  3250 0001:000212A1
  3254 0001:000212A8  3257 0001:000212AC  3258 0001:000212B3  3259 0001:000212BE
  3270 0001:000212C4  3271 0001:000212D4  3272 0001:000212E3  3273 0001:000212F2
  3274 0001:00021304  3275 0001:00021312  3276 0001:00021322  3277 0001:00021332
  3278 0001:00021337  3279 0001:0002133C  3280 0001:00021341  3281 0001:00021346
  3282 0001:00021354  3283 0001:0002135F  3284 0001:0002136A  3285 0001:00021375
  3286 0001:00021380  3287 0001:00021393  3288 0001:000213A6  3290 0001:000213AC
  3292 0001:000213BB  3296 0001:000213CB  3297 0001:000213D1  3299 0001:000213D7
  3300 0001:000213E7  3302 0001:000213ED  3303 0001:000213F6  3304 0001:000213FF
  3305 0001:00021411  3306 0001:0002141D  3308 0001:00021424  3309 0001:00021434
  3310 0001:0002143A  3311 0001:00021446  3312 0001:00021454  3313 0001:00021462
  3315 0001:0002147D  3316 0001:00021488  3317 0001:00021493  3318 0001:0002149E
  3321 0001:000214BE  3322 0001:000214C7  3324 0001:000214D8  3329 0001:000214E0
  3330 0001:000214F8  3331 0001:0002151D  3334 0001:00021524  3335 0001:00021531
  3336 0001:00021538  3337 0001:0002154E  3342 0001:00021554  3343 0001:00021558
  3344 0001:00021564  3347 0001:0002159F  3348 0001:000215B2  3350 0001:000215B8
  3351 0001:000215C5  3352 0001:000215EF  3357 0001:00021604  3358 0001:00021611
  3359 0001:00021636  3361 0001:0002164E  3362 0001:0002166F  3364 0001:00021674
  3366 0001:0002167E  3367 0001:0002168D  3368 0001:0002169B  3369 0001:000216A6
  3370 0001:000216B5  3371 0001:000216C3  3372 0001:000216CE  3375 0001:0002171F
  3378 0001:0002173C  3381 0001:0002174F  3384 0001:00021754  3385 0001:0002175D
  3386 0001:00021765  3389 0001:0002176C  3390 0001:00021775  3391 0001:00021781
  3396 0001:00021788  3397 0001:00021794  3398 0001:000217A8  3399 0001:000217B6
  3401 0001:000217CE  3403 0001:000217DE  3407 0001:000217E4  3408 0001:000217F4
  3409 0001:000217FE  3410 0001:0002181D  3413 0001:00021824  3414 0001:00021830
  3415 0001:0002183B  3420 0001:00021840  3421 0001:0002184C  3422 0001:00021863
  3423 0001:00021871  3425 0001:00021889  3427 0001:00021899  3430 0001:000218A0
  3431 0001:000218AC  3441 0001:000218B0  3442 0001:000218BC  3444 0001:000218C7
  3445 0001:000218D0  3447 0001:000218DB  3450 0001:000218E0  3451 0001:000218EC
  3452 0001:000218F7  4658 0001:00021998  4659 0001:0002199E  4660 0001:000219AB
  4661 0001:000219B9  4662 0001:000219C8  4663 0001:000219D6  4664 0001:000219E2
  4665 0001:000219F0  4667 0001:00021A05  4668 0001:00021A15  4661 0001:00021A18
  4670 0001:00021A2B  4672 0001:00021A3D  4682 0001:00021A44  4683 0001:00021A4D
  4684 0001:00021A57  4685 0001:00021A64  4686 0001:00021A72  4687 0001:00021A81
  4688 0001:00021A8F  4689 0001:00021AA9  4686 0001:00021AB4  4691 0001:00021AC7
  4693 0001:00021AD9  4696 0001:00021AE0  4697 0001:00021AFB  4698 0001:00021B05
  4699 0001:00021B29  4702 0001:00021B30  4703 0001:00021B41  4704 0001:00021B49
  4705 0001:00021B65  4710 0001:00021B6C  4711 0001:00021B75  4713 0001:00021B82
  4714 0001:00021B8A  4715 0001:00021B98  4716 0001:00021BB4  4717 0001:00021BD2
  4718 0001:00021BDB  4719 0001:00021BE5  4720 0001:00021BEE  4722 0001:00021C08
  4725 0001:00021C18  4730 0001:00021C1C  4731 0001:00021C25  4733 0001:00021C32
  4734 0001:00021C3A  4735 0001:00021C48  4736 0001:00021C53  4738 0001:00021C64
  4739 0001:00021C6F  4740 0001:00021C79  4741 0001:00021C88  4742 0001:00021CA6
  4743 0001:00021CAE  4745 0001:00021CBD  4746 0001:00021CDB  4749 0001:00021CE6
  4750 0001:00021CEE  4751 0001:00021CF9  4753 0001:00021D13  4756 0001:00021D23
  4761 0001:00021D28  4762 0001:00021D2F  4763 0001:00021D35  4766 0001:00021D38
  4767 0001:00021D3F  4769 0001:00021D45  4770 0001:00021D4B  4772 0001:00021D54
  4773 0001:00021D5B  4776 0001:00021D63  4781 0001:00021D68  4782 0001:00021D79
  4784 0001:00021D82  4785 0001:00021D8D  4786 0001:00021D99  4788 0001:00021DA1
  4789 0001:00021DA8  4790 0001:00021DBD  4791 0001:00021DC8  4792 0001:00021DE4
  4795 0001:00021DE8  4796 0001:00021DEF  4798 0001:00021E06  4799 0001:00021E11
  4801 0001:00021E1D  4803 0001:00021E26  4804 0001:00021E31  4805 0001:00021E3D
  4807 0001:00021E45  4808 0001:00021E50  4809 0001:00021E58  4810 0001:00021E60
  5006 0001:00021E64  5007 0001:00021E76  5009 0001:00021E8E  5010 0001:00021EA4
  5011 0001:00021EAE  5012 0001:00021EB8  5013 0001:00021EC4  5014 0001:00021ED4
  5015 0001:00021EE2  5017 0001:00021F05  5018 0001:00021F12  5019 0001:00021F1B
  5022 0001:00021F2E  5025 0001:00021F34  5026 0001:00021F3B  5028 0001:00021F4D
  5031 0001:00021F57  5032 0001:00021F61  5033 0001:00021F6B  5034 0001:00021F77
  5037 0001:00021F81  5038 0001:00021F8B  5039 0001:00021F95  5041 0001:00021F9F
  5053 0001:00021FA4  5054 0001:00021FB9  5057 0001:00021FBE  5058 0001:00021FE1
  5061 0001:00022004  5063 0001:0002200C  5064 0001:00022011  5065 0001:00022017
  5066 0001:0002202E  5068 0001:00022033  5069 0001:00022042  5070 0001:00022053
  5072 0001:00022061  5073 0001:0002206A  5074 0001:0002207E  5076 0001:000220A4
  5079 0001:000220C8  5080 0001:000220D5  5082 0001:000220E3  5083 0001:000220ED
  5084 0001:000220F6  5085 0001:00022100  5086 0001:00022123  5087 0001:00022135
  5088 0001:00022141  5090 0001:0002214D  5092 0001:0002215B  5094 0001:00022171
  5095 0001:00022179  5097 0001:0002218D  5098 0001:00022193  5099 0001:000221AB
  5101 0001:000221B5  5102 0001:000221C5  5103 0001:000221D1  5105 0001:000221F0
  5106 0001:00022213  5109 0001:00022222  5112 0001:0002223F  5113 0001:00022247
  5116 0001:0002225D  5117 0001:0002227C  5119 0001:00022287  5122 0001:000222B3
  5123 0001:000222D8  5126 0001:000222F4  5130 0001:00022304  5131 0001:0002230C
  5132 0001:00022321  5133 0001:0002232F  5134 0001:0002233D  5135 0001:00022342
  5136 0001:00022347  5138 0001:0002234D  5139 0001:0002235F  5141 0001:00022368
  5142 0001:00022376  5145 0001:00022380  5146 0001:000223B9  5147 0001:000223D1
  5148 0001:000223EB  5150 0001:000223FE  5151 0001:0002240F  5152 0001:00022422
  5156 0001:00022435  5157 0001:00022455  5159 0001:0002245F  5160 0001:00022470
  5161 0001:0002247E  5162 0001:00022493  5164 0001:00022499  5165 0001:000224AB
  5167 0001:000224B4  5169 0001:000224BA  5170 0001:000224D2  5172 0001:000224EC
  5173 0001:00022514  5174 0001:0002251A  5175 0001:00022529  5177 0001:00022548
  5181 0001:00022566  5182 0001:0002256C  5185 0001:00022590  5188 0001:000225B4
  5189 0001:000225BD  5192 0001:000225D4  5193 0001:000225DD  5194 0001:000225E8
  5196 0001:00022608  5202 0001:00022614  5203 0001:00022620  5204 0001:00022625
  5205 0001:0002262B  5206 0001:00022630  5207 0001:00022643  5210 0001:00022649
  5211 0001:00022652  5212 0001:0002265D  5214 0001:00022673  5215 0001:00022685
  5225 0001:0002268C  5226 0001:0002269B  5227 0001:000226A0  5229 0001:000226C1
  5230 0001:000226C9  5231 0001:000226CE  5232 0001:000226D3  5233 0001:000226E1
  5234 0001:000226F0  5237 0001:00022701  5238 0001:00022717  5240 0001:00022721
  5241 0001:00022731  5242 0001:0002273A  5245 0001:00022756  5246 0001:00022767
  5248 0001:00022775  5250 0001:0002277B  5251 0001:0002277F  5252 0001:00022784
  5254 0001:0002279D  5255 0001:000227A1  5256 0001:000227B1  5258 0001:000227B7
  5259 0001:000227C6  5260 0001:000227CF  5261 0001:000227DE  5263 0001:000227E7
  5264 0001:000227F7  5265 0001:00022819  5266 0001:00022826  5267 0001:00022839
  5269 0001:00022855  5272 0001:00022866  5276 0001:00022886  5277 0001:00022895
  5280 0001:000228B1  5283 0001:000228B8  5284 0001:000228D0  5285 0001:000228DA
  5286 0001:000228E4  5287 0001:000228F6  5288 0001:00022901  5289 0001:0002292F
  5292 0001:00022934  5293 0001:00022945  5294 0001:0002294D  5295 0001:00022958
  5296 0001:00022963  5297 0001:0002297F  5302 0001:00022984  5303 0001:00022990
  5305 0001:000229AC  5306 0001:000229B6  5307 0001:000229C4  5309 0001:000229CA
  5310 0001:000229D5  5311 0001:000229E0  5312 0001:000229EC  5313 0001:000229F8
  5314 0001:00022A04  5318 0001:00022A12  5319 0001:00022A21  5322 0001:00022A42
  5324 0001:00022A54  5325 0001:00022A67  5327 0001:00022A74  5328 0001:00022A7F
  5333 0001:00022A84  5334 0001:00022AA5  5335 0001:00022AAD  5336 0001:00022AB2
  5337 0001:00022AB7  5338 0001:00022AC5  5339 0001:00022AD0  5341 0001:00022AD8
  5342 0001:00022AE3  5343 0001:00022AFF  5345 0001:00022B2C  5346 0001:00022B34
  5347 0001:00022B43  5349 0001:00022B4D  5356 0001:00022B58  5357 0001:00022B64
  5358 0001:00022B6C  5359 0001:00022B77  5360 0001:00022B82  5361 0001:00022B90
  5364 0001:00022B94  5365 0001:00022BA0  5366 0001:00022BA7  5367 0001:00022BB2
  5373 0001:00022BB8  5374 0001:00022BC3  5375 0001:00022BD2  5376 0001:00022BDD
  5377 0001:00022BEE  5378 0001:00022C01  5379 0001:00022C06  5380 0001:00022C0E
  5381 0001:00022C19  5382 0001:00022C37  5393 0001:00022C40  5394 0001:00022C50
  5396 0001:00022C59  5397 0001:00022C67  5398 0001:00022C6F  5399 0001:00022C74
  5401 0001:00022C78  5403 0001:00022C81  5404 0001:00022C99  5405 0001:00022CA5
  5407 0001:00022CA9  5409 0001:00022CCD  5410 0001:00022CF1  5412 0001:00022CF7
  5413 0001:00022D07  5414 0001:00022D15  5415 0001:00022D2F  5416 0001:00022D3B
  5417 0001:00022D4B  5420 0001:00022D59  5421 0001:00022D6D  5422 0001:00022D80
  5424 0001:00022D90  5425 0001:00022D95  5426 0001:00022D9A  5427 0001:00022DA8
  5428 0001:00022DB7  5429 0001:00022DCA  5433 0001:00022E2C  5434 0001:00022E3F
  5438 0001:00022E56  5442 0001:00022EBA  5443 0001:00022EC0  5446 0001:00022EDA
  5457 0001:00022EE4  5458 0001:00022EED  5459 0001:00022EF6  5461 0001:00022EFF
  5462 0001:00022F07  5463 0001:00022F10  5465 0001:00022F17  5466 0001:00022F20
  5468 0001:00022F3A  5470 0001:00022F51  5471 0001:00022F5A  5472 0001:00022F6F
  5473 0001:00022F77  5475 0001:00022F7F  5478 0001:00022F84  5479 0001:00022F8D
  5480 0001:00022F96  5481 0001:00022FBD  5484 0001:00022FC4  5485 0001:00022FCD
  5487 0001:00022FD6  5488 0001:00022FDE  5490 0001:00022FE7  5491 0001:00022FFC
  5492 0001:00023010  5495 0001:00023023  5496 0001:0002302F  5502 0001:00023034
  5503 0001:0002303D  5504 0001:00023045  5505 0001:0002304D  5506 0001:00023058
  5507 0001:00023067  5515 0001:0002306C  5516 0001:00023075  5518 0001:0002307E
  5519 0001:00023095  5520 0001:0002309E  5521 0001:000230A7  5523 0001:000230AD
  5525 0001:000230B3  5527 0001:000230B9  5529 0001:000230C0  5532 0001:000230C4
  5533 0001:000230CD  5534 0001:000230E1  5537 0001:000230E8  5538 0001:000230F1
  5539 0001:000230F9  5540 0001:00023108  5543 0001:0002310C  5544 0001:00023115
  5545 0001:00023121  5546 0001:00023141  5549 0001:00023148  5550 0001:00023151
  5551 0001:00023159  5552 0001:00023168  5591 0001:0002316C  5592 0001:00023175
  5594 0001:00023181  5595 0001:0002318D  5597 0001:00023196  5599 0001:000231B5
  5600 0001:000231C3  5601 0001:000231CD  5604 0001:000231D4  5605 0001:000231DD
  5606 0001:000231EC  5609 0001:000231F0  5610 0001:000231F9  5612 0001:00023202
  5613 0001:0002321C  5614 0001:00023224  5616 0001:0002322D  5617 0001:00023242
  5619 0001:0002325A  5620 0001:00023263  5621 0001:0002326F  5622 0001:0002327B
  5623 0001:00023284  5626 0001:00023299  5628 0001:000232BF  5631 0001:000232C4
  5632 0001:000232CB  5633 0001:000232DF  5638 0001:000232E4  5639 0001:000232ED
  5641 0001:00023315  5642 0001:00023327  5643 0001:00023336  5644 0001:00023344
  5645 0001:0002334F  5647 0001:0002336D  5651 0001:00023384  5652 0001:0002338D
  5653 0001:00023396  5654 0001:000233A2  5684 0001:000233A8  5685 0001:000233B1
  5686 0001:000233C3  5689 0001:000233CC  5691 0001:000233D5  5692 0001:000233E0
  5693 0001:000233EC  5695 0001:000233F4  5696 0001:000233FC  5698 0001:00023404
  5700 0001:0002340D  5701 0001:0002342E  5702 0001:00023435  5704 0001:0002343C
  5709 0001:00023440  5710 0001:0002344A  5712 0001:00023453  5713 0001:0002347A
  5714 0001:00023493  5715 0001:000234B6  5716 0001:000234C3  5717 0001:000234D2
  5720 0001:00023516  5721 0001:0002352E  5722 0001:00023539  5724 0001:00023549
  5730 0001:00023550  5731 0001:00023560  5732 0001:0002356D  5733 0001:00023577
  5734 0001:0002357F  5735 0001:0002358E  5736 0001:0002359D  5737 0001:000235A8
  5738 0001:000235BA  5739 0001:000235C4  5740 0001:000235D7  5741 0001:000235E2
  5744 0001:000235E8  5745 0001:000235F4  5746 0001:00023612  5778 0001:00023618
  5779 0001:0002362A  5780 0001:00023639  5782 0001:00023647  5783 0001:00023650
  5784 0001:00023659  5785 0001:0002366B  5786 0001:00023674  5787 0001:00023689
  5789 0001:000236AC  5790 0001:000236B4  5793 0001:000236BE  5794 0001:000236C8
  5795 0001:000236D6  5796 0001:000236E1  5797 0001:000236EA  5799 0001:00023702
  5801 0001:00023714  5802 0001:0002371B  5807 0001:00023724  5808 0001:00023731
  5809 0001:00023741  5810 0001:0002374F  5831 0001:00023754  5832 0001:00023769
  5833 0001:0002376E  5834 0001:00023773  5835 0001:00023778  5836 0001:00023788
  5837 0001:00023790  5838 0001:0002379D  5839 0001:000237B0  5840 0001:000237B6
  5841 0001:000237C4  5842 0001:000237D2  5845 0001:000237D8  5846 0001:000237EB
  5847 0001:000237FA  5849 0001:00023800  5850 0001:0002380A  5851 0001:00023814
  5852 0001:0002381F  5854 0001:0002382A  5859 0001:00023833  5860 0001:00023847
  5862 0001:0002384D  5865 0001:00023867  5867 0001:00023876  5869 0001:0002387C
  5870 0001:0002388E  5871 0001:00023897  5872 0001:000238A3  5874 0001:000238AC
  5875 0001:000238BC  5876 0001:000238CC  5878 0001:000238E0  5880 0001:000238F2
  5881 0001:00023903  5885 0001:00023909  5887 0001:0002390F  5888 0001:00023917
  5891 0001:00023920  5895 0001:0002392F  5899 0001:00023952  5900 0001:00023962
  5901 0001:00023966  5905 0001:0002396A  5906 0001:00023973  5907 0001:00023985
  5908 0001:000239A5  5911 0001:000239BC  5912 0001:000239C5  5914 0001:000239F2
  5918 0001:00023A06  5920 0001:00023A14  5921 0001:00023A23  5922 0001:00023A31
  5925 0001:00023A50  5926 0001:00023A55  5927 0001:00023A60  5928 0001:00023A6E
  5929 0001:00023A7C  5930 0001:00023A8D  5931 0001:00023AA7  5932 0001:00023AAC
  5934 0001:00023AB5  5935 0001:00023AC8  5936 0001:00023ADA  5939 0001:00023AE3
  5940 0001:00023AF1  5942 0001:00023B0D  5943 0001:00023B13  5945 0001:00023B35
  5946 0001:00023B3B  5947 0001:00023B4A  5950 0001:00023B72  5951 0001:00023B81
  5956 0001:00023B91  5957 0001:00023BAB  5958 0001:00023BB7  5960 0001:00023BCC
  5971 0001:00023BDA  5973 0001:00023BF7  5974 0001:00023C00  5978 0001:00023C17
  5981 0001:00023C2A  5982 0001:00023C43  5984 0001:00023C56  5985 0001:00023C68
  5987 0001:00023C7A  5988 0001:00023C83  5989 0001:00023C8C  5990 0001:00023C95
  5992 0001:00023CAD  5993 0001:00023CB5  5996 0001:00023CCC  5998 0001:00023CDC
  5999 0001:00023CF9  6000 0001:00023D0C  6001 0001:00023D17  6007 0001:00023D20
  6008 0001:00023D2F  6009 0001:00023D37  6011 0001:00023D3D  6012 0001:00023D4C
  6016 0001:00023D62  6017 0001:00023D72  6018 0001:00023D7F  6020 0001:00023D94
  6026 0001:00023D98  6027 0001:00023DA7  6028 0001:00023DB0  6030 0001:00023DBF
  6031 0001:00023DC7  6032 0001:00023DD6  6033 0001:00023DDC  6034 0001:00023DEB
  6036 0001:00023DF4  6037 0001:00023DFD  6040 0001:00023E07  6041 0001:00023E15
  6043 0001:00023E1F  6044 0001:00023E2D  6045 0001:00023E3B  6047 0001:00023E60
  6048 0001:00023E68  6050 0001:00023E72  6052 0001:00023E7D  6060 0001:00023E84
  6061 0001:00023E92  6062 0001:00023EA3  6064 0001:00023EAC  6065 0001:00023EBE
  6066 0001:00023EC4  6068 0001:00023ED1  6071 0001:00023EE0  6073 0001:00023EEA
  6074 0001:00023F05  6075 0001:00023F0D  6076 0001:00023F15  6077 0001:00023F1D
  6079 0001:00023F26  6080 0001:00023F2F  6081 0001:00023F37  6082 0001:00023F40
  6083 0001:00023F48  6086 0001:00023F6B  6090 0001:00023F8B  6091 0001:00023FA6
  6092 0001:00023FAE  6093 0001:00023FB6  6094 0001:00023FC6  6095 0001:00023FCB
  6096 0001:00023FD6  6097 0001:00023FDC  6099 0001:00023FE7  6100 0001:00023FF5
  6101 0001:00024012  6102 0001:00024018  6104 0001:00024023  6106 0001:0002403E
  6109 0001:00024049  6114 0001:00024050  6115 0001:0002405E  6116 0001:00024067
  6118 0001:00024072  6119 0001:0002407A  6120 0001:0002408A  6121 0001:00024090
  6122 0001:00024096  6123 0001:000240AE  6125 0001:000240B9  6141 0001:000240C0
  6142 0001:000240CE  6143 0001:000240E0  6145 0001:000240FF  6146 0001:00024107
  6149 0001:00024117  6150 0001:0002411C  6151 0001:00024125  6152 0001:0002412E
  6153 0001:00024137  6155 0001:00024140  6156 0001:00024158  6158 0001:00024163
  6164 0001:0002416C  6165 0001:0002417B  6167 0001:0002418D  6168 0001:00024196
  6170 0001:000241A5  6171 0001:000241B0  6175 0001:000241BD  6176 0001:000241C5
  6177 0001:000241CD  6178 0001:000241DD  6179 0001:000241FA  6180 0001:00024208
  6182 0001:00024232  6183 0001:0002423B  6186 0001:00024245  6187 0001:0002425F
  6188 0001:00024266  6190 0001:00024271  6281 0001:00024278  6282 0001:00024286
  6283 0001:0002428F  6285 0001:0002429A  6286 0001:000242A2  6287 0001:000242B2
  6288 0001:000242B8  6289 0001:000242BE  6290 0001:000242D6  6292 0001:000242E1
  6295 0001:000242E8  6296 0001:000242F4  6297 0001:00024301  6309 0001:00024308
  6310 0001:0002431B  6311 0001:0002432A  6312 0001:00024330  6314 0001:0002433C
  6315 0001:0002434C  6316 0001:00024352  6317 0001:00024362  6318 0001:00024385
  6320 0001:0002438A  6321 0001:00024392  6323 0001:0002439B  6324 0001:000243A0
  6326 0001:000243AD  6327 0001:000243C5  6329 0001:000243CE  6330 0001:000243D5
  6331 0001:000243DF  6333 0001:000243F3  6335 0001:000243FC  6336 0001:0002440B
  6338 0001:00024411  6339 0001:00024424  6340 0001:00024442  6341 0001:00024462
  6343 0001:00024475  6344 0001:00024489  6345 0001:00024492  6347 0001:000244B3
  6348 0001:000244CC  6350 0001:000244D6  6351 0001:000244DF  6355 0001:000244E8
  6356 0001:000244EE  6359 0001:000244F7  6361 0001:0002450D  6363 0001:00024517
  6364 0001:00024522  6366 0001:00024528  6367 0001:0002453C  6368 0001:00024545
  6370 0001:0002455C  6372 0001:00024565  6374 0001:0002456E  6375 0001:00024575
  6376 0001:00024580  6377 0001:0002458B  6378 0001:00024591  6380 0001:0002459C
  6381 0001:000245AC  6385 0001:000245BE  6386 0001:000245CE  6387 0001:000245E1
  6389 0001:000245F4  6391 0001:00024607  6392 0001:00024628  6395 0001:0002463C
  6429 0001:00024648  6430 0001:00024654  6431 0001:00024661  6437 0001:00024668
  6438 0001:0002467A  6439 0001:00024682  6440 0001:0002468A  6442 0001:00024693
  6443 0001:000246A3  6444 0001:000246A8  6445 0001:000246AD  6447 0001:000246D4
  6448 0001:000246E2  6450 0001:00024704  6451 0001:0002470F  6453 0001:00024719
  6463 0001:00024724  6464 0001:00024735  6465 0001:00024740  6466 0001:0002475C
  6469 0001:00024760  6470 0001:00024767  6471 0001:0002477C  6472 0001:00024784
  6477 0001:00024788  6478 0001:000247A0  6479 0001:000247AA  6480 0001:000247B1
  6481 0001:000247C3  6482 0001:000247E9  6485 0001:000247F0  6486 0001:00024801
  6487 0001:0002480C  6488 0001:00024828  6491 0001:0002482C  6492 0001:00024838
  6494 0001:00024850  6496 0001:00024856  6497 0001:00024861  6498 0001:0002486C
  6500 0001:0002487A  6501 0001:00024886  6502 0001:00024891  6504 0001:00024893
  6505 0001:0002489E  6508 0001:000248A4  6511 0001:000248B3  6512 0001:000248C1
  6514 0001:000248ED  6517 0001:000248F8  6518 0001:00024901  6519 0001:0002490A
  6520 0001:00024928  6523 0001:0002492C  6524 0001:00024935  6525 0001:0002493D
  6526 0001:0002494C  6534 0001:00024950  6535 0001:00024959  6536 0001:00024965
  6537 0001:0002496B  6538 0001:00024978  6541 0001:0002497C  6542 0001:00024985
  6543 0001:00024991  6544 0001:00024997  6545 0001:000249A4  6551 0001:000249A8
  6552 0001:000249B1  6554 0001:000249BA  6555 0001:000249C3  6556 0001:000249CC
  6557 0001:000249DB  6558 0001:000249EE  6559 0001:000249FC  6560 0001:00024A06
  6563 0001:00024A2A  6565 0001:00024A2F  6567 0001:00024A38  6573 0001:00024A3C
  6574 0001:00024A48  6576 0001:00024A51  6577 0001:00024A5E  6578 0001:00024A6C
  6579 0001:00024A7B  6580 0001:00024A89  6582 0001:00024A99  6583 0001:00024AA8
  6586 0001:00024ABA  6588 0001:00024ADD  6589 0001:00024AE5  6591 0001:00024AEF
  6593 0001:00024AF8  6599 0001:00024B00  6600 0001:00024B0F  6601 0001:00024B1E
  6602 0001:00024B2C  6603 0001:00024B47  6604 0001:00024B5E  6605 0001:00024B6E
  6606 0001:00024B7D  6608 0001:00024B99  6609 0001:00024BA1  6611 0001:00024BAB
  6612 0001:00024BB6  6617 0001:00024BC0  6618 0001:00024BD2  6619 0001:00024BE1
  6620 0001:00024BEF  6621 0001:00024BF8  6623 0001:00024C10  6624 0001:00024C18
  6626 0001:00024C22  6627 0001:00024C2A  6628 0001:00024C35  6629 0001:00024C3E
  6643 0001:00024C48  6644 0001:00024C54  6645 0001:00024C61  6646 0001:00024C6C
  6649 0001:00024C70  6650 0001:00024C7C  6651 0001:00024C88  6653 0001:00024C93
  6654 0001:00024C9D  6657 0001:00024CA4  6660 0001:00024CB0  6663 0001:00024CB4
  6664 0001:00024CC0  6665 0001:00024CCC  6667 0001:00024CD7  6668 0001:00024CE1
  6671 0001:00024CE8  6672 0001:00024CF4  6673 0001:00024CFC  6674 0001:00024D1F
  6678 0001:00024D24  6679 0001:00024D34  6680 0001:00024D3E  6684 0001:00024D44
  6685 0001:00024D53  6686 0001:00024D5D  6723 0001:00024D64  6724 0001:00024D68
  6725 0001:00024D72  6726 0001:00024D82  6728 0001:00024D8D  6729 0001:00024DA1
  6735 0001:00024DA4  6736 0001:00024DAA  6737 0001:00024DAE  6738 0001:00024DB8
  6740 0001:00024DBE  6741 0001:00024DD1  6742 0001:00024DE2  6743 0001:00024DE8
  6745 0001:00024DF6  6750 0001:00024DFC  6751 0001:00024E02  6752 0001:00024E18
  6753 0001:00024E23  6754 0001:00024E2B  6757 0001:00024E32  6758 0001:00024E40
  6759 0001:00024E56  6762 0001:00024E5E  6788 0001:00024ED0  6789 0001:00024EE8
  6790 0001:00024F0F  6793 0001:00024F14  6794 0001:00024F25  6795 0001:00024F2D
  6796 0001:00024F47  6799 0001:00024F4C  6800 0001:00024F53  6801 0001:00024F5F
  6804 0001:00024F64  6805 0001:00024F6B  6806 0001:00024F77  6809 0001:00024F7C
  6810 0001:00024F8B  6811 0001:00024F93  6812 0001:00024FA1  6815 0001:00024FAC
  6813 0001:00024FB4  6816 0001:00024FD0  6818 0001:00024FD6  6819 0001:00024FE3
  6821 0001:00024FE9  6822 0001:00024FF4  6823 0001:00025008  6824 0001:00025011
  6826 0001:0002501A  6829 0001:00025030  6831 0001:00025043  6836 0001:00025048
  6837 0001:0002505A  6838 0001:00025069  6841 0001:00025077  6842 0001:00025084
  6843 0001:00025091  6845 0001:0002509C  6846 0001:000250A9  6847 0001:000250B7
  6848 0001:000250E2  6849 0001:000250E7  6850 0001:000250EC  6851 0001:0002510F
  6849 0001:00025124  6851 0001:0002512A  6848 0001:0002512D  6853 0001:00025133
  6856 0001:0002514A  6857 0001:00025152  6859 0001:0002515F  6864 0001:00025168
  6867 0001:00025173  6868 0001:0002517C  6870 0001:00025182  6871 0001:0002518A
  6872 0001:00025198  6874 0001:000251B0  6876 0001:000251C0  6878 0001:000251D4
  6865 0001:000251DC  6880 0001:000251E5  6887 0001:000251EC  6888 0001:000251F8
  6889 0001:00025201  6892 0001:00025227  6893 0001:0002522F  6913 0001:00025234
  6914 0001:0002525B  6915 0001:00025265  6916 0001:0002526F  6917 0001:00025274
  6918 0001:0002527E  6919 0001:00025288  6920 0001:00025292  6921 0001:0002529C
  6922 0001:000252A6  6923 0001:000252B1  6924 0001:000252BB  6925 0001:00025304
  6895 0001:00025308  6896 0001:00025315  6897 0001:0002531A  6898 0001:00025324
  6899 0001:0002532E  6900 0001:0002533A  6901 0001:00025346  6902 0001:00025352
  6903 0001:00025363  6904 0001:00025368  6905 0001:0002537D  6906 0001:00025392
  6907 0001:000253A7  6908 0001:000253B8  6909 0001:000253C9  6910 0001:000253DA
  6911 0001:000253EE  6912 0001:00025402

Line numbers for Math(Math.pas) segment .text

  1099 0001:00025404  1100 0001:00025410  1101 0001:00025418  1103 0001:00025420
  1104 0001:00025429  1159 0001:00025430  1160 0001:0002543C  1161 0001:00025444
  1163 0001:0002544C  1164 0001:00025455  2166 0001:0002548C  2166 0001:00025493

Line numbers for Contnrs(Contnrs.pas) segment .text

   242 0001:000255C4   243 0001:000255DC   244 0001:000255E6   245 0001:00025608
   281 0001:0002560C   282 0001:00025618   283 0001:00025629   291 0001:00025630
   292 0001:0002563F   293 0001:0002564D   301 0001:00025654   302 0001:00025663
   303 0001:0002566C   304 0001:00025672   305 0001:0002567A   306 0001:00025688
   479 0001:0002568C   480 0001:00025695   481 0001:000256A3   484 0001:000256A8
   485 0001:000256B4   486 0001:000256BE   487 0001:000256C7   495 0001:000256CC
   496 0001:000256E4   497 0001:000256EE   498 0001:0002571B   501 0001:00025720
   502 0001:00025731   503 0001:0002573C   504 0001:00025758   507 0001:0002575C
   508 0001:00025765   509 0001:00025780   512 0001:00025784   513 0001:0002578D
   514 0001:00025798   515 0001:000257B0   520 0001:000257B4   521 0001:000257C0
   522 0001:000257CE   799 0001:00025804   799 0001:0002580B

Line numbers for CommCtrl(CommCtrl.pas) segment .text

  7356 0001:0002580C  7357 0001:00025814  7358 0001:0002581C  7360 0001:00025824
  7361 0001:0002582C  7362 0001:00025834  7363 0001:0002583C  7367 0001:00025844
  7368 0001:00025850  7369 0001:00025865  7376 0001:0002586C  7380 0001:00025874
  7382 0001:0002587C  7388 0001:00025884  7389 0001:0002588C  7390 0001:00025894
  7391 0001:0002589C  7392 0001:000258A4  7393 0001:000258AC  7394 0001:000258B4
  7395 0001:000258BC  7416 0001:000258C4  7417 0001:000258CC  7419 0001:000258D4
  7420 0001:000258DC  8860 0001:00025914  8860 0001:0002591B

Line numbers for MultiMon(MultiMon.pas) segment .text

   211 0001:0002591C   212 0001:00025941   213 0001:00025946   215 0001:00025958
   217 0001:00025961   219 0001:00025970   220 0001:00025987   221 0001:00025990
   223 0001:00025998   224 0001:000259B1   225 0001:000259B6   226 0001:000259BC
   227 0001:000259C4   228 0001:000259CA   229 0001:000259D1   231 0001:000259FD
   234 0001:00025A1C   235 0001:00025A20   237 0001:00025A29   238 0001:00025A40
   239 0001:00025A4D   242 0001:00025A4F   243 0001:00025A56   246 0001:00025A6C
   249 0001:00025A75   251 0001:00025A7C   253 0001:00025A83   255 0001:00025A8A
   256 0001:00025A90   257 0001:00025A9F   260 0001:00025AC0   261 0001:00025AC4
   263 0001:00025ACD   264 0001:00025AE4   265 0001:00025AF5   268 0001:00025AF7
   269 0001:00025AFC   274 0001:00025B37   275 0001:00025B41   280 0001:00025B60
   281 0001:00025B66   283 0001:00025B6F   284 0001:00025B86   285 0001:00025B97
   288 0001:00025B99   289 0001:00025BA3   292 0001:00025BAC   293 0001:00025BB9
   295 0001:00025BC8   296 0001:00025BD5   298 0001:00025BE8   301 0001:00025C0C
   302 0001:00025C10   304 0001:00025C19   305 0001:00025C30   306 0001:00025C43
   309 0001:00025C45   310 0001:00025C4A   315 0001:00025C7A   316 0001:00025C84
   321 0001:00025CA8   322 0001:00025CB0   324 0001:00025CB9   325 0001:00025CD0
   326 0001:00025CE1   329 0001:00025CE6   330 0001:00025CEA   334 0001:00025D18
   335 0001:00025D20   336 0001:00025D28   337 0001:00025D36   338 0001:00025D44
   339 0001:00025D51   340 0001:00025D5B   341 0001:00025D63   342 0001:00025D74
   344 0001:00025D7B   348 0001:00025DA4   349 0001:00025DAC   351 0001:00025DB5
   352 0001:00025DCC   353 0001:00025DDD   356 0001:00025DE2   357 0001:00025DE6
   361 0001:00025E14   362 0001:00025E1C   363 0001:00025E24   364 0001:00025E32
   365 0001:00025E40   366 0001:00025E4D   367 0001:00025E57   368 0001:00025E5F
   369 0001:00025E70   371 0001:00025E77   375 0001:00025EA0   376 0001:00025EA8
   378 0001:00025EB1   379 0001:00025EC8   380 0001:00025ED9   383 0001:00025EDE
   384 0001:00025EE2   388 0001:00025F10   389 0001:00025F18   390 0001:00025F20
   391 0001:00025F2E   392 0001:00025F3C   393 0001:00025F49   394 0001:00025F53
   395 0001:00025F5B   396 0001:00025F6C   398 0001:00025F73   406 0001:00025F9C
   407 0001:00025FA2   409 0001:00025FAB   410 0001:00025FC2   411 0001:00025FDB
   414 0001:00025FE0   415 0001:00025FE4   417 0001:00025FEE   418 0001:00025FF3
   419 0001:00025FF8   420 0001:00026003   422 0001:0002600E   424 0001:00026014
   425 0001:00026024   426 0001:00026039   427 0001:0002604E   431 0001:0002607E
   432 0001:00026088   435 0001:0002608A   438 0001:000260A5   439 0001:000260A9
   441 0001:000260AB   442 0001:000260C5   445 0001:000260E8   446 0001:000260EB
   447 0001:000260FA   448 0001:00026104   449 0001:0002610E   450 0001:00026118
   451 0001:00026122   452 0001:0002612C   453 0001:00026136   454 0001:00026140
   455 0001:0002614A   457 0001:00026188   458 0001:00026194   460 0001:00026199

Line numbers for Imm(Imm.pas) segment .text

   888 0001:000261CC   888 0001:000261D3

Line numbers for HelpIntfs(HelpIntfs.pas) segment .text

   245 0001:00026404   262 0001:00026598   263 0001:000265C2   264 0001:000265CB
   266 0001:000265DC   267 0001:000265F7   268 0001:0002661C   271 0001:00026620
   272 0001:00026634   273 0001:0002663D   275 0001:0002664E   276 0001:00026668
   277 0001:00026670   282 0001:00026684   283 0001:0002669F   284 0001:000266C8
   289 0001:000266CC   290 0001:000266E4   291 0001:000266EE   292 0001:00026700
   293 0001:00026712   294 0001:00026724   295 0001:0002672F   296 0001:00026754
   303 0001:00026758   305 0001:0002677E   306 0001:00026790   307 0001:0002679C
   308 0001:000267B3   311 0001:000267C1   313 0001:000267DC   314 0001:000267EE
   315 0001:000267FA   319 0001:00026811   321 0001:0002682C   322 0001:0002683E
   323 0001:0002684A   326 0001:00026861   327 0001:00026867   328 0001:000268A3
   331 0001:000268B8   333 0001:000268C1   332 0001:000268DE   334 0001:000268EA
   335 0001:000268F5   336 0001:00026900   337 0001:0002690B   342 0001:00026910
   346 0001:00026919   347 0001:00026932   346 0001:0002694B   348 0001:00026950
   355 0001:00026954   358 0001:00026971   360 0001:0002697D   361 0001:0002699A
   364 0001:000269B4   366 0001:000269C1   367 0001:000269D0   369 0001:000269DE
   371 0001:000269F7   372 0001:00026A08   373 0001:00026A17   374 0001:00026A33
   369 0001:00026A36   378 0001:00026A3B   380 0001:00026A46   381 0001:00026A51
   382 0001:00026A62   386 0001:00026A77   389 0001:00026A96   393 0001:00026AA6
   396 0001:00026ACB   400 0001:00026AE2   401 0001:00026B15   409 0001:00026B1C
   410 0001:00026B45   411 0001:00026B49   412 0001:00026B4F   415 0001:00026B5D
   418 0001:00026B6D   420 0001:00026B79   421 0001:00026B91   428 0001:00026BBD
   429 0001:00026BD5   433 0001:00026C32   449 0001:00026C4C   451 0001:00026C72
   452 0001:00026C77   456 0001:00026C7C   457 0001:00026C82   463 0001:00026C90
   465 0001:00026CA0   467 0001:00026CB9   468 0001:00026CD5   470 0001:00026CDB
   471 0001:00026CE1   473 0001:00026CE4   465 0001:00026CE7   476 0001:00026CEC
   477 0001:00026CF2   480 0001:00026D1D   481 0001:00026D23   484 0001:00026D3C
   486 0001:00026D46   493 0001:00026D55   495 0001:00026D72   496 0001:00026D83
   497 0001:00026D94   499 0001:00026D9A   500 0001:00026DAB   501 0001:00026DC3
   500 0001:00026DE2   502 0001:00026DE7   504 0001:00026DEF   493 0001:00026DF2
   506 0001:00026DFB   508 0001:00026E04   511 0001:00026E0F   515 0001:00026E20
   517 0001:00026E26   518 0001:00026E34   519 0001:00026E42   528 0001:00026E52
   529 0001:00026E5F   530 0001:00026E6C   533 0001:00026E7A   536 0001:00026EA7
   542 0001:00026EAC   543 0001:00026ED5   544 0001:00026EDB   547 0001:00026EE9
   548 0001:00026EF5   557 0001:00026F0D   559 0001:00026F26   560 0001:00026F3F
   562 0001:00026F61   563 0001:00026F7F   565 0001:00026F81   557 0001:00026F84
   567 0001:00026FB9   570 0001:00026FD0   571 0001:00026FD7   572 0001:00026FDF
   578 0001:00026FE4   579 0001:0002700D   580 0001:00027013   582 0001:00027021
   583 0001:0002702D   589 0001:00027045   591 0001:0002705E   592 0001:00027077
   594 0001:00027096   595 0001:000270B1   597 0001:000270B3   589 0001:000270B6
   599 0001:000270EB   602 0001:00027100   603 0001:00027122   604 0001:0002712B
   605 0001:00027136   606 0001:00027161   610 0001:00027168   611 0001:0002718D
   612 0001:000271A1   614 0001:000271B6   616 0001:000271C6   618 0001:000271D0
   620 0001:000271DA   622 0001:000271F1   623 0001:00027215   628 0001:0002721C
   629 0001:00027225   630 0001:00027231   633 0001:00027238   634 0001:00027244
   635 0001:00027252   640 0001:00027258   641 0001:00027264   643 0001:00027276
   644 0001:0002728C   645 0001:0002729A   641 0001:0002729D   646 0001:000272A3
   648 0001:000272B5   649 0001:000272CB   650 0001:000272D9   646 0001:000272DC
   651 0001:000272E2   653 0001:000272F4   654 0001:0002730A   655 0001:00027318
   651 0001:0002731B   656 0001:00027321   659 0001:00027328   660 0001:00027339
   661 0001:00027341   662 0001:0002734A   663 0001:00027355   664 0001:00027360
   665 0001:0002736B   666 0001:00027376   667 0001:00027392   671 0001:00027398
   672 0001:000273BA   673 0001:000273D6   669 0001:000273D8   670 0001:000273E2

Line numbers for WinSpool(WinSpool.pas) segment .text

  1874 0001:00027414  1874 0001:0002741B

Line numbers for Printers(Printers.pas) segment .text

   919 0001:0002741C   920 0001:00027454   916 0001:00027458   918 0001:00027462

Line numbers for FlatSB(FlatSB.pas) segment .text

    74 0001:00027464    75 0001:00027468    77 0001:0002749B    80 0001:000274A0
    81 0001:000274A4    82 0001:000274CB    99 0001:000274D0   104 0001:000274D4
   106 0001:000274E1   108 0001:000274EB   109 0001:000274FE   110 0001:00027511
   111 0001:00027524   112 0001:00027537   113 0001:0002754A   114 0001:00027553
   115 0001:0002755D   116 0001:00027570   117 0001:00027579   118 0001:00027583
   119 0001:00027596   120 0001:0002759F   121 0001:000275A9   122 0001:000275BC
   123 0001:000275C5   124 0001:000275CF   125 0001:000275E2   126 0001:000275EB
   127 0001:000275F5   128 0001:00027608   129 0001:00027611   130 0001:0002761B
   131 0001:0002762E   132 0001:00027637   133 0001:00027641   134 0001:00027654
   135 0001:0002765D   137 0001:00027667   139 0001:000277BC   140 0001:000277C8
   142 0001:000277CD

Line numbers for SyncObjs(SyncObjs.pas) segment .text

    88 0001:0002789C    89 0001:000278A3    92 0001:000278A8    93 0001:000278AF
   194 0001:000278B4   195 0001:000278CC   196 0001:000278D6   197 0001:000278FD
   200 0001:00027904   201 0001:00027915   202 0001:00027921   203 0001:0002793D
   206 0001:00027944   207 0001:0002794B   208 0001:00027957   211 0001:0002795C
   212 0001:00027963   213 0001:0002796F   216 0001:00027974   217 0001:0002797B
   218 0001:00027982   221 0001:00027988   222 0001:0002798F   223 0001:00027997
   225 0001:000279CC   225 0001:000279D3

Line numbers for UxTheme(UxTheme.pas) segment .text

  2445 0001:000279D4  2446 0001:000279D7  2447 0001:000279E1  2448 0001:000279EF
  2449 0001:000279F8  2451 0001:000279FE  2453 0001:00027A18  2454 0001:00027A23
  2456 0001:00027A2A  2457 0001:00027A31  2458 0001:00027A38  2459 0001:00027A3F
  2460 0001:00027A46  2461 0001:00027A4D  2462 0001:00027A54  2463 0001:00027A5B
  2464 0001:00027A62  2465 0001:00027A69  2466 0001:00027A70  2467 0001:00027A77
  2468 0001:00027A7E  2469 0001:00027A85  2470 0001:00027A8C  2471 0001:00027A93
  2472 0001:00027A9A  2473 0001:00027AA1  2474 0001:00027AA8  2475 0001:00027AAF
  2476 0001:00027AB6  2477 0001:00027ABD  2478 0001:00027AC4  2479 0001:00027ACB
  2480 0001:00027AD2  2481 0001:00027AD9  2482 0001:00027AE0  2483 0001:00027AE7
  2484 0001:00027AEE  2485 0001:00027AF5  2486 0001:00027AFC  2487 0001:00027B03
  2488 0001:00027B0A  2489 0001:00027B11  2490 0001:00027B18  2491 0001:00027B1F
  2492 0001:00027B26  2493 0001:00027B2D  2494 0001:00027B34  2495 0001:00027B3B
  2496 0001:00027B42  2497 0001:00027B49  2498 0001:00027B50  2499 0001:00027B57
  2500 0001:00027B5E  2501 0001:00027B65  2502 0001:00027B6C  2505 0001:00027B80
  2507 0001:00027B92  2510 0001:00027B94  2511 0001:00027B98  2512 0001:00027BA2
  2513 0001:00027BB0  2515 0001:00027BB6  2517 0001:00027BC3  2518 0001:00027BD2
  2520 0001:00027BDF  2521 0001:00027BF4  2522 0001:00027C09  2523 0001:00027C1E
  2524 0001:00027C33  2525 0001:00027C48  2526 0001:00027C5D  2527 0001:00027C72
  2528 0001:00027C87  2529 0001:00027C9C  2530 0001:00027CB1  2531 0001:00027CC6
  2532 0001:00027CDB  2533 0001:00027CF0  2534 0001:00027D05  2535 0001:00027D1A
  2536 0001:00027D2F  2537 0001:00027D44  2538 0001:00027D59  2539 0001:00027D6E
  2540 0001:00027D83  2541 0001:00027D98  2542 0001:00027DAD  2543 0001:00027DC2
  2544 0001:00027DD7  2545 0001:00027DEC  2546 0001:00027E01  2547 0001:00027E16
  2548 0001:00027E2B  2549 0001:00027E40  2550 0001:00027E55  2551 0001:00027E6A
  2552 0001:00027E7F  2553 0001:00027E94  2554 0001:00027EA9  2555 0001:00027EBE
  2556 0001:00027ED3  2557 0001:00027EE8  2558 0001:00027EFD  2559 0001:00027F12
  2560 0001:00027F27  2561 0001:00027F3C  2562 0001:00027F51  2563 0001:00027F66
  2564 0001:00027F7B  2565 0001:00027F90  2566 0001:00027FA5  2569 0001:00027FBA
  2571 0001:00027FD2  2573 0001:00027FE7  2576 0001:0002838C  2577 0001:00028390
  2578 0001:00028399  2580 0001:000283B8  2581 0001:000283BF  2586 0001:000283C4
  2587 0001:000283E6  2586 0001:000283EB  2588 0001:000283F4  2589 0001:00028413
  2583 0001:00028418  2584 0001:00028424  2585 0001:00028435

Line numbers for RichEdit(RichEdit.pas) segment .text

  1206 0001:00028468  1206 0001:0002846F

Line numbers for ToolWin(ToolWin.pas) segment .text

   389 0001:000284A0   389 0001:000284A7

Line numbers for ShellAPI(ShellAPI.pas) segment .text

   675 0001:000284D8   675 0001:000284DF

Line numbers for RegStr(RegStr.pas) segment .text

  1870 0001:00028510  1870 0001:00028517

Line numbers for WinInet(WinInet.pas) segment .text

  3051 0001:00028548  3051 0001:0002854F

Line numbers for UrlMon(UrlMon.pas) segment .text

  1884 0001:00028580  1884 0001:00028587

Line numbers for ShlObj(ShlObj.pas) segment .text

  3559 0001:000285B8  3559 0001:000285BF

Line numbers for CommDlg(CommDlg.pas) segment .text

  1044 0001:000285F0  1044 0001:000285F7

Line numbers for Dlgs(Dlgs.pas) segment .text

   396 0001:00028628   396 0001:0002862F

Line numbers for Dialogs(Dialogs.pas) segment .text

   489 0001:0002879C   490 0001:000287B7   491 0001:000287C4   493 0001:000287CB
   498 0001:000287FA   501 0001:00028800   503 0001:00028811   508 0001:00028825
   509 0001:00028841   512 0001:00028848   513 0001:00028854   514 0001:00028858
   516 0001:0002886E   517 0001:00028880   519 0001:00028887   522 0001:0002888C
   523 0001:00028898   524 0001:000288A1   526 0001:000288D0   527 0001:000288DB
   530 0001:000288E0   531 0001:000288EF   532 0001:000288FD   534 0001:00028917
   536 0001:0002892B   539 0001:00028934   540 0001:00028940   541 0001:0002894B
   544 0001:00028950   545 0001:0002895D   546 0001:00028968   547 0001:00028974
   550 0001:0002897C   552 0001:00028989   554 0001:00028995   555 0001:0002899D
   558 0001:000289A4   559 0001:000289B0   560 0001:000289BB   561 0001:000289C3
   571 0001:000289C8   572 0001:000289D7   573 0001:000289DF   574 0001:000289E9
   575 0001:000289F1   576 0001:000289FF   579 0001:00028A15   581 0001:00028A18
   582 0001:00028A26   583 0001:00028A2E   586 0001:00028A45   587 0001:00028A47
   589 0001:00028A4A   592 0001:00028A75   593 0001:00028A7D   594 0001:00028A86
   596 0001:00028A99   599 0001:00028AA0   600 0001:00028AA8   601 0001:00028ABE
   604 0001:00028AC4   605 0001:00028ACC   606 0001:00028AE2  2252 0001:00028B8C
  2253 0001:00028B92  2254 0001:00028BA1  2255 0001:00028BB0  2257 0001:00028BE6
  2265 0001:00028CDC  2266 0001:00028D35  2259 0001:00028D38  2260 0001:00028D4E
  2261 0001:00028D53  2262 0001:00028D5D  2263 0001:00028D67  2264 0001:00028D77

Line numbers for ExtCtrls(ExtCtrls.pas) segment .text

  1577 0001:00028E90  1578 0001:00028EAB  1579 0001:00028EB8  1580 0001:00028EBF
  1582 0001:00028EC9  1587 0001:00028EF8  1590 0001:00028EFC  1591 0001:00028F0D
  1592 0001:00028F14  1594 0001:00028F1C  1599 0001:00028F27  1600 0001:00028F43
  1603 0001:00028F48  1605 0001:00028F57  1606 0001:00028F62  1607 0001:00028F70
  1609 0001:00028F8B  1612 0001:00028FA1  1613 0001:00028FC7  1616 0001:00028FD0
  1617 0001:00028FEC  1618 0001:00028FFA  1619 0001:00029016  1620 0001:00029031
  1621 0001:0002906F  1624 0001:00029074  1625 0001:00029080  1627 0001:0002908B
  1628 0001:00029094  1630 0001:0002909C  1633 0001:000290A0  1634 0001:000290AC
  1636 0001:000290B7  1637 0001:000290C0  1639 0001:000290C8  1642 0001:000290CC
  1643 0001:000290D3  1644 0001:000290E2  1645 0001:000290EA  1648 0001:000290F0
  1649 0001:000290F8  1650 0001:0002910E  5214 0001:00029408  5214 0001:0002944B
  5208 0001:00029450  5209 0001:00029463  5210 0001:0002946D  5212 0001:0002947D

Line numbers for ComStrs(ComStrs.pas) segment .text

    61 0001:000294B0    61 0001:000294B7

Line numbers for Clipbrd(Clipbrd.pas) segment .text

   529 0001:000294B8   530 0001:000294F0   523 0001:000294F4   525 0001:00029500
   526 0001:00029510   527 0001:00029520   528 0001:00029527

Line numbers for StrUtils(StrUtils.pas) segment .text

   715 0001:00029580   715 0001:00029587

Line numbers for Buttons(Buttons.pas) segment .text

  1812 0001:00029588  1813 0001:0002958C  1814 0001:00029590  1813 0001:000295A4
  1815 0001:000295AA  1840 0001:0002962C  1841 0001:0002965F  1837 0001:00029664
  1838 0001:00029677  1839 0001:00029688

Line numbers for ExtDlgs(ExtDlgs.pas) segment .text

   282 0001:000296BC   282 0001:000296C3

Line numbers for IniFiles(IniFiles.pas) segment .text

   945 0001:00029724   945 0001:0002972B

Line numbers for Registry(Registry.pas) segment .text

  1475 0001:0002978C  1475 0001:00029793

Line numbers for Mapi(Mapi.pas) segment .text

   596 0001:000297A8   597 0001:000297F4   594 0001:000297F8   595 0001:00029802

Line numbers for ExtActns(ExtActns.pas) segment .text

  1365 0001:00029804  1366 0001:0002982F  1368 0001:0002984F  1362 0001:00029854
  1363 0001:0002985E

Line numbers for ListActns(ListActns.pas) segment .text

   724 0001:00029890   724 0001:00029897

Line numbers for ComCtrls(ComCtrls.pas) segment .text

  4056 0001:00029938  4061 0001:0002993C  4062 0001:00029945  4063 0001:00029954
  4065 0001:0002995F 10998 0001:0002997C 10999 0001:0002998C 11000 0001:000299A0
 11003 0001:000299A8 11004 0001:000299B8 11005 0001:000299CC 22892 0001:000299D4
 22893 0001:00029A01 22894 0001:00029A4A 22889 0001:00029A4C 22891 0001:00029A56

Line numbers for Themes(Themes.pas) segment .text

   488 0001:00029C80   489 0001:00029C84   490 0001:00029C8D   491 0001:00029C9C
   492 0001:00029CA7   496 0001:00029CAC   497 0001:00029CC4   498 0001:00029CCF
   499 0001:00029CE2   500 0001:00029D05   504 0001:00029D0C   505 0001:00029D1D
   506 0001:00029D25   507 0001:00029D2A   508 0001:00029D46   511 0001:00029D4C
   512 0001:00029D58   513 0001:00029D70   514 0001:00029D94   515 0001:00029DA6
   518 0001:00029DAC   519 0001:00029DB5   520 0001:00029DDC   523 0001:00029DE0
   524 0001:00029DE8   525 0001:00029DF2   526 0001:00029DFE   531 0001:00029E04
   532 0001:00029E0D   533 0001:00029E11   535 0001:00029E20   536 0001:00029E36
   537 0001:00029E44   532 0001:00029E47   538 0001:00029E4D   541 0001:00029E54
   542 0001:00029E5B   543 0001:00029E63   544 0001:00029E6A   564 0001:00029E70
   565 0001:00029E86   567 0001:00029EB7   571 0001:00029EC0   572 0001:00029ED6
   574 0001:00029EFF   587 0001:00029F08   588 0001:00029F17   590 0001:00029F23
   591 0001:00029F29   594 0001:00029F59   595 0001:00029F5D   596 0001:00029F63
   597 0001:00029F78   692 0001:00029F80   693 0001:00029F8F   696 0001:00029F95
   699 0001:00029FA2   700 0001:00029FAC   704 0001:00029FB5   705 0001:00029FBF
   708 0001:00029FC8   709 0001:00029FD0   711 0001:00029FD5   713 0001:00029FE4
  1563 0001:00029FE8  1564 0001:00029FF7  1567 0001:00029FFD  1570 0001:0002A119
  1571 0001:0002A123  1575 0001:0002A12F  1576 0001:0002A139  1580 0001:0002A145
  1581 0001:0002A14F  1585 0001:0002A15B  1586 0001:0002A165  1590 0001:0002A171
  1591 0001:0002A17B  1595 0001:0002A187  1596 0001:0002A191  1600 0001:0002A19D
  1601 0001:0002A1A7  1605 0001:0002A1B3  1606 0001:0002A1BD  1610 0001:0002A1C9
  1611 0001:0002A1D3  1615 0001:0002A1DF  1616 0001:0002A1E9  1620 0001:0002A1F5
  1621 0001:0002A1FF  1625 0001:0002A20B  1626 0001:0002A215  1630 0001:0002A221
  1631 0001:0002A22B  1635 0001:0002A237  1636 0001:0002A241  1640 0001:0002A24D
  1641 0001:0002A257  1645 0001:0002A263  1646 0001:0002A26D  1650 0001:0002A279
  1651 0001:0002A283  1655 0001:0002A28F  1656 0001:0002A299  1660 0001:0002A2A5
  1661 0001:0002A2AF  1665 0001:0002A2BB  1666 0001:0002A2C5  1670 0001:0002A2D1
  1671 0001:0002A2DB  1675 0001:0002A2E7  1676 0001:0002A2F1  1680 0001:0002A2FD
  1681 0001:0002A307  1685 0001:0002A313  1686 0001:0002A31D  1690 0001:0002A329
  1691 0001:0002A333  1695 0001:0002A33F  1696 0001:0002A349  1700 0001:0002A355
  1701 0001:0002A35F  1705 0001:0002A36B  1706 0001:0002A375  1710 0001:0002A381
  1711 0001:0002A38B  1715 0001:0002A397  1716 0001:0002A3A1  1720 0001:0002A3AD
  1721 0001:0002A3B7  1725 0001:0002A3C0  1726 0001:0002A3CA  1730 0001:0002A3D3
  1731 0001:0002A3DD  1735 0001:0002A3E6  1736 0001:0002A3F0  1740 0001:0002A3F9
  1741 0001:0002A403  1745 0001:0002A40C  1746 0001:0002A416  1750 0001:0002A41F
  1751 0001:0002A429  1754 0001:0002A432  1755 0001:0002A43A  1757 0001:0002A43F
  1759 0001:0002A44E  1776 0001:0002A454  1779 0001:0002A465  1780 0001:0002A478
  1782 0001:0002A482  1783 0001:0002A494  1784 0001:0002A4A9  1785 0001:0002A4BA
  1786 0001:0002A4C8  1787 0001:0002A4D2  1789 0001:0002A4D8  1790 0001:0002A4EB
  1792 0001:0002A4F7  1793 0001:0002A501  1794 0001:0002A50B  1795 0001:0002A518
  1797 0001:0002A53E  1800 0001:0002A553  1802 0001:0002A578  1803 0001:0002A585
  1805 0001:0002A5A6  1809 0001:0002A5C0  1812 0001:0002A5C8  1813 0001:0002A5CF
  1814 0001:0002A5D8  1815 0001:0002A5E0  1816 0001:0002A5EB  1820 0001:0002A5F0
  1821 0001:0002A632  1818 0001:0002A634  1819 0001:0002A63E

Line numbers for StdCtrls(StdCtrls.pas) segment .text

  1656 0001:0002BD40  1657 0001:0002BD5B  1658 0001:0002BD68  1659 0001:0002BD72
  1660 0001:0002BD80  1661 0001:0002BD8C  1662 0001:0002BD99  1663 0001:0002BDA6
  1664 0001:0002BDB0  1665 0001:0002BDBA  1666 0001:0002BDC4  1667 0001:0002BDCE
  1668 0001:0002BDD8  1669 0001:0002BDE2  1670 0001:0002BE05  1673 0001:0002BE14
  1674 0001:0002BE20  1675 0001:0002BE39  1678 0001:0002BE40  1679 0001:0002BE4C
  1681 0001:0002BE5A  1682 0001:0002BE66  1684 0001:0002BE6E  1687 0001:0002BE74
  1688 0001:0002BE80  1690 0001:0002BE8E  1691 0001:0002BE9A  1692 0001:0002BEA2
  1694 0001:0002BEAA  1706 0001:0002BEB0  1707 0001:0002BEBC  1709 0001:0002BECA
  1710 0001:0002BED6  1712 0001:0002BEDE  1715 0001:0002BEE4  1716 0001:0002BEF0
  1718 0001:0002BEFE  1719 0001:0002BF0A  1721 0001:0002BF24  1724 0001:0002BF28
  1725 0001:0002BF34  1727 0001:0002BF42  1728 0001:0002BF4E  1730 0001:0002BF56
  1733 0001:0002BF5C  1734 0001:0002BF65  1735 0001:0002BF71  1736 0001:0002BF9D
  1745 0001:0002BFA4  1746 0001:0002BFB0  1747 0001:0002BFBC  1748 0001:0002BFD9
  1749 0001:0002BFE5  1765 0001:0002BFEC  1766 0001:0002BFF8  1768 0001:0002C006
  1769 0001:0002C012  1770 0001:0002C01E  1772 0001:0002C039  1775 0001:0002C040
  1776 0001:0002C049  1777 0001:0002C065  1780 0001:0002C06C  1781 0001:0002C078
  1782 0001:0002C093  1787 0001:0002C098  1788 0001:0002C0A1  1789 0001:0002C0BC
  1790 0001:0002C0C8  1795 0001:0002C0CC  1796 0001:0002C0D8  1797 0001:0002C0F3
  1798 0001:0002C0FC  1799 0001:0002C117  1800 0001:0002C12E  1803 0001:0002C134
  1804 0001:0002C13B  1805 0001:0002C14E  1838 0001:0002C158  1839 0001:0002C15F
  1840 0001:0002C176  1846 0001:0002C17C  1847 0001:0002C18B  1848 0001:0002C199
  1849 0001:0002C1A7  1850 0001:0002C1B8  1851 0001:0002C1C6  1852 0001:0002C1DB
  1853 0001:0002C1EA  1855 0001:0002C208  1857 0001:0002C21B  1868 0001:0002C220
  1869 0001:0002C22C  1870 0001:0002C23A  1871 0001:0002C248  1872 0001:0002C255
  1874 0001:0002C25B  1875 0001:0002C26C  1876 0001:0002C27A  1877 0001:0002C28F
  1879 0001:0002C2B1  1882 0001:0002C2C1  1896 0001:0002C2C8  1897 0001:0002C2D4
  1898 0001:0002C2DF  1901 0001:0002C2EF  1905 0001:0002C36C  1907 0001:0002C38E
  1908 0001:0002C398  1911 0001:0002C3A2  1916 0001:0002C3B0  1917 0001:0002C3C1
  1921 0001:0002C3DF  1922 0001:0002C3F1  1923 0001:0002C3FB  1924 0001:0002C409
  1925 0001:0002C415  1928 0001:0002C42F  1929 0001:0002C43A  1932 0001:0002C440
  1933 0001:0002C447  1934 0001:0002C451  1935 0001:0002C45F  1937 0001:0002C474
  1939 0001:0002C486  1940 0001:0002C49A  1941 0001:0002C4AB  1942 0001:0002C4B7
  1943 0001:0002C4D7  1944 0001:0002C4DF  1947 0001:0002C4E4  1948 0001:0002C4EB
  1949 0001:0002C4FC  1950 0001:0002C504  1953 0001:0002C508  1954 0001:0002C50F
  1956 0001:0002C527  1957 0001:0002C538  1959 0001:0002C543  1960 0001:0002C556
  1968 0001:0002C560  1969 0001:0002C569  1970 0001:0002C573  1971 0001:0002C580
  1972 0001:0002C598  1973 0001:0002C5A5  1974 0001:0002C5B2  1975 0001:0002C5BD
  1977 0001:0002C5C7  1978 0001:0002C5E3  1981 0001:0002C5F2  1982 0001:0002C5F8
  1983 0001:0002C606  1985 0001:0002C622  1986 0001:0002C630  1989 0001:0002C634
  1990 0001:0002C63C  1991 0001:0002C644  1992 0001:0002C663  1995 0001:0002C668
  1996 0001:0002C674  1998 0001:0002C67E  2000 0001:0002C698  2002 0001:0002C6A0
  2003 0001:0002C6AB  2006 0001:0002C6B0  2007 0001:0002C6BC  2008 0001:0002C6C7
  2010 0001:0002C6E5  2011 0001:0002C6FC  2014 0001:0002C700  2015 0001:0002C70C
  2017 0001:0002C722  2018 0001:0002C72A  2020 0001:0002C732  2021 0001:0002C73D
  2024 0001:0002C744  2025 0001:0002C750  2026 0001:0002C75B  2027 0001:0002C776
  2028 0001:0002C77E  2031 0001:0002C784  2032 0001:0002C791  2033 0001:0002C7B4
  2036 0001:0002C7BC  2037 0001:0002C7C8  2038 0001:0002C7F1  2039 0001:0002C7F9
  2040 0001:0002C804  2043 0001:0002C808  2044 0001:0002C815  2045 0001:0002C820
  2046 0001:0002C840  2047 0001:0002C84C  2050 0001:0002C854  2051 0001:0002C860
  2052 0001:0002C86B  2053 0001:0002C876  2058 0001:0002C87C  2059 0001:0002C885
  2060 0001:0002C88A  2062 0001:0002C8A5  2063 0001:0002C8C2  2064 0001:0002C8FC
  2066 0001:0002C902  2071 0001:0002C908  2072 0001:0002C91E  2073 0001:0002C929
  2075 0001:0002C95A  2080 0001:0002C960  2081 0001:0002C96F  2082 0001:0002C98E
  2085 0001:0002C994  2086 0001:0002C9CE  2088 0001:0002C9EF  2094 0001:0002C9F4
  2095 0001:0002CA17  2097 0001:0002CA21  2098 0001:0002CA40  2100 0001:0002CA58
  2101 0001:0002CA78  2102 0001:0002CA7E  2103 0001:0002CA9D  2104 0001:0002CAA3
  2105 0001:0002CAA9  2107 0001:0002CAB9  2108 0001:0002CAD7  2110 0001:0002CB15
  2117 0001:0002CB2C  2118 0001:0002CB38  2119 0001:0002CB57  2121 0001:0002CB61
  2122 0001:0002CB81  2124 0001:0002CBA9  2125 0001:0002CBC7  2127 0001:0002CBE5
  2130 0001:0002CBEC  2131 0001:0002CBF3  2132 0001:0002CC01  2135 0001:0002CC04
  2136 0001:0002CC10  2138 0001:0002CC1F  2139 0001:0002CC3D  2141 0001:0002CC43
  2142 0001:0002CC57  2145 0001:0002CC62  2148 0001:0002CC68  2149 0001:0002CC74
  2150 0001:0002CC82  2155 0001:0002CC88  2156 0001:0002CCA7  2157 0001:0002CCB4
  2159 0001:0002CCE8  2160 0001:0002CD05  2161 0001:0002CD26  2163 0001:0002CD67
  2168 0001:0002CD6C  2169 0001:0002CD87  2170 0001:0002CD94  2171 0001:0002CDA1
  2172 0001:0002CDAE  2173 0001:0002CDB8  2174 0001:0002CDC2  2175 0001:0002CDCC
  2176 0001:0002CDE1  2177 0001:0002CDF0  2178 0001:0002CE18  2181 0001:0002CE1C
  2182 0001:0002CE2D  2183 0001:0002CE3B  2184 0001:0002CE57  2193 0001:0002CE5C
  2194 0001:0002CE69  2195 0001:0002CE74  2200 0001:0002CED1  2203 0001:0002CED8
  2206 0001:0002CEE4  2210 0001:0002CF0E  2213 0001:0002CF6B  2214 0001:0002CF77
  2217 0001:0002CF91  2219 0001:0002CFE9  2221 0001:0002D002  2224 0001:0002D00C
  2225 0001:0002D018  2226 0001:0002D03A  2227 0001:0002D05B  2228 0001:0002D077
  2233 0001:0002D07C  2234 0001:0002D088  2235 0001:0002D0AC  2236 0001:0002D0C7
  2239 0001:0002D0CC  2240 0001:0002D0D5  2241 0001:0002D0E4  2244 0001:0002D0E8
  2245 0001:0002D0EF  2246 0001:0002D0F7  2247 0001:0002D101  2250 0001:0002D104
  2251 0001:0002D110  2253 0001:0002D11E  2254 0001:0002D12A  2256 0001:0002D132
  2259 0001:0002D138  2260 0001:0002D144  2261 0001:0002D155  2264 0001:0002D15C
  2265 0001:0002D168  2267 0001:0002D176  2268 0001:0002D182  2270 0001:0002D18A
  2273 0001:0002D190  2274 0001:0002D19C  2276 0001:0002D1AA  2277 0001:0002D1B6
  2279 0001:0002D1BE  2282 0001:0002D1C4  2283 0001:0002D1D0  2284 0001:0002D1DB
  2285 0001:0002D1F0  2286 0001:0002D1F7  2287 0001:0002D203  2288 0001:0002D20A
  2291 0001:0002D210  2292 0001:0002D21C  2293 0001:0002D227  2296 0001:0002D22C
  2297 0001:0002D238  2298 0001:0002D243  2299 0001:0002D25D  3337 0001:0002D264
  3338 0001:0002D270  3339 0001:0002D27B  3340 0001:0002D28F  3343 0001:0002D294
  3344 0001:0002D29E  3346 0001:0002D2DC  3349 0001:0002D2E4  3350 0001:0002D2F0
  3352 0001:0002D2FC  3353 0001:0002D309  3354 0001:0002D317  3356 0001:0002D335
  3359 0001:0002D34A  3364 0001:0002D350  3365 0001:0002D36B  3366 0001:0002D378
  3367 0001:0002D38D  3368 0001:0002D3B2  3371 0001:0002D3B8  3372 0001:0002D3C7
  3373 0001:0002D3D5  3376 0001:0002D3E7  3377 0001:0002D3FC  3379 0001:0002D40D
  3382 0001:0002D414  3383 0001:0002D41D  3384 0001:0002D428  3387 0001:0002D42C
  3388 0001:0002D435  3389 0001:0002D43C  3397 0001:0002D440  3398 0001:0002D44C
  3401 0001:0002D450  3402 0001:0002D45D  3404 0001:0002D477  3406 0001:0002D490
  3407 0001:0002D49A  3408 0001:0002D4A8  3409 0001:0002D4B2  3412 0001:0002D4C4
  3414 0001:0002D4D0  3415 0001:0002D4DB  3418 0001:0002D4E0  3419 0001:0002D4EC
  3420 0001:0002D4F4  3422 0001:0002D500  3424 0001:0002D51E  3427 0001:0002D52D
  3428 0001:0002D538  3431 0001:0002D53C  3433 0001:0002D548  3434 0001:0002D556
  3436 0001:0002D562  3437 0001:0002D56D  3440 0001:0002D574  3441 0001:0002D580
  3442 0001:0002D58B  3443 0001:0002D597  3444 0001:0002D5A1  3447 0001:0002D5A8
  3448 0001:0002D5B4  3450 0001:0002D5C2  3451 0001:0002D5CE  3453 0001:0002D5D6
  3458 0001:0002D5DC  3459 0001:0002D5F7  3460 0001:0002D604  3461 0001:0002D610
  3462 0001:0002D61D  3463 0001:0002D62A  3464 0001:0002D64F  3469 0001:0002D658
  3470 0001:0002D661  3471 0001:0002D66C  3472 0001:0002D684  3473 0001:0002D68C
  3476 0001:0002D690  3477 0001:0002D699  3478 0001:0002D6A0  3485 0001:0002D6A4
  3486 0001:0002D6B0  3488 0001:0002D6BC  3489 0001:0002D6D0  3490 0001:0002D6EB
  3492 0001:0002D705  3497 0001:0002D70C  3498 0001:0002D718  3499 0001:0002D724
  3501 0001:0002D730  3502 0001:0002D73B  3503 0001:0002D741  3505 0001:0002D75A
  3510 0001:0002D760  3511 0001:0002D76C  3512 0001:0002D777  3513 0001:0002D787
  3514 0001:0002D79E  3517 0001:0002D7AC  3518 0001:0002D7B3  3519 0001:0002D7BB
  3520 0001:0002D7CD  3523 0001:0002D7D0  3524 0001:0002D7DD  3525 0001:0002D7F3
  3528 0001:0002D7F8  3530 0001:0002D805  3534 0001:0002D856  3535 0001:0002D862
  3537 0001:0002D86E  3538 0001:0002D879  3541 0001:0002D884  3543 0001:0002D8A4
  3545 0001:0002D8D2  3546 0001:0002D8DE  3548 0001:0002D8EA  3549 0001:0002D912
  3552 0001:0002D918  3554 0001:0002D924  3555 0001:0002D939  3557 0001:0002D950
  3558 0001:0002D962  3559 0001:0002D976  3560 0001:0002D981  3563 0001:0002D988
  3564 0001:0002D994  3565 0001:0002D9A2  3567 0001:0002D9AE  3568 0001:0002D9B9
  3571 0001:0002D9C0  3572 0001:0002D9CC  3573 0001:0002D9D4  3575 0001:0002D9E0
  3577 0001:0002D9FE  3580 0001:0002DA0D  3581 0001:0002DA18  5126 0001:0002DA4C
  5126 0001:0002DA53

Line numbers for StdActns(StdActns.pas) segment .text

   501 0001:0002DB48   502 0001:0002DB63   503 0001:0002DB70   504 0001:0002DB92
  1199 0001:0002DBC8  1199 0001:0002DBCF

Line numbers for WinHelpViewer(WinHelpViewer.pas) segment .text

   176 0001:0002DBD8   197 0001:0002DD7C   198 0001:0002DDA2   199 0001:0002DDAA
   200 0001:0002DDB9   201 0001:0002DDC9   202 0001:0002DDD4   203 0001:0002DDDA
   204 0001:0002DDE3   206 0001:0002DDF0   207 0001:0002DDF9   208 0001:0002DE1E
   209 0001:0002DE4B   215 0001:0002DE5C   216 0001:0002DE63   217 0001:0002DE6B
   219 0001:0002DE74   220 0001:0002DE85   222 0001:0002DE90   230 0001:0002DE94
   231 0001:0002DEA0   232 0001:0002DEAE   239 0001:0002DEB4   241 0001:0002DED4
   243 0001:0002DEDD   244 0001:0002DEFD   245 0001:0002DF03   247 0001:0002DF0C
   256 0001:0002DF13   262 0001:0002DF3A   270 0001:0002DF40   272 0001:0002DF62
   273 0001:0002DF6B   279 0001:0002DF7D   281 0001:0002DF8C   284 0001:0002DFDF
   291 0001:0002DFF0   292 0001:0002DFF9   293 0001:0002E000   301 0001:0002E004
   302 0001:0002E01E   304 0001:0002E02A   305 0001:0002E031   306 0001:0002E04D
   307 0001:0002E053   310 0001:0002E093   325 0001:0002E098   326 0001:0002E0BD
   327 0001:0002E0D9   328 0001:0002E110   330 0001:0002E11C   331 0001:0002E129
   333 0001:0002E142   334 0001:0002E149   335 0001:0002E157   339 0001:0002E1A9
   366 0001:0002E1F0   367 0001:0002E1FC   368 0001:0002E205   373 0001:0002E20C
   374 0001:0002E213   375 0001:0002E21A   376 0001:0002E22A   379 0001:0002E234
   380 0001:0002E23B   381 0001:0002E243   382 0001:0002E24C   383 0001:0002E257
   384 0001:0002E260   385 0001:0002E26A   396 0001:0002E270   398 0001:0002E290
   404 0001:0002E294   405 0001:0002E29D   406 0001:0002E2DD   416 0001:0002E2E4
   419 0001:0002E30C   421 0001:0002E33A   422 0001:0002E347   424 0001:0002E353
   426 0001:0002E385   427 0001:0002E38C   428 0001:0002E3A2   432 0001:0002E3F0
   441 0001:0002E404   443 0001:0002E427   448 0001:0002E42B   449 0001:0002E434
   450 0001:0002E475   459 0001:0002E47C   460 0001:0002E49F   461 0001:0002E4AD
   463 0001:0002E4B9   465 0001:0002E4D3   466 0001:0002E4DA   467 0001:0002E4E3
   472 0001:0002E520   487 0001:0002E528   488 0001:0002E551   489 0001:0002E555
   491 0001:0002E565   498 0001:0002E59A   500 0001:0002E5BA   501 0001:0002E5BE
   503 0001:0002E5C4   504 0001:0002E5CB   505 0001:0002E5E5   508 0001:0002E63C
   521 0001:0002E644   522 0001:0002E64D   523 0001:0002E662   525 0001:0002E676
   526 0001:0002E67F   528 0001:0002E686   529 0001:0002E698   535 0001:0002E6AC
   536 0001:0002E6B5   537 0001:0002E6CA   539 0001:0002E6DE   540 0001:0002E6E5
   542 0001:0002E6EE   543 0001:0002E700   547 0001:0002E710   549 0001:0002E717
   550 0001:0002E71E   551 0001:0002E725   552 0001:0002E72D   554 0001:0002E73B
   560 0001:0002E740   561 0001:0002E765   562 0001:0002E769   563 0001:0002E771
   564 0001:0002E782   566 0001:0002E78B   568 0001:0002E7A1   570 0001:0002E7CE
   576 0001:0002E7D4   577 0001:0002E7E8   580 0001:0002E7EF   583 0001:0002E7F8
   584 0001:0002E80C   586 0001:0002E817   594 0001:0002E820   596 0001:0002E829
   599 0001:0002E82D   600 0001:0002E835   601 0001:0002E83B   607 0001:0002E855
   610 0001:0002E864   612 0001:0002E87B   613 0001:0002E882   621 0001:0002E888
   629 0001:0002E8A4   630 0001:0002E8AC   633 0001:0002E8B4   634 0001:0002E8BB
   635 0001:0002E8CA   636 0001:0002E8D7   637 0001:0002E8DD   644 0001:0002E918
   649 0001:0002E91C   650 0001:0002E934   651 0001:0002E93E   652 0001:0002E96D
   655 0001:0002E974   656 0001:0002E985   657 0001:0002E98C   658 0001:0002E9A8
   665 0001:0002E9AC   666 0001:0002E9D0   667 0001:0002E9DA   668 0001:0002E9E4
   669 0001:0002EA21   660 0001:0002EA24   661 0001:0002EA3E   662 0001:0002EA4F
   664 0001:0002EA7D

Line numbers for Controls(Controls.pas) segment .text

  1576 0001:00030898  1751 0001:00030A64  1752 0001:00030A68  1753 0001:00030A76
  1755 0001:00030A8D  1757 0001:00030AAE  1758 0001:00030ABD  1759 0001:00030AD4
  1767 0001:00030AEB  1768 0001:00030AEE  1769 0001:00030AF1  1770 0001:00030AF4
  1771 0001:00030AF7  1772 0001:00030AFC  1773 0001:00030B06  1774 0001:00030B0C
  1777 0001:00030B12  1782 0001:00030B18  1783 0001:00030B21  1785 0001:00030B3C
  1787 0001:00030B54  1788 0001:00030B5C  1799 0001:00030B60  1800 0001:00030B69
  1801 0001:00030B6E  1804 0001:00030B8F  1805 0001:00030BA8  1807 0001:00030BBE
  1809 0001:00030BCC  1814 0001:00030BD0  1815 0001:00030BDF  1816 0001:00030BEC
  1817 0001:00030C0D  1818 0001:00030C15  1873 0001:00030DB8  1874 0001:00030DC4
  1875 0001:00030DDC  1878 0001:00030DE0  1879 0001:00030DEC  1880 0001:00030E04
  1885 0001:00030E08  1886 0001:00030E14  1887 0001:00030E24  1888 0001:00030E2A
  1889 0001:00030E37  1890 0001:00030E4C  1895 0001:00030E5C  1896 0001:00030E68
  1897 0001:00030E78  1898 0001:00030E7E  1899 0001:00030E8B  1900 0001:00030EA0
  1918 0001:00030EB0  1919 0001:00030EB4  1920 0001:00030EC1  1921 0001:00030EDD
  1922 0001:00030EE8  1925 0001:00030EEC  1926 0001:00030EF3  1927 0001:00030EF8
  1928 0001:00030EFF  1930 0001:00030F05  1932 0001:00030F17  1933 0001:00030F20
  1934 0001:00030F28  1936 0001:00030F31  1938 0001:00030F3F  1963 0001:00030FAC
  1964 0001:00030FBB  1965 0001:00030FC2  1968 0001:00030FC8  1969 0001:00030FDF
  1970 0001:00030FE5  1966 0001:00030FEA  1972 0001:00030FFA  1979 0001:00031000
  1980 0001:00031006  1981 0001:00031014  1982 0001:0003101A  1984 0001:00031020
  1985 0001:00031026  1982 0001:00031032  1987 0001:0003103B  1992 0001:00031040
  1993 0001:0003104C  1994 0001:00031059  1995 0001:00031061  1996 0001:0003106E
  1997 0001:00031083  1998 0001:00031093  1999 0001:0003109E  2004 0001:000310A4
  2005 0001:000310AD  2006 0001:000310C3  2005 0001:000310DB  2007 0001:000310E0
  2008 0001:000310E8  2014 0001:000310EC  2015 0001:000310F5  2016 0001:000310FA
  2017 0001:00031103  2019 0001:0003111D  2020 0001:00031125  2023 0001:00031133
  2024 0001:00031145  2026 0001:00031158  2021 0001:00031166  2029 0001:00031175
  2061 0001:0003117C  2062 0001:00031188  2063 0001:00031194  2064 0001:000311A0
  2065 0001:000311B2  2066 0001:000311C4  2067 0001:000311D6  2068 0001:000311E8
  2071 0001:000311EC  2076 0001:000311F5  2078 0001:00031206  2079 0001:00031212
  2082 0001:00031218  2083 0001:00031227  2086 0001:00031230  2087 0001:0003123F
  2088 0001:0003125D  2091 0001:00031264  2092 0001:00031270  2097 0001:00031275
  2099 0001:0003127D  2104 0001:00031284  2105 0001:00031293  2106 0001:000312A1
  2109 0001:000312D4  2110 0001:000312E2  2111 0001:000312F1  2114 0001:000312FB
  2116 0001:00031304  2120 0001:0003130D  2123 0001:00031325  2125 0001:00031337
  2129 0001:00031346  2130 0001:00031350  2136 0001:00031366  2137 0001:00031376
  2139 0001:0003138A  2142 0001:00031394  2143 0001:0003139D  2144 0001:000313A5
  2147 0001:000313AC  2148 0001:000313BB  2149 0001:000313C9  2150 0001:000313D3
  2153 0001:000313DC  2155 0001:000313E3  2158 0001:000313E8  2159 0001:000313F1
  2160 0001:000313FC  2163 0001:00031400  2165 0001:00031407  2168 0001:0003140C
  2169 0001:0003141B  2170 0001:00031429  2172 0001:00031443  2174 0001:00031457
  2180 0001:00031460  2181 0001:00031467  2182 0001:0003146F  2183 0001:00031476
  2186 0001:0003147C  2187 0001:00031483  2188 0001:0003148B  2189 0001:00031492
  2202 0001:00031498  2203 0001:000314B3  2204 0001:000314D7  2207 0001:000314DC
  2208 0001:000314E8  2209 0001:000314F3  2210 0001:00031505  2211 0001:00031511
  2214 0001:00031518  2215 0001:00031528  2216 0001:00031541  2219 0001:00031548
  2220 0001:00031559  2222 0001:0003155F  2223 0001:0003156E  2225 0001:00031573
  2226 0001:00031585  2231 0001:00031590  2232 0001:0003159F  2233 0001:000315B5
  2234 0001:000315BF  2237 0001:000315C8  2238 0001:000315D1  2239 0001:000315E2
  2242 0001:000315E8  2243 0001:000315EF  2244 0001:000315FE  2245 0001:0003160E
  2248 0001:00031614  2249 0001:0003161B  2250 0001:0003162A  2251 0001:0003163A
  2256 0001:00031640  2259 0001:00031647  2264 0001:0003164C  2265 0001:00031667
  2266 0001:00031674  2268 0001:00031686  2275 0001:000316BA  2278 0001:000316C0
  2279 0001:000316D1  2280 0001:000316DC  2281 0001:000316F8  2284 0001:000316FC
  2285 0001:0003170A  2286 0001:00031715  2288 0001:00031727  2289 0001:00031733
  2290 0001:0003173F  2291 0001:0003174B  2292 0001:0003175B  2293 0001:0003176B
  2295 0001:0003177C  2303 0001:00031784  2304 0001:00031794  2305 0001:000317AD
  2312 0001:000317B4  2313 0001:000317C0  2314 0001:000317DE  2315 0001:000317E7
  2317 0001:000317EC  2319 0001:00031800  2320 0001:00031816  2321 0001:00031834
  2322 0001:00031839  2323 0001:0003184F  2324 0001:0003186D  2325 0001:00031872
  2326 0001:0003187E  2327 0001:00031896  2330 0001:0003189C  2331 0001:000318A4
  2332 0001:000318B6  2335 0001:000318BC  2336 0001:000318C4  2337 0001:000318D6
  2340 0001:000318DC  2341 0001:000318EB  2342 0001:000318F5  2345 0001:000318FC
  2346 0001:00031905  2347 0001:0003190F  2352 0001:00031914  2355 0001:0003191B
  2371 0001:00031920  2372 0001:00031926  2373 0001:00031931  2376 0001:00031938
  2378 0001:00031941  2379 0001:0003194E  2380 0001:00031964  2382 0001:0003196D
  2384 0001:00031978  2385 0001:0003197D  2387 0001:00031986  2389 0001:00031990
  2390 0001:00031997  2393 0001:000319A1  2395 0001:000319AB  2411 0001:000319B4
  2412 0001:000319BE  2414 0001:000319C2  2415 0001:000319D0  2417 0001:000319E8
  2418 0001:000319F3  2419 0001:000319FF  2420 0001:00031A11  2422 0001:00031A1C
  2425 0001:00031A26  2426 0001:00031A2E  2427 0001:00031A40  2428 0001:00031A4B
  2431 0001:00031A57  2433 0001:00031A63  2434 0001:00031A71  2435 0001:00031A83
  2437 0001:00031A90  2438 0001:00031AA5  2440 0001:00031AB5  2442 0001:00031ABA
  2443 0001:00031ABE  2444 0001:00031ACD  2446 0001:00031AE1  2448 0001:00031AEB
  2449 0001:00031AF8  2451 0001:00031B19  2455 0001:00031B56  2456 0001:00031B6B
  2458 0001:00031B72  2461 0001:00031B78  2462 0001:00031B7C  2463 0001:00031B91
  2465 0001:00031BB9  2466 0001:00031BC0  2468 0001:00031BC4  2469 0001:00031BD6
  2470 0001:00031BDB  2473 0001:00031C0A  2474 0001:00031C14  2476 0001:00031C30
  2477 0001:00031C40  2481 0001:00031C9E  2482 0001:00031CA2  2483 0001:00031CBC
  2484 0001:00031CD5  2486 0001:00031CE2  2474 0001:00031CE5  2487 0001:00031CEE
  2488 0001:00031CF9  2489 0001:00031D06  2490 0001:00031D1A  2491 0001:00031D22
  2496 0001:00031D28  2497 0001:00031D34  2499 0001:00031D3A  2500 0001:00031D54
  2501 0001:00031D64  2503 0001:00031D6A  2506 0001:00031D7F  2509 0001:00031D92
  2517 0001:00031D98  2518 0001:00031DA7  2519 0001:00031DAC  2521 0001:00031DB2
  2522 0001:00031DC0  2523 0001:00031DC6  2524 0001:00031DCC  2525 0001:00031DD9
  2527 0001:00031DF7  2534 0001:00031E00  2535 0001:00031E09  2536 0001:00031E0D
  2539 0001:00031E2E  2540 0001:00031E47  2542 0001:00031E60  2544 0001:00031E71
  2547 0001:00031E78  2548 0001:00031E81  2549 0001:00031E91  2550 0001:00031E97
  2549 0001:00031EAF  2552 0001:00031EB8  2556 0001:00031EBC  2557 0001:00031ECB
  2559 0001:00031ED1  2560 0001:00031EDE  2563 0001:00031EFB  2564 0001:00031F09
  2565 0001:00031F0F  2567 0001:00031F1F  2570 0001:00031F28  2571 0001:00031F2F
  2572 0001:00031F33  2573 0001:00031F3E  2575 0001:00031F72  2584 0001:00031F78
  2585 0001:00031F7E  2586 0001:00031F83  2587 0001:00031F8E  2592 0001:00031FEA
  2595 0001:00031FFE  2596 0001:00032012  2598 0001:00032018  2599 0001:00032026
  2602 0001:00032028  2593 0001:00032031  2604 0001:00032042  2611 0001:00032048
  2612 0001:00032054  2615 0001:00032096  2616 0001:000320B5  2617 0001:000320C7
  2618 0001:000320E4  2620 0001:000320F2  2621 0001:000320F9  2624 0001:000320FF
  2625 0001:0003210A  2627 0001:00032111  2629 0001:0003211E  2630 0001:00032125
  2631 0001:00032132  2632 0001:0003213D  2633 0001:00032148  2634 0001:0003215B
  2635 0001:00032162  2637 0001:0003216F  2638 0001:00032182  2639 0001:0003218D
  2640 0001:000321B1  2642 0001:000321D4  2644 0001:000321DD  2646 0001:000321EC
  2647 0001:000321FA  2648 0001:00032205  2649 0001:00032224  2652 0001:0003223B
  2653 0001:00032245  2656 0001:0003225B  2657 0001:00032271  2661 0001:0003227E
  2662 0001:00032284  2664 0001:000322A9  2665 0001:000322B9  2666 0001:000322C4
  2669 0001:000322E8  2672 0001:00032318  2674 0001:00032321  2676 0001:0003233F
  2677 0001:0003234F  2678 0001:00032359  2682 0001:0003236E  2685 0001:00032378
  2686 0001:00032387  2687 0001:0003238F  2688 0001:00032399  2689 0001:000323A3
  2690 0001:000323BA  2691 0001:000323C4  2692 0001:000323D3  2693 0001:000323DB
  2695 0001:000323F1  2697 0001:000323FA  2698 0001:00032409  2699 0001:00032436
  2700 0001:00032441  2701 0001:00032451  2702 0001:00032480  2703 0001:0003248B
  2705 0001:00032491  2706 0001:00032498  2708 0001:000324A2  2712 0001:000324AB
  2713 0001:000324BA  2715 0001:000324C1  2716 0001:000324D0  2717 0001:000324D9
  2718 0001:000324F6  2719 0001:00032507  2720 0001:0003251A  2726 0001:00032520
  2727 0001:00032532  2728 0001:0003253A  2729 0001:00032548  2730 0001:0003254D
  2731 0001:00032554  2733 0001:00032560  2734 0001:0003256F  2735 0001:00032585
  2737 0001:0003258F  2738 0001:000325A1  2742 0001:000325AD  2743 0001:000325BC
  2744 0001:000325D2  2746 0001:000325D8  2747 0001:000325EA  2751 0001:000325F1
  2752 0001:00032606  2754 0001:00032623  2756 0001:00032644  2757 0001:0003264D
  2760 0001:0003265E  2761 0001:0003268A  2764 0001:000326BF  2767 0001:000326CF
  2769 0001:000326EC  2770 0001:000326F3  2772 0001:000326FD  2777 0001:00032704
  2778 0001:00032709  2780 0001:00032716  2781 0001:00032728  2782 0001:00032744
  2783 0001:0003274A  2784 0001:00032758  2785 0001:00032780  2793 0001:00032784
  2794 0001:0003278E  2795 0001:00032793  2796 0001:00032797  2797 0001:000327B3
  2798 0001:000327C1  2799 0001:000327CB  2800 0001:000327D9  2801 0001:000327E2
  2802 0001:000327ED  2803 0001:000327FD  2805 0001:00032806  2806 0001:00032819
  2807 0001:00032821  2809 0001:00032831  2811 0001:00032853  2813 0001:00032866
  2814 0001:00032877  2818 0001:000328B7  2820 0001:000328C0  2822 0001:000328CF
  2823 0001:000328DD  2825 0001:000328F4  2826 0001:000328FE  2830 0001:00032917
  2831 0001:0003292C  2833 0001:00032937  2834 0001:0003293E  2835 0001:00032945
  2837 0001:00032959  2838 0001:0003295D  2840 0001:00032963  2841 0001:00032967
  2842 0001:00032971  2843 0001:0003297B  2844 0001:00032980  2846 0001:00032985
  2850 0001:000329BA  2851 0001:000329C4  2852 0001:000329CB  2854 0001:000329D4
  2855 0001:000329DD  2857 0001:000329F9  2860 0001:00032A15  2861 0001:00032A1C
  2863 0001:00032A61  2864 0001:00032A6B  2866 0001:00032A7A  2870 0001:00032A80
  2871 0001:00032A90  2872 0001:00032A97  2877 0001:00032A98  2878 0001:00032AA1
  2879 0001:00032AB1  2880 0001:00032AB6  2882 0001:00032ABC  2883 0001:00032AC7
  2884 0001:00032ACD  2880 0001:00032AD9  2886 0001:00032AE2  2892 0001:00032AE8
  2893 0001:00032AF4  2894 0001:00032AF9  2895 0001:00032B04  2897 0001:00032B0A
  2898 0001:00032B10  2899 0001:00032B31  2901 0001:00032B40  2906 0001:00032B44
  2907 0001:00032B50  2908 0001:00032B69  2909 0001:00032B76  2912 0001:00032B7C
  2913 0001:00032B88  2914 0001:00032B95  2916 0001:00032BA0  2917 0001:00032BAA
  2919 0001:00032BB1  2926 0001:00032BB8  2927 0001:00032BC7  2928 0001:00032BD4
  2929 0001:00032BED  2945 0001:00032BF4  2946 0001:00032BFA  2947 0001:00032C07
  2948 0001:00032C15  2949 0001:00032C2B  2950 0001:00032C39  2951 0001:00032C45
  2952 0001:00032C53  2953 0001:00032C5B  2955 0001:00032C74  2956 0001:00032C84
  2948 0001:00032C87  2958 0001:00032C99  2960 0001:00032CAB  2965 0001:00032CB0
  2966 0001:00032CB6  2967 0001:00032CC3  2968 0001:00032CD1  2969 0001:00032CE0
  2970 0001:00032CEE  2971 0001:00032CFA  2972 0001:00032D08  2974 0001:00032D1D
  2975 0001:00032D2D  2968 0001:00032D30  2977 0001:00032D43  2979 0001:00032D55
  2982 0001:00032D5C  2983 0001:00032D6D  2984 0001:00032D75  2985 0001:00032D91
  2988 0001:00032D98  2989 0001:00032DA1  2991 0001:00032DB7  2993 0001:00032DC0
  2994 0001:00032DCD  2995 0001:00032DDB  2996 0001:00032DE9  2997 0001:00032E00
  2999 0001:00032E18  3002 0001:00032E2A  3003 0001:00032E38  3005 0001:00032E40
  3008 0001:00032E44  3009 0001:00032E4B  3011 0001:00032E54  3012 0001:00032E5E
  3013 0001:00032E6B  3014 0001:00032E7E  3016 0001:00032E86  3019 0001:00032E8C
  3020 0001:00032E98  3022 0001:00032EA3  3023 0001:00032EAB  3025 0001:00032EB4
  3028 0001:00032EB8  3029 0001:00032EBF  3030 0001:00032EC8  3031 0001:00032ED7
  3033 0001:00032EE3  3034 0001:00032EED  3039 0001:00032EF0  3040 0001:00032F0B
  3041 0001:00032F15  3042 0001:00032F39  3045 0001:00032F40  3046 0001:00032F4C
  3049 0001:00032F5E  3050 0001:00032F6A  3051 0001:00032F76  3052 0001:00032F82
  3053 0001:00032F8E  3055 0001:00032F98  3056 0001:00032FA3  3060 0001:00032FA8
  3061 0001:00032FB7  3063 0001:00032FD4  3065 0001:00032FE3  3066 0001:00032FEC
  3067 0001:00032FFD  3068 0001:00033006  3071 0001:00033013  3073 0001:00033022
  3074 0001:0003302B  3075 0001:0003303C  3076 0001:00033045  3079 0001:0003304F
  3081 0001:0003305A  3082 0001:00033063  3083 0001:00033077  3084 0001:00033080
  3087 0001:0003308A  3089 0001:00033095  3090 0001:0003309E  3091 0001:000330B2
  3092 0001:000330BB  3095 0001:000330C3  3098 0001:000330C8  3099 0001:000330D0
  3100 0001:000330E6  3105 0001:000330EC  3106 0001:000330F8  3107 0001:0003310C
  3110 0001:00033110  3111 0001:00033133  3112 0001:00033137  3114 0001:00033150
  3117 0001:00033183  3118 0001:0003318B  3121 0001:000331FF  3124 0001:00033214
  3125 0001:00033230  3127 0001:00033293  3130 0001:00033298  3131 0001:000332A2
  3133 0001:000332DD  3136 0001:000332E4  3137 0001:000332ED  3139 0001:0003332C
  3142 0001:00033330  3143 0001:00033339  3145 0001:00033373  3148 0001:00033378
  3149 0001:00033381  3151 0001:000333B0  3154 0001:000333B4  3155 0001:000333C0
  3156 0001:000333DA  3159 0001:000333E0  3160 0001:000333EC  3161 0001:00033406
  3164 0001:0003340C  3165 0001:00033418  3166 0001:00033437  3169 0001:0003343C
  3170 0001:00033448  3171 0001:00033462  3174 0001:00033468  3175 0001:0003346F
  3176 0001:00033493  3179 0001:00033498  3180 0001:000334A1  3184 0001:00033518
  3187 0001:0003351C  3188 0001:00033528  3189 0001:00033542  3192 0001:00033548
  3193 0001:00033554  3194 0001:0003356E  3197 0001:00033574  3198 0001:00033580
  3199 0001:0003359B  3204 0001:000335A0  3205 0001:000335BB  3206 0001:000335C8
  3207 0001:000335D9  3208 0001:000335E5  3209 0001:000335F7  3210 0001:0003360A
  3211 0001:00033616  3212 0001:0003362B  3213 0001:0003363E  3214 0001:00033648
  3215 0001:0003364F  3216 0001:00033656  3217 0001:0003365D  3218 0001:00033664
  3219 0001:0003366E  3220 0001:00033675  3221 0001:0003367C  3222 0001:00033685
  3223 0001:00033694  3224 0001:000336B9  3227 0001:000336C8  3228 0001:000336DA
  3229 0001:000336E9  3231 0001:00033704  3232 0001:0003371D  3233 0001:00033727
  3234 0001:00033744  3236 0001:00033751  3237 0001:0003375B  3238 0001:00033766
  3239 0001:0003376E  3240 0001:00033779  3241 0001:00033784  3242 0001:0003378F
  3243 0001:000337AB  3246 0001:000337B0  3247 0001:000337B9  3248 0001:000337C1
  3251 0001:000337C8  3252 0001:000337D1  3253 0001:000337DD  3256 0001:000337E4
  3257 0001:000337ED  3258 0001:000337F5  3261 0001:000337FC  3262 0001:00033805
  3263 0001:00033813  3266 0001:00033818  3267 0001:00033821  3268 0001:0003382D
  3271 0001:00033834  3272 0001:00033840  3273 0001:0003385D  3274 0001:00033868
  3281 0001:0003386C  3282 0001:00033879  3283 0001:0003387D  3284 0001:00033886
  3285 0001:00033895  3287 0001:0003389B  3288 0001:000338A9  3289 0001:000338C3
  3290 0001:000338D8  3291 0001:000338E7  3292 0001:000338F4  3294 0001:000338FB
  3297 0001:00033900  3298 0001:00033909  3299 0001:00033912  3300 0001:00033920
  3301 0001:00033928  3305 0001:0003392C  3306 0001:00033938  3308 0001:00033943
  3309 0001:0003394C  3311 0001:00033954  3314 0001:00033958  3315 0001:00033965
  3317 0001:0003396B  3318 0001:00033976  3319 0001:0003397E  3323 0001:0003398A
  3324 0001:00033994  3325 0001:0003399D  3326 0001:000339B7  3327 0001:000339C5
  3328 0001:000339D8  3329 0001:000339F1  3331 0001:000339FC  3334 0001:00033A04
  3335 0001:00033A0D  3336 0001:00033A27  3339 0001:00033A2C  3340 0001:00033A38
  3341 0001:00033A41  3344 0001:00033A48  3345 0001:00033A4F  3346 0001:00033A66
  3349 0001:00033A6C  3350 0001:00033A74  3351 0001:00033A93  3354 0001:00033A98
  3355 0001:00033AA4  3356 0001:00033AAC  3357 0001:00033ACF  3358 0001:00033ADA
  3359 0001:00033AE2  3361 0001:00033AEB  3362 0001:00033AFC  3363 0001:00033B0D
  3364 0001:00033B1E  3365 0001:00033B2F  3367 0001:00033B40  3371 0001:00033B44
  3372 0001:00033B53  3373 0001:00033B61  3374 0001:00033B67  3375 0001:00033B7E
  3376 0001:00033B95  3381 0001:00033B9C  3382 0001:00033BAA  3384 0001:00033BB9
  3385 0001:00033BC2  3386 0001:00033BCB  3387 0001:00033BDE  3389 0001:00033C09
  3391 0001:00033C38  3393 0001:00033C5F  3395 0001:00033C6B  3396 0001:00033C77
  3399 0001:00033C80  3400 0001:00033C90  3404 0001:00033CD2  3405 0001:00033CE2
  3406 0001:00033CEB  3407 0001:00033CF4  3408 0001:00033CFD  3409 0001:00033D06
  3410 0001:00033D0E  3411 0001:00033D16  3412 0001:00033D27  3413 0001:00033D33
  3415 0001:00033D48  3420 0001:00033D50  3421 0001:00033D59  3423 0001:00033D73
  3424 0001:00033D7C  3426 0001:00033D86  3427 0001:00033D91  3428 0001:00033D9C
  3430 0001:00033DA1  3431 0001:00033DA7  3432 0001:00033DAD  3433 0001:00033DBE
  3435 0001:00033DCF  3436 0001:00033DEB  3437 0001:00033DF1  3438 0001:00033DF7
  3439 0001:00033E08  3441 0001:00033E19  3442 0001:00033E35  3443 0001:00033E42
  3445 0001:00033E4E  3446 0001:00033E57  3448 0001:00033E7A  3449 0001:00033E89
  3452 0001:00033EAE  3453 0001:00033EC0  3456 0001:00033ED2  3459 0001:00033EDC
  3460 0001:00033EE9  3461 0001:00033F0B  3462 0001:00033F15  3465 0001:00033F1C
  3466 0001:00033F29  3467 0001:00033F4B  3468 0001:00033F55  3471 0001:00033F5C
  3472 0001:00033F69  3473 0001:00033F8B  3474 0001:00033F95  3477 0001:00033F9C
  3478 0001:00033FA9  3479 0001:00033FCB  3480 0001:00033FD5  3485 0001:00033FDC
  3486 0001:00033FF3  3488 0001:00034001  3489 0001:0003401F  3490 0001:00034036
  3492 0001:0003404E  3494 0001:0003405F  3495 0001:00034068  3496 0001:00034076
  3497 0001:0003407C  3498 0001:0003408E  3500 0001:0003409C  3501 0001:000340A8
  3503 0001:000340AE  3504 0001:000340BA  3507 0001:000340D4  3508 0001:000340DF
  3511 0001:00034101  3513 0001:00034112  3516 0001:00034118  3518 0001:00034127
  3519 0001:00034149  3520 0001:00034154  3521 0001:00034161  3522 0001:0003416C
  3523 0001:00034182  3526 0001:00034188  3527 0001:00034194  3528 0001:000341A7
  3529 0001:000341B3  3532 0001:000341B8  3533 0001:000341C4  3534 0001:000341D7
  3535 0001:000341E7  3543 0001:000341EC  3544 0001:000341F8  3545 0001:00034203
  3546 0001:0003420F  3547 0001:00034221  3548 0001:00034233  3551 0001:00034238
  3552 0001:00034245  3553 0001:00034274  3556 0001:0003427C  3557 0001:00034288
  3558 0001:0003428F  3559 0001:00034297  3560 0001:000342A3  3561 0001:000342AF
  3564 0001:000342B4  3565 0001:000342BD  3566 0001:000342D1  3569 0001:000342D8
  3570 0001:000342E4  3571 0001:00034304  3574 0001:00034308  3575 0001:00034311
  3576 0001:00034325  3579 0001:0003432C  3580 0001:00034338  3581 0001:00034356
  3584 0001:0003435C  3585 0001:0003437B  3586 0001:00034384  3587 0001:000343B8
  3588 0001:000343C6  3589 0001:000343D1  3590 0001:000343FA  3595 0001:00034400
  3596 0001:0003440F  3597 0001:0003441A  3598 0001:00034427  3599 0001:00034436
  3604 0001:0003443C  3605 0001:0003444B  3606 0001:00034456  3607 0001:00034463
  3608 0001:00034472  3613 0001:00034478  3614 0001:00034484  3615 0001:0003448A
  3617 0001:00034490  3618 0001:000344A2  3619 0001:000344AD  3615 0001:000344B6
  3621 0001:000344BC  3626 0001:000344C0  3627 0001:000344CF  3632 0001:000344FD
  3633 0001:00034503  3634 0001:00034509  3636 0001:0003450F  3638 0001:00034529
  3641 0001:00034538  3642 0001:0003453F  3643 0001:00034552  3649 0001:00034558
  3650 0001:00034568  3652 0001:00034574  3653 0001:0003457D  3654 0001:0003458B
  3655 0001:00034593  3656 0001:00034599  3657 0001:000345B2  3658 0001:000345BB
  3659 0001:000345C1  3660 0001:000345DA  3661 0001:000345E3  3662 0001:000345F2
  3663 0001:000345F8  3664 0001:0003461A  3665 0001:00034633  3666 0001:0003463C
  3667 0001:0003464B  3668 0001:00034651  3669 0001:00034673  3670 0001:0003468C
  3671 0001:00034695  3672 0001:000346AE  3673 0001:000346C1  3674 0001:000346E1
  3675 0001:000346F4  3676 0001:00034714  3677 0001:00034723  3679 0001:00034749
  3680 0001:00034758  3683 0001:00034770  3684 0001:0003477D  3686 0001:00034788
  3687 0001:00034791  3689 0001:000347A3  3694 0001:000347A8  3695 0001:000347C7
  3699 0001:00034827  3700 0001:00034832  3701 0001:00034860  3706 0001:00034864
  3707 0001:00034877  3708 0001:00034882  3710 0001:000348B3  3713 0001:000348BC
  3714 0001:000348C8  3716 0001:000348D3  3717 0001:000348DB  3718 0001:000348F2
  3719 0001:000348FB  3720 0001:00034909  3722 0001:0003490F  3723 0001:0003491A
  3726 0001:00034922  3729 0001:00034928  3730 0001:00034935  3732 0001:00034940
  3733 0001:0003494C  3734 0001:00034955  3735 0001:00034969  3737 0001:00034975
  3740 0001:0003497C  3741 0001:00034988  3743 0001:00034993  3744 0001:0003499C
  3746 0001:000349AD  3749 0001:000349B4  3750 0001:000349BD  3751 0001:000349D4
  3754 0001:000349D8  3755 0001:000349E7  3756 0001:00034A01  3759 0001:00034A08
  3760 0001:00034A11  3761 0001:00034A2B  3762 0001:00034A37  3765 0001:00034A3C
  3766 0001:00034A45  3767 0001:00034A5F  3768 0001:00034A6B  3783 0001:00034A70
  3784 0001:00034A7C  3785 0001:00034A85  3787 0001:00034A8B  3788 0001:00034A96
  3790 0001:00034AA1  3793 0001:00034AA8  3794 0001:00034AB4  3795 0001:00034AC7
  3796 0001:00034AD8  3801 0001:00034ADC  3802 0001:00034AE8  3803 0001:00034AF3
  3804 0001:00034B00  3805 0001:00034B17  3808 0001:00034B1C  3809 0001:00034B3B
  3810 0001:00034B82  3813 0001:00034B88  3814 0001:00034B94  3816 0001:00034B9F
  3817 0001:00034BA8  3818 0001:00034BAF  3820 0001:00034BC0  3823 0001:00034BC4
  3824 0001:00034BD0  3825 0001:00034BD7  3826 0001:00034BDE  3828 0001:00034BF4
  3829 0001:00034BFE  3831 0001:00034C12  3832 0001:00034C23  3835 0001:00034C28
  3836 0001:00034C34  3837 0001:00034C42  3840 0001:00034C48  3841 0001:00034C51
  3842 0001:00034C6F  3845 0001:00034C74  3846 0001:00034C7D  3847 0001:00034C8E
  3850 0001:00034C94  3851 0001:00034C9D  3852 0001:00034CAB  3855 0001:00034CB0
  3856 0001:00034CBC  3858 0001:00034CC7  3859 0001:00034CD0  3860 0001:00034CE2
  3862 0001:00034CF3  3874 0001:00034CF8  3875 0001:00034D04  3877 0001:00034D12
  3878 0001:00034D1E  3879 0001:00034D28  3881 0001:00034D39  3884 0001:00034D40
  3885 0001:00034D4C  3887 0001:00034D5A  3888 0001:00034D66  3889 0001:00034D78
  3891 0001:00034D89  3894 0001:00034D90  3895 0001:00034D9C  3897 0001:00034DA7
  3898 0001:00034DB0  3899 0001:00034DB7  3901 0001:00034DC8  3904 0001:00034DCC
  3905 0001:00034DD5  3906 0001:00034DE3  3909 0001:00034DE8  3910 0001:00034DF4
  3912 0001:00034DFF  3913 0001:00034E08  3914 0001:00034E1A  3916 0001:00034E2B
  3919 0001:00034E30  3920 0001:00034E3C  3922 0001:00034E47  3923 0001:00034E50
  3924 0001:00034E62  3926 0001:00034E73  3929 0001:00034E78  3930 0001:00034E85
  3932 0001:00034E92  3933 0001:00034E9D  3935 0001:00034EAE  3938 0001:00034EB4
  3939 0001:00034EBD  3940 0001:00034ECC  3943 0001:00034ED0  3944 0001:00034EDC
  3945 0001:00034EE9  3946 0001:00034F00  3949 0001:00034F04  3950 0001:00034F0C
  3951 0001:00034F1A  3962 0001:00034F20  3963 0001:00034F2D  3965 0001:00034F3A
  3966 0001:00034F51  3968 0001:00034F5B  3969 0001:00034F6D  3970 0001:00034F78
  3971 0001:00034F87  3973 0001:00034F8F  3974 0001:00034FA3  3975 0001:00034FBA
  3976 0001:00034FCA  3977 0001:00034FD5  3978 0001:00034FDE  3982 0001:00034FEC
  3985 0001:00034FF4  3986 0001:00035000  3987 0001:00035009  3988 0001:0003500F
  3989 0001:00035029  3990 0001:00035033  3993 0001:00035038  3994 0001:00035057
  3995 0001:00035060  3996 0001:00035094  3997 0001:000350A5  3998 0001:000350BE
  3999 0001:000350F9  4011 0001:00035100  4012 0001:00035106  4013 0001:0003510A
  4014 0001:0003511C  4015 0001:0003512D  4017 0001:00035133  4018 0001:00035136
  4020 0001:00035144  4022 0001:00035156  4023 0001:00035175  4015 0001:00035189
  4026 0001:0003518F  4027 0001:00035196  4029 0001:0003519C  4030 0001:000351AB
  4034 0001:000351DB  4035 0001:000351E6  4038 0001:00035223  4041 0001:00035228
  4042 0001:0003522F  4043 0001:00035247  4048 0001:0003524C  4049 0001:00035259
  4050 0001:00035264  4051 0001:00035283  4053 0001:000352A3  4068 0001:000352A8
  4069 0001:000352AF  4070 0001:000352C6  4073 0001:000352CC  4074 0001:000352D3
  4075 0001:000352DE  4080 0001:000352E4  4081 0001:000352ED  4084 0001:00035330
  4086 0001:0003533D  4087 0001:00035351  4088 0001:0003535F  4089 0001:00035390
  4091 0001:000353AE  4095 0001:000353CB  4096 0001:000353D3  4098 0001:000353DE
  4101 0001:000353E4  4102 0001:000353ED  4103 0001:000353F4  4111 0001:000353F8
  4112 0001:00035401  4113 0001:00035421  4116 0001:00035428  4117 0001:00035431
  4118 0001:00035451  4121 0001:00035458  4122 0001:00035461  4124 0001:00035483
  4127 0001:00035488  4128 0001:0003548F  4129 0001:000354A7  4134 0001:000354AC
  4135 0001:000354BB  4136 0001:000354D9  4137 0001:000354F0  4138 0001:000354F8
  4140 0001:0003550A  4141 0001:00035511  4143 0001:0003551A  4144 0001:00035523
  4145 0001:0003553D  4148 0001:00035555  4149 0001:0003555B  4151 0001:00035566
  4152 0001:0003556F  4154 0001:0003557D  4164 0001:00035584  4165 0001:0003558B
  4168 0001:00035590  4169 0001:00035599  4170 0001:000355A8  4174 0001:000355AC
  4175 0001:000355BC  4176 0001:000355C2  4178 0001:000355CF  4179 0001:000355D5
  4181 0001:000355FA  4184 0001:00035604  4185 0001:00035614  4186 0001:0003563E
  4189 0001:00035648  4190 0001:00035655  4191 0001:00035677  4194 0001:0003567C
  4195 0001:0003568C  4196 0001:000356B6  4202 0001:000356C0  4205 0001:000356CD
  4207 0001:000356E9  4208 0001:000356F7  4210 0001:00035705  4211 0001:0003571A
  4212 0001:0003572F  4214 0001:00035738  4215 0001:00035745  4216 0001:00035753
  4217 0001:00035761  4220 0001:00035770  4223 0001:00035780  4224 0001:00035798
  4226 0001:000357B6  4230 0001:000357E1  4233 0001:000357E8  4234 0001:000357F8
  4235 0001:00035807  4238 0001:00035810  4239 0001:00035820  4240 0001:0003584A
  4243 0001:00035854  4244 0001:00035861  4245 0001:00035883  4251 0001:00035888
  4252 0001:000358A2  4253 0001:000358A6  4254 0001:000358B3  4255 0001:000358D4
  4257 0001:000358DE  4260 0001:000358EC  4261 0001:000358FA  4262 0001:00035914
  4264 0001:0003591A  4265 0001:0003592F  4268 0001:00035946  4258 0001:0003595B
  4271 0001:00035975  4274 0001:00035980  4275 0001:00035996  4276 0001:0003599A
  4277 0001:000359A7  4278 0001:000359C7  4281 0001:000359D0  4282 0001:000359E6
  4283 0001:000359EA  4284 0001:000359F7  4285 0001:00035A17  4295 0001:00035A20
  4298 0001:00035A31  4299 0001:00035A3C  4300 0001:00035A51  4302 0001:00035A5E
  4303 0001:00035A66  4304 0001:00035A79  4305 0001:00035A87  4308 0001:00035A9F
  4309 0001:00035AC6  4310 0001:00035AF0  4311 0001:00035B17  4313 0001:00035B3B
  4315 0001:00035B55  4317 0001:00035B6A  4320 0001:00035B70  4321 0001:00035B7D
  4322 0001:00035B8E  4325 0001:00035B94  4326 0001:00035BA1  4327 0001:00035BB2
  4333 0001:00035BB8  4334 0001:00035BC5  4336 0001:00035BCE  4337 0001:00035BD7
  4338 0001:00035BE8  4339 0001:00035BF7  4340 0001:00035C0B  4341 0001:00035C1B
  4344 0001:00035C2C  4345 0001:00035C30  4347 0001:00035C36  4351 0001:00035C5C
  4352 0001:00035C7D  4356 0001:00035C8A  4357 0001:00035CAB  4361 0001:00035CC1
  4369 0001:00035CC8  4370 0001:00035CDA  4372 0001:00035CEA  4375 0001:00035D1A
  4376 0001:00035D34  4379 0001:00035D52  4380 0001:00035D72  4382 0001:00035D98
  4383 0001:00035DC4  4387 0001:00035DD7  4388 0001:00035DDF  4389 0001:00035E10
  4391 0001:00035E1A  4392 0001:00035E2C  4393 0001:00035E3A  4394 0001:00035E46
  4395 0001:00035E59  4396 0001:00035E5E  4397 0001:00035E69  4398 0001:00035E6F
  4401 0001:00035E80  4402 0001:00035E89  4403 0001:00035E92  4404 0001:00035E9B
  4406 0001:00035EA8  4407 0001:00035EBE  4409 0001:00035EE1  4413 0001:00035EF4
  4418 0001:00035F00  4419 0001:00035F14  4420 0001:00035F44  4422 0001:00035F4A
  4423 0001:00035F58  4424 0001:00035F5E  4426 0001:00035F92  4428 0001:00035FA7
  4454 0001:00035FB0  4455 0001:00035FBD  4456 0001:00035FC9  4459 0001:00035FD0
  4460 0001:00035FDF  4461 0001:00035FE6  4464 0001:00035FEC  4465 0001:00035FFC
  4466 0001:00036000  4467 0001:0003602D  4472 0001:00036034  4473 0001:00036044
  4475 0001:0003604D  4476 0001:00036055  4477 0001:0003605D  4478 0001:0003606E
  4479 0001:0003607E  4480 0001:00036086  4481 0001:00036090  4483 0001:0003609A
  4484 0001:000360A1  4487 0001:000360A8  4488 0001:000360B8  4489 0001:000360C9
  4490 0001:000360E0  4494 0001:000360E8  4495 0001:000360F8  4497 0001:00036126
  4500 0001:00036130  4501 0001:0003613C  4502 0001:00036145  4503 0001:00036161
  4506 0001:00036168  4507 0001:00036174  4510 0001:000361B5  4515 0001:000361BC
  4516 0001:000361CC  4517 0001:000361D8  4519 0001:000361E6  4520 0001:000361EB
  4521 0001:000361F7  4523 0001:00036205  4524 0001:0003620A  4525 0001:00036216
  4527 0001:00036224  4528 0001:00036229  4529 0001:00036235  4531 0001:00036243
  4533 0001:00036248  4534 0001:0003625E  4535 0001:0003626E  4536 0001:00036278
  4537 0001:00036288  4538 0001:00036290  4539 0001:000362A0  4540 0001:000362AA
  4541 0001:000362BA  4542 0001:000362C2  4547 0001:000362C8  4548 0001:000362D8
  4549 0001:000362DE  4550 0001:000362E4  4551 0001:000362EA  4552 0001:000362EF
  4553 0001:00036301  4554 0001:0003630A  4557 0001:00036314  4558 0001:0003631B
  4560 0001:00036327  4561 0001:00036336  4563 0001:00036348  4565 0001:00036354
  4567 0001:00036371  4568 0001:00036382  4570 0001:000363A0  4572 0001:000363AF
  4575 0001:000363B4  4576 0001:000363C0  4577 0001:000363CB  4578 0001:000363D7
  4579 0001:000363E8  4580 0001:000363FA  4581 0001:00036402  4584 0001:00036408
  4585 0001:0003640F  4592 0001:00036414  4593 0001:00036425  4595 0001:0003642E
  4596 0001:00036439  4599 0001:00036467  4601 0001:0003647D  4602 0001:00036488
  4604 0001:000364B0  4606 0001:000364CE  4607 0001:000364D7  4609 0001:000364ED
  4611 0001:000364F3  4612 0001:0003650A  4615 0001:00036521  4617 0001:0003652A
  4618 0001:00036536  4620 0001:0003653B  4623 0001:00036548  4626 0001:00036555
  4629 0001:0003657F  4632 0001:0003658B  4633 0001:00036593  4634 0001:000365A1
  4635 0001:000365AC  4637 0001:000365B5  4638 0001:000365C4  4642 0001:000365C6
  4643 0001:000365D1  4645 0001:000365EB  4646 0001:000365F6  4651 0001:000365FC
  4653 0001:00036608  4656 0001:0003661D  4657 0001:00036639  4660 0001:0003665B
  4663 0001:00036681  4664 0001:0003668F  4665 0001:0003669A  4666 0001:000366A3
  4669 0001:000366BD  4672 0001:000366C8  4673 0001:000366D4  4674 0001:000366E2
  4677 0001:000366E8  4678 0001:000366F4  4679 0001:00036702  4684 0001:00036708
  4685 0001:0003670C  4686 0001:00036718  4687 0001:00036733  4688 0001:00036742
  4689 0001:00036748  4692 0001:00036755  4693 0001:0003677D  4696 0001:00036798
  4700 0001:000367A0  4701 0001:000367CF  4702 0001:000367E3  4703 0001:000367F5
  4704 0001:00036805  4705 0001:00036812  4706 0001:00036824  4709 0001:00036828
  4710 0001:00036830  4711 0001:0003684F  4715 0001:00036854  4716 0001:00036864
  4717 0001:00036892  4721 0001:0003689C  4722 0001:000368AC  4724 0001:000368B5
  4725 0001:000368CD  4726 0001:000368D8  4728 0001:00036902  4729 0001:00036932
  4732 0001:0003693C  4733 0001:00036948  4734 0001:00036953  4735 0001:0003695E
  4736 0001:00036971  4737 0001:00036982  4738 0001:00036995  4741 0001:000369A0
  4742 0001:000369AC  4743 0001:000369B7  4744 0001:000369C2  4747 0001:000369C8
  4748 0001:000369D5  4749 0001:000369E0  4750 0001:000369EB  4751 0001:000369FE
  4752 0001:00036A13  4753 0001:00036A26  4756 0001:00036A30  4757 0001:00036A39
  4758 0001:00036A45  4763 0001:00036A4C  4764 0001:00036A5B  4765 0001:00036A5F
  4766 0001:00036A67  4767 0001:00036A6F  4769 0001:00036A81  4770 0001:00036A87
  4771 0001:00036A8D  4773 0001:00036AD3  4775 0001:00036AD9  4776 0001:00036AE1
  4779 0001:00036AEC  4782 0001:00036AF0  4783 0001:00036AFC  4784 0001:00036B07
  4785 0001:00036B1A  4788 0001:00036B24  4789 0001:00036B30  4790 0001:00036B3B
  4791 0001:00036B4E  4794 0001:00036B58  4795 0001:00036B64  4796 0001:00036B6F
  4797 0001:00036B82  4800 0001:00036B8C  4801 0001:00036B98  4802 0001:00036BA3
  4803 0001:00036BB6  4806 0001:00036BC0  4807 0001:00036BD0  4808 0001:00036BFA
  4811 0001:00036C04  4812 0001:00036C11  4813 0001:00036C1C  4815 0001:00036C25
  4816 0001:00036C3D  4817 0001:00036C48  4819 0001:00036C6B  4820 0001:00036C94
  4824 0001:00036C9C  4825 0001:00036CAC  4826 0001:00036CDA  4829 0001:00036CE4
  4830 0001:00036CF4  4831 0001:00036CFD  4832 0001:00036D2A  4835 0001:00036D30
  4836 0001:00036D3D  4837 0001:00036D48  4838 0001:00036D5B  4840 0001:00036D64
  4841 0001:00036D6C  4843 0001:00036DA4  4844 0001:00036DB1  4847 0001:00036DB8
  4848 0001:00036DC4  4849 0001:00036DCF  4850 0001:00036DDC  4853 0001:00036DE0
  4854 0001:00036DEC  4855 0001:00036DF7  4856 0001:00036E04  4859 0001:00036E08
  4860 0001:00036E15  4862 0001:00036E20  4863 0001:00036E29  4865 0001:00036E38
  4866 0001:00036E4A  4867 0001:00036E59  4868 0001:00036E6D  4871 0001:00036E74
  4872 0001:00036E80  4873 0001:00036E8B  4875 0001:00036E97  4876 0001:00036EA1
  4880 0001:00036EBD  4881 0001:00036EC5  4884 0001:00036ECC  4885 0001:00036ED8
  4887 0001:00036EE3  4889 0001:00036F00  4891 0001:00036F09  4892 0001:00036F20
  4893 0001:00036F2E  4894 0001:00036F45  4895 0001:00036F51  4896 0001:00036F68
  4897 0001:00036F76  4898 0001:00036F8D  4900 0001:00036F99  4901 0001:00036FA2
  4902 0001:00036FAB  4904 0001:00036FDB  4906 0001:00036FE3  4909 0001:00036FF0
  4910 0001:00036FFC  4912 0001:0003700E  4913 0001:00037030  4916 0001:00037034
  4917 0001:00037040  4918 0001:00037048  4921 0001:0003704C  4922 0001:00037058
  4923 0001:00037060  4926 0001:00037064  4927 0001:00037070  4928 0001:00037078
  4931 0001:0003707C  4932 0001:00037088  4934 0001:00037091  4935 0001:0003709A
  4936 0001:000370AA  4937 0001:000370BB  4939 0001:000370C2  4942 0001:000370C8
  4943 0001:000370D4  4945 0001:000370DD  4946 0001:000370F7  4948 0001:000370FE
  4951 0001:00037104  4954 0001:00037111  4955 0001:00037119  4956 0001:00037148
  4957 0001:00037154  4958 0001:0003715D  4961 0001:00037180  4964 0001:00037188
  4965 0001:00037194  4966 0001:000371B0  4969 0001:000371B4  4970 0001:000371C0
  4972 0001:000371CC  4973 0001:000371E0  4975 0001:000371EA  4978 0001:000371F0
  4979 0001:000371FC  4981 0001:00037205  4982 0001:0003720E  4983 0001:0003721E
  4984 0001:0003722F  4986 0001:00037236  4989 0001:0003723C  4990 0001:00037248
  4992 0001:00037251  4993 0001:00037266  4995 0001:0003726D  4998 0001:00037274
  4999 0001:00037280  5000 0001:0003728A  5003 0001:00037290  5004 0001:0003729C
  5005 0001:000372A5  5006 0001:000372BB  5009 0001:000372C0  5010 0001:000372CC
  5011 0001:000372D5  5012 0001:000372EB  5015 0001:000372F0  5016 0001:000372FC
  5017 0001:00037304  5020 0001:00037308  5021 0001:0003731D  5022 0001:00037322
  5025 0001:00037344  5028 0001:0003735C  5029 0001:00037367  5030 0001:00037372
  5031 0001:00037380  5034 0001:00037391  5043 0001:00037398  5044 0001:0003739F
  5045 0001:000373CD  5046 0001:000373DC  5050 0001:00037461  5052 0001:00037468
  5053 0001:00037474  5054 0001:00037489  5057 0001:00037492  5058 0001:000374A6
  5060 0001:000374AC  5061 0001:000374B8  5064 0001:000374C9  5067 0001:000374D0
  5068 0001:000374F6  5071 0001:0003750C  5072 0001:0003753E  5073 0001:0003754C
  5074 0001:0003755E  5075 0001:0003756C  5076 0001:0003757E  5077 0001:00037591
  5078 0001:000375A0  5079 0001:000375B1  5080 0001:000375C4  5082 0001:000375FE
  5085 0001:00037604  5086 0001:00037611  5087 0001:0003762F  5090 0001:00037634
  5091 0001:0003763D  5092 0001:00037648  5095 0001:0003764C  5096 0001:00037655
  5097 0001:00037679  5100 0001:00037680  5101 0001:00037689  5102 0001:000376AD
  5105 0001:000376B4  5106 0001:000376BD  5107 0001:000376E1  5110 0001:000376E8
  5111 0001:000376F1  5112 0001:00037715  5115 0001:0003771C  5116 0001:00037725
  5117 0001:00037749  5120 0001:00037750  5121 0001:00037759  5122 0001:0003777D
  5125 0001:00037784  5126 0001:0003778C  5127 0001:00037794  5128 0001:000377B8
  5129 0001:000377C0  5132 0001:000377C4  5133 0001:000377E3  5136 0001:000377F5
  5137 0001:00037807  5138 0001:00037818  5139 0001:0003782E  5140 0001:0003783C
  5142 0001:00037855  5143 0001:0003787D  5150 0001:00037884  5151 0001:00037890
  5152 0001:00037895  5153 0001:000378A6  5152 0001:000378C6  5154 0001:000378CE
  5158 0001:000378D4  5159 0001:000378E6  5160 0001:000378EA  5161 0001:000378F3
  5163 0001:000378FC  5164 0001:0003790B  5165 0001:0003791C  5166 0001:00037928
  5170 0001:00037936  5171 0001:0003793C  5172 0001:00037942  5173 0001:00037948
  5174 0001:0003794E  5175 0001:00037988  5176 0001:0003798E  5177 0001:00037994
  5178 0001:0003799A  5181 0001:000379A1  5184 0001:000379A8  5185 0001:000379B1
  5186 0001:000379E5  5189 0001:000379EC  5190 0001:000379F5  5191 0001:00037A04
  5194 0001:00037A08  5195 0001:00037A10  5196 0001:00037A3E  5211 0001:00037A44
  5212 0001:00037A4D  5213 0001:00037A59  5215 0001:00037A62  5216 0001:00037A6A
  5219 0001:00037A70  5220 0001:00037A77  5221 0001:00037A8B  5224 0001:00037A90
  5225 0001:00037A9C  5227 0001:00037ABD  5228 0001:00037AC7  5235 0001:00037ACC
  5236 0001:00037ADA  5237 0001:00037AE7  5239 0001:00037AF0  5240 0001:00037AFB
  5243 0001:00037B00  5244 0001:00037B0E  5245 0001:00037B1A  5248 0001:00037B28
  5249 0001:00037B36  5251 0001:00037B54  5252 0001:00037B5F  5256 0001:00037B64
  5257 0001:00037B68  5258 0001:00037B7A  5259 0001:00037B85  5261 0001:00037B8F
  5262 0001:00037B9E  5264 0001:00037BAD  5265 0001:00037BB7  5266 0001:00037BC0
  5267 0001:00037BCC  5268 0001:00037BE6  5269 0001:00037BF4  5272 0001:00037BFE
  5273 0001:00037C07  5274 0001:00037C12  5277 0001:00037C18  5278 0001:00037C2E
  5279 0001:00037C54  5282 0001:00037C5C  5283 0001:00037C68  5284 0001:00037C76
  5345 0001:00037C7C  5346 0001:00037C88  5347 0001:00037C93  5348 0001:00037CA7
  5351 0001:00037CAC  5353 0001:00037CB5  5354 0001:00037CC3  5357 0001:00037CC8
  5358 0001:00037CD4  5359 0001:00037CDF  5366 0001:00037CE4  5367 0001:00037D13
  5372 0001:00037D20  5374 0001:00037D37  5375 0001:00037D4C  5376 0001:00037D60
  5377 0001:00037D6A  5378 0001:00037D77  5379 0001:00037D81  5380 0001:00037D8C
  5382 0001:00037D9B  5383 0001:00037DBA  5384 0001:00037DC4  5385 0001:00037DD3
  5386 0001:00037DDD  5387 0001:00037DE7  5388 0001:00037DF4  5389 0001:00037E36
  5413 0001:00037E40  5414 0001:00037E51  5415 0001:00037E59  5417 0001:00037E65
  5418 0001:00037E6F  5420 0001:00037E79  5421 0001:00037E86  5422 0001:00037E94
  5423 0001:00037EA7  5424 0001:00037EBE  5425 0001:00037EC9  5427 0001:00037ECF
  5428 0001:00037EDE  5429 0001:00037EE9  5430 0001:00037EF3  5425 0001:00037EFE
  5432 0001:00037F04  5437 0001:00037F12  5439 0001:00037F2C  5440 0001:00037F48
  5447 0001:00037F4C  5448 0001:00037F55  5450 0001:00037F65  5451 0001:00037F74
  5452 0001:00037F82  5453 0001:00037F91  5454 0001:00037F9C  5456 0001:00037FAF
  5457 0001:00037FC3  5458 0001:00037FCF  5459 0001:00037FEB  5454 0001:00037FEE
  5460 0001:00037FF3  5462 0001:00038006  5463 0001:00038014  5464 0001:00038026
  5460 0001:00038029  5466 0001:0003803B  5469 0001:0003804B  5472 0001:00038050
  5473 0001:0003805C  5474 0001:00038064  5475 0001:00038072  5477 0001:0003808A
  5479 0001:0003809A  5480 0001:000380A2  5481 0001:000380BC  5482 0001:000380C4
  5485 0001:000380C8  5487 0001:000380D4  5494 0001:000380D8  5495 0001:000380E8
  5496 0001:000380EC  5497 0001:0003811D  5498 0001:0003812F  5499 0001:0003814F
  5500 0001:00038161  5501 0001:00038181  5503 0001:0003819B  5509 0001:000381A0
  5512 0001:000381B8  5515 0001:000381D5  5517 0001:000381F5  5518 0001:000381FE
  5519 0001:00038207  5520 0001:00038210  5521 0001:00038219  5522 0001:00038228
  5524 0001:00038244  5525 0001:0003825E  5526 0001:00038267  5528 0001:00038270
  5531 0001:0003828C  5532 0001:000382A8  5534 0001:000382B1  5536 0001:000382DD
  5537 0001:000382E6  5539 0001:000382EF  5542 0001:0003830B  5543 0001:00038327
  5545 0001:00038330  5547 0001:0003835C  5548 0001:00038363  5549 0001:00038371
  5551 0001:00038397  5554 0001:000383A6  5557 0001:000383B0  5558 0001:000383C4
  5559 0001:000383D7  5560 0001:000383E0  5561 0001:000383F5  5562 0001:00038407
  5563 0001:00038410  5564 0001:0003841B  5565 0001:00038427  5567 0001:00038458
  5570 0001:00038466  5571 0001:00038472  5574 0001:00038480  5577 0001:0003848D
  5578 0001:00038499  5582 0001:000384A7  5583 0001:000384B0  5584 0001:000384B9
  5589 0001:000384E4  5590 0001:000384EB  5591 0001:000384F9  5593 0001:0003851F
  5596 0001:0003852E  5598 0001:00038548  5599 0001:00038575  5600 0001:00038589
  5601 0001:0003859D  5602 0001:000385B0  5605 0001:000385C4  5606 0001:000385D6
  5609 0001:000385E8  5629 0001:000385F0  5630 0001:000385F9  5631 0001:00038604
  5635 0001:00038645  5636 0001:00038656  5638 0001:00038675  5639 0001:00038686
  5645 0001:000386CB  5646 0001:000386D6  5648 0001:000386DD  5647 0001:000386E0
  5649 0001:00038712  5651 0001:00038723  5636 0001:00038726  5652 0001:0003872F
  5654 0001:00038748  5655 0001:00038751  5656 0001:00038757  5657 0001:0003875D
  5658 0001:0003877B  5652 0001:0003877E  5659 0001:00038783  5664 0001:0003878C
  5665 0001:00038792  5666 0001:00038796  5667 0001:000387AA  5668 0001:000387D7
  5666 0001:000387DA  5669 0001:000387E0  5670 0001:000387E7  5672 0001:000387F0
  5673 0001:00038800  5674 0001:00038824  5677 0001:00038834  5679 0001:00038843
  5680 0001:00038851  5681 0001:00038860  5682 0001:0003886E  5683 0001:00038877
  5684 0001:00038880  5685 0001:00038889  5686 0001:00038892  5687 0001:0003889B
  5688 0001:000388A4  5689 0001:000388AD  5691 0001:000388C6  5695 0001:000388D6
  5696 0001:000388EE  5701 0001:000388F4  5702 0001:00038901  5703 0001:00038916
  5704 0001:00038923  5707 0001:0003892D  5708 0001:00038935  5709 0001:00038943
  5710 0001:0003894E  5712 0001:0003896C  5713 0001:00038974  5716 0001:00038984
  5719 0001:0003898C  5720 0001:00038993  5721 0001:0003899D  5724 0001:000389A0
  5725 0001:000389A7  5726 0001:000389B1  5728 0001:000389BE  5730 0001:000389CF
  5733 0001:000389D4  5734 0001:000389DB  5735 0001:000389E5  5742 0001:000389E8
  5743 0001:000389F1  5744 0001:00038A00  5745 0001:00038A0E  5746 0001:00038A19
  5747 0001:00038A3F  5749 0001:00038A4D  5750 0001:00038A62  5751 0001:00038A79
  5746 0001:00038A7C  5753 0001:00038A81  5754 0001:00038A97  5753 0001:00038AB3
  5756 0001:00038AC5  5758 0001:00038AD5  5764 0001:00038ADC  5765 0001:00038AE9
  5766 0001:00038AF9  5767 0001:00038B08  5768 0001:00038B10  5770 0001:00038B1E
  5771 0001:00038B44  5770 0001:00038B68  5773 0001:00038B6D  5778 0001:00038B88
  5779 0001:00038B9A  5780 0001:00038BA3  5782 0001:00038BAF  5783 0001:00038BB9
  5776 0001:00038BC8  5785 0001:00038BD1  5786 0001:00038BD9  5788 0001:00038BE9
  5789 0001:00038BEF  5790 0001:00038C07  5791 0001:00038C21  5789 0001:00038C3A
  5792 0001:00038C3F  5795 0001:00038C44  5796 0001:00038C52  5797 0001:00038C69
  5798 0001:00038C74  5803 0001:00038C78  5804 0001:00038C84  5805 0001:00038C8F
  5806 0001:00038CA3  5809 0001:00038CA8  5810 0001:00038CB4  5812 0001:00038CBA
  5814 0001:00038CCC  5815 0001:00038CDC  5817 0001:00038CEE  5818 0001:00038CFE
  5820 0001:00038D07  5823 0001:00038D0C  5824 0001:00038D18  5826 0001:00038D2A
  5827 0001:00038D3A  5829 0001:00038D4C  5830 0001:00038D5C  5831 0001:00038D64
  5834 0001:00038D68  5835 0001:00038D75  5836 0001:00038D84  5837 0001:00038D96
  5838 0001:00038DA1  5840 0001:00038DAE  5841 0001:00038DBF  5842 0001:00038DD0
  5843 0001:00038DE1  5844 0001:00038DF2  5846 0001:00038E04  5847 0001:00038E15
  5849 0001:00038E1F  5850 0001:00038E33  5852 0001:00038E3E  5853 0001:00038E50
  5856 0001:00038E58  5857 0001:00038E64  5858 0001:00038E76  5861 0001:00038E88
  5862 0001:00038E92  5865 0001:00038E9C  5866 0001:00038EA8  5867 0001:00038EB8
  5868 0001:00038EC3  5869 0001:00038ED5  5870 0001:00038EDD  5875 0001:00038EE4
  5876 0001:00038EF0  5877 0001:00038F12  5878 0001:00038F1A  5879 0001:00038F30
  5880 0001:00038F4A  5883 0001:00038F50  5884 0001:00038F59  5885 0001:00038F5E
  5886 0001:00038F79  5887 0001:00038F97  5892 0001:00038F9C  5893 0001:00038FA9
  5895 0001:00038FC1  5896 0001:00038FD7  5897 0001:00038FE0  5893 0001:00038FE3
  5898 0001:00038FE8  5903 0001:00038FF0  5904 0001:00038FFD  5905 0001:00039004
  5906 0001:00039009  5907 0001:0003900E  5908 0001:00039013  5909 0001:0003901E
  5918 0001:00039024  5919 0001:00039033  5922 0001:0003903D  5923 0001:00039046
  5926 0001:00039092  5927 0001:000390A9  5928 0001:000390B2  5930 0001:000390C6
  5933 0001:000390CC  5934 0001:000390D9  5935 0001:000390E5  5936 0001:000390EE
  5937 0001:000390FA  5938 0001:00039103  5939 0001:00039113  5940 0001:00039123
  5941 0001:0003912E  5942 0001:0003913E  5943 0001:00039144  5946 0001:0003914C
  5947 0001:0003916E  5950 0001:0003917D  5951 0001:00039188  5952 0001:00039192
  5953 0001:000391A0  5955 0001:000391A9  5956 0001:000391B3  5958 0001:000391BD
  5959 0001:000391D2  5960 0001:000391DC  5961 0001:000391F2  5962 0001:000391FE
  5963 0001:0003920A  5964 0001:00039216  5965 0001:00039222  5966 0001:0003922B
  5967 0001:0003923E  5968 0001:0003924D  5969 0001:00039257  5970 0001:00039262
  5971 0001:00039274  5972 0001:0003927C  5973 0001:00039288  5975 0001:000392D1
  5982 0001:000392D8  5983 0001:000392FB  5986 0001:0003930C  5987 0001:0003931F
  5989 0001:00039349  5991 0001:00039359  5992 0001:0003939C  5993 0001:000393A8
  5994 0001:000393C5  5996 0001:000393D8  5998 0001:000393EB  5999 0001:000393F2
  6000 0001:000393F8  6002 0001:0003940B  6003 0001:00039413  6004 0001:00039424
  6005 0001:00039430  6006 0001:00039435  6008 0001:00039462  6010 0001:0003947D
  6011 0001:00039488  6012 0001:00039490  6013 0001:00039498  6014 0001:000394B4
  6015 0001:000394E9  6018 0001:000394F0  6019 0001:000394FC  6022 0001:00039555
  6025 0001:0003955C  6026 0001:00039568  6027 0001:00039570  6028 0001:00039581
  6029 0001:00039592  6030 0001:0003959C  6031 0001:000395A4  6034 0001:000395A8
  6035 0001:000395B4  6036 0001:000395D4  6037 0001:000395DC  6038 0001:000395ED
  6039 0001:000395FE  6040 0001:00039606  6045 0001:0003960C  6046 0001:00039618
  6047 0001:0003963E  6052 0001:00039644  6053 0001:0003964A  6054 0001:0003964E
  6057 0001:00039686  6058 0001:00039695  6059 0001:000396B4  6060 0001:000396CB
  6061 0001:000396E2  6058 0001:000396E5  6062 0001:000396EA  6063 0001:000396F9
  6064 0001:00039718  6065 0001:0003972F  6066 0001:00039746  6063 0001:00039749
  6068 0001:0003974E  6069 0001:00039755  6071 0001:00039760  6072 0001:0003976D
  6073 0001:00039778  6075 0001:000397A0  6080 0001:000397BC  6081 0001:000397C5
  6082 0001:000397D0  6084 0001:000397E8  6085 0001:000397F7  6087 0001:00039812
  6088 0001:00039817  6089 0001:00039822  6092 0001:0003982C  6093 0001:00039833
  6094 0001:0003983C  6095 0001:0003984A  6096 0001:0003985D  6098 0001:0003986F
  6100 0001:00039880  6101 0001:0003988B  6106 0001:00039890  6107 0001:0003989C
  6109 0001:000398C6  6110 0001:000398E0  6111 0001:000398E6  6107 0001:000398E9
  6112 0001:000398EE  6113 0001:000398F6  6118 0001:000398FC  6119 0001:00039905
  6121 0001:00039915  6122 0001:00039920  6123 0001:0003993B  6124 0001:00039956
  6125 0001:0003995F  6127 0001:00039987  6128 0001:0003999F  6127 0001:000399B2
  6130 0001:000399B7  6133 0001:000399BC  6135 0001:000399CB  6136 0001:000399D2
  6141 0001:000399D8  6143 0001:000399F3  6148 0001:000399FC  6149 0001:00039A05
  6151 0001:00039A11  6152 0001:00039A1D  6153 0001:00039A39  6152 0001:00039A52
  6154 0001:00039A57  6156 0001:00039A62  6159 0001:00039A68  6160 0001:00039A6F
  6161 0001:00039A8C  6166 0001:00039A90  6167 0001:00039A9D  6168 0001:00039AAC
  6169 0001:00039AB4  6170 0001:00039ABC  6171 0001:00039ADD  6177 0001:00039AE4
  6178 0001:00039AF0  6181 0001:00039B1D  6183 0001:00039B23  6184 0001:00039B3A
  6185 0001:00039B46  6186 0001:00039B62  6185 0001:00039B7B  6188 0001:00039B80
  6189 0001:00039B8C  6191 0001:00039B9A  6192 0001:00039BA6  6193 0001:00039BB4
  6195 0001:00039BD4  6196 0001:00039BE2  6199 0001:00039BEC  6204 0001:00039BF4
  6205 0001:00039BFD  6208 0001:00039C05  6209 0001:00039C0E  6206 0001:00039C1A
  6211 0001:00039C23  6212 0001:00039C49  6215 0001:00039C50  6216 0001:00039C5C
  6218 0001:00039C7B  6220 0001:00039C99  6221 0001:00039CA5  6222 0001:00039CB8
  6223 0001:00039CCC  6226 0001:00039CEC  6227 0001:00039CF4  6229 0001:00039D00
  6231 0001:00039D08  6234 0001:00039D0C  6235 0001:00039D1B  6236 0001:00039D29
  6237 0001:00039D37  6239 0001:00039D50  6240 0001:00039D55  6243 0001:00039D71
  6245 0001:00039D85  6254 0001:00039D8C  6257 0001:00039D96  6258 0001:00039DCA
  6263 0001:00039E4C  6264 0001:00039E52  6266 0001:00039E5E  6267 0001:00039E64
  6268 0001:00039E73  6269 0001:00039E78  6271 0001:00039E8A  6272 0001:00039E9F
  6273 0001:00039EBB  6271 0001:00039EBE  6274 0001:00039EC4  6276 0001:00039ED6
  6277 0001:00039EEB  6278 0001:00039F07  6276 0001:00039F0A  6279 0001:00039F10
  6280 0001:00039F19  6286 0001:00039F20  6287 0001:00039F2D  6289 0001:00039F40
  6290 0001:00039F56  6292 0001:00039F60  6295 0001:00039F67  6296 0001:00039F87
  6297 0001:00039F8B  6299 0001:00039F91  6300 0001:00039FA1  6301 0001:00039FB1
  6302 0001:00039FD3  6304 0001:00039FDA  6309 0001:00039FE0  6310 0001:00039FED
  6313 0001:0003A032  6314 0001:0003A03D  6317 0001:0003A062  6320 0001:0003A074
  6321 0001:0003A07F  6323 0001:0003A0BF  6324 0001:0003A0C9  6327 0001:0003A0CE
  6331 0001:0003A0E1  6332 0001:0003A0FA  6333 0001:0003A11C  6336 0001:0003A11E
  6338 0001:0003A12C  6340 0001:0003A155  6342 0001:0003A168  6343 0001:0003A173
  6346 0001:0003A178  6347 0001:0003A184  6351 0001:0003A194  6353 0001:0003A1A5
  6354 0001:0003A1C8  6356 0001:0003A1D5  6358 0001:0003A1F3  6361 0001:0003A223
  6362 0001:0003A23E  6363 0001:0003A25E  6366 0001:0003A274  6367 0001:0003A281
  6369 0001:0003A28C  6371 0001:0003A2BF  6372 0001:0003A2C7  6376 0001:0003A2E3
  6377 0001:0003A2EE  6382 0001:0003A2F4  6383 0001:0003A300  6384 0001:0003A304
  6385 0001:0003A30F  6388 0001:0003A315  6389 0001:0003A33B  6391 0001:0003A342
  6398 0001:0003A348  6399 0001:0003A354  6400 0001:0003A35D  6401 0001:0003A378
  6402 0001:0003A386  6404 0001:0003A3A5  6405 0001:0003A3B1  6406 0001:0003A3B8
  6407 0001:0003A3D8  6408 0001:0003A3EC  6412 0001:0003A410  6413 0001:0003A444
  6414 0001:0003A44A  6406 0001:0003A44D  6415 0001:0003A452  6416 0001:0003A466
  6418 0001:0003A473  6420 0001:0003A48D  6422 0001:0003A4B0  6427 0001:0003A4B4
  6428 0001:0003A4C0  6429 0001:0003A4C7  6430 0001:0003A4CD  6431 0001:0003A4D2
  6432 0001:0003A4D7  6433 0001:0003A4E2  6439 0001:0003A4E8  6440 0001:0003A4F7
  6441 0001:0003A51B  6442 0001:0003A52C  6444 0001:0003A53C  6445 0001:0003A541
  6447 0001:0003A547  6448 0001:0003A55B  6450 0001:0003A566  6451 0001:0003A575
  6453 0001:0003A581  6454 0001:0003A595  6458 0001:0003A5F7  6459 0001:0003A600
  6460 0001:0003A609  6461 0001:0003A615  6462 0001:0003A629  6463 0001:0003A644
  6464 0001:0003A656  6465 0001:0003A663  6467 0001:0003A66C  6451 0001:0003A66F
  6470 0001:0003A67B  6471 0001:0003A68B  6472 0001:0003A6AB  6473 0001:0003A6BF
  6477 0001:0003A6FF  6478 0001:0003A712  6480 0001:0003A753  6481 0001:0003A75C
  6482 0001:0003A76F  6484 0001:0003A7B0  6485 0001:0003A7B9  6471 0001:0003A7BC
  6486 0001:0003A7C5  6502 0001:0003A7CC  6503 0001:0003A7DB  6504 0001:0003A7E4
  6505 0001:0003A7F0  6506 0001:0003A7FE  6507 0001:0003A819  6508 0001:0003A81E
  6509 0001:0003A823  6511 0001:0003A838  6512 0001:0003A83F  6514 0001:0003A848
  6516 0001:0003A85F  6517 0001:0003A866  6519 0001:0003A86D  6521 0001:0003A873
  6522 0001:0003A88E  6523 0001:0003A8A3  6524 0001:0003A8B1  6526 0001:0003A8CC
  6527 0001:0003A8DE  6528 0001:0003A8F0  6529 0001:0003A8FC  6530 0001:0003A918
  6531 0001:0003A92C  6529 0001:0003A950  6532 0001:0003A955  6533 0001:0003A962
  6534 0001:0003A96B  6541 0001:0003A974  6542 0001:0003A980  6544 0001:0003A995
  6545 0001:0003A9AA  6547 0001:0003A9BA  6551 0001:0003A9CA  6552 0001:0003A9D4
  6553 0001:0003A9FE  6554 0001:0003AA09  6555 0001:0003AA13  6556 0001:0003AA23
  6557 0001:0003AA31  6558 0001:0003AA46  6559 0001:0003AA5A  6560 0001:0003AA63
  6561 0001:0003AA6E  6562 0001:0003AA76  6563 0001:0003AAAE  6565 0001:0003AACD
  6566 0001:0003AADA  6567 0001:0003AAE3  6570 0001:0003AAF4  6573 0001:0003AAF8
  6574 0001:0003AB04  6575 0001:0003AB21  6578 0001:0003AB28  6579 0001:0003AB34
  6580 0001:0003AB53  6583 0001:0003AB58  6584 0001:0003AB64  6585 0001:0003AB69
  6586 0001:0003AB7A  6589 0001:0003AB80  6590 0001:0003AB8C  6591 0001:0003ABA6
  6594 0001:0003ABAC  6595 0001:0003ABB8  6596 0001:0003ABC9  6599 0001:0003ABD0
  6600 0001:0003ABDC  6601 0001:0003ABED  6604 0001:0003ABF4  6605 0001:0003AC00
  6606 0001:0003AC1D  6609 0001:0003AC24  6610 0001:0003AC30  6611 0001:0003AC4D
  6614 0001:0003AC54  6615 0001:0003AC60  6616 0001:0003AC80  6619 0001:0003AC84
  6620 0001:0003AC90  6621 0001:0003ACB0  6624 0001:0003ACB4  6625 0001:0003ACC0
  6626 0001:0003ACE0  6629 0001:0003ACE4  6630 0001:0003ACF0  6631 0001:0003AD10
  6634 0001:0003AD14  6635 0001:0003AD20  6636 0001:0003AD28  6639 0001:0003AD46
  6644 0001:0003AD66  6646 0001:0003AD80  6649 0001:0003ADAA  6650 0001:0003ADB4
  6655 0001:0003ADB8  6656 0001:0003ADC4  6658 0001:0003ADF7  6660 0001:0003AE1F
  6662 0001:0003AE47  6663 0001:0003AE55  6664 0001:0003AE5D  6665 0001:0003AE66
  6666 0001:0003AE6E  6667 0001:0003AE79  6669 0001:0003AE93  6670 0001:0003AE9B
  6673 0001:0003AEA0  6674 0001:0003AEAC  6675 0001:0003AEC5  6676 0001:0003AECE
  6677 0001:0003AEEF  6678 0001:0003AEF6  6679 0001:0003AF01  6682 0001:0003AF10
  6683 0001:0003AF1D  6684 0001:0003AF25  6685 0001:0003AF30  6686 0001:0003AF38
  6687 0001:0003AF4D  6690 0001:0003AF54  6691 0001:0003AF60  6692 0001:0003AF6B
  6693 0001:0003AF73  6700 0001:0003AF78  6702 0001:0003AF85  6703 0001:0003AF9A
  6706 0001:0003AFB5  6707 0001:0003AFC4  6709 0001:0003AFCB  6710 0001:0003AFD4
  6711 0001:0003AFF4  6712 0001:0003AFFA  6713 0001:0003B003  6715 0001:0003B00B
  6716 0001:0003B016  6717 0001:0003B01D  6718 0001:0003B026  6720 0001:0003B02E
  6722 0001:0003B039  6724 0001:0003B040  6725 0001:0003B056  6726 0001:0003B060
  6730 0001:0003B062  6733 0001:0003B095  6734 0001:0003B0A1  6737 0001:0003B0A3
  6738 0001:0003B0AE  6741 0001:0003B0B4  6742 0001:0003B0C0  6743 0001:0003B0CB
  6744 0001:0003B0D3  6747 0001:0003B0D8  6748 0001:0003B0E4  6749 0001:0003B0EF
  6750 0001:0003B0F7  6753 0001:0003B0FC  6754 0001:0003B108  6755 0001:0003B112
  6756 0001:0003B11D  6759 0001:0003B124  6760 0001:0003B130  6761 0001:0003B13A
  6762 0001:0003B145  6819 0001:0003B14C  6820 0001:0003B168  6821 0001:0003B177
  6823 0001:0003B187  6825 0001:0003B1C0  6826 0001:0003B1CD  6828 0001:0003B1D9
  6829 0001:0003B1F6  6830 0001:0003B1FC  6832 0001:0003B213  6835 0001:0003B21E
  6836 0001:0003B251  6839 0001:0003B258  6840 0001:0003B274  6841 0001:0003B27F
  6843 0001:0003B28B  6844 0001:0003B2AF  6846 0001:0003B2C1  6847 0001:0003B2F9
  6850 0001:0003B300  6851 0001:0003B30F  6852 0001:0003B31A  6855 0001:0003B320
  6857 0001:0003B32C  6860 0001:0003B330  6861 0001:0003B338  6862 0001:0003B357
  6865 0001:0003B35C  6866 0001:0003B364  6867 0001:0003B383  6870 0001:0003B388
  6871 0001:0003B398  6873 0001:0003B3C7  6874 0001:0003B3E4  6878 0001:0003B3EC
  6879 0001:0003B3FC  6880 0001:0003B409  6881 0001:0003B42E  6885 0001:0003B438
  6886 0001:0003B448  6887 0001:0003B457  6888 0001:0003B475  6891 0001:0003B47C
  6892 0001:0003B48C  6893 0001:0003B490  6894 0001:0003B4BA  6895 0001:0003B4E4
  6899 0001:0003B4EC  6900 0001:0003B4FB  6901 0001:0003B519  6904 0001:0003B520
  6905 0001:0003B529  6906 0001:0003B546  6907 0001:0003B54E  6910 0001:0003B554
  6911 0001:0003B560  6912 0001:0003B582  6913 0001:0003B58A  6919 0001:0003B590
  6920 0001:0003B5AA  6921 0001:0003B5BC  6922 0001:0003B5C9  6923 0001:0003B5D6
  6924 0001:0003B5F7  6929 0001:0003B600  6930 0001:0003B609  6931 0001:0003B614
  6932 0001:0003B61A  6933 0001:0003B626  6932 0001:0003B643  6934 0001:0003B64C
  6937 0001:0003B650  6939 0001:0003B657  6942 0001:0003B65C  6943 0001:0003B668
  6944 0001:0003B68C  6945 0001:0003B6AC  6946 0001:0003B6BD  6947 0001:0003B6E0
  6950 0001:0003B6E4  6951 0001:0003B704  6953 0001:0003B716  6954 0001:0003B722
  6956 0001:0003B72B  6957 0001:0003B736  6959 0001:0003B73C  6960 0001:0003B74A
  6961 0001:0003B755  6964 0001:0003B764  6965 0001:0003B785  6969 0001:0003B7C1
  6975 0001:0003B7C8  6977 0001:0003B7D7  6980 0001:0003B7E4  6981 0001:0003B7F4
  6982 0001:0003B80A  6983 0001:0003B812  6984 0001:0003B820  6985 0001:0003B838
  6986 0001:0003B850  6989 0001:0003B887  6991 0001:0003B897  6992 0001:0003B8A2
  6993 0001:0003B8B0  6995 0001:0003B8BA  6998 0001:0003B8C4  7001 0001:0003B8D0
  7002 0001:0003B8D8  7003 0001:0003B8F0  7005 0001:0003B904  7010 0001:0003B908
  7011 0001:0003B916  7013 0001:0003B92C  7014 0001:0003B935  7015 0001:0003B943
  7017 0001:0003B967  7021 0001:0003B97D  7022 0001:0003B988  7025 0001:0003B990
  7026 0001:0003B9A0  7027 0001:0003B9C6  7033 0001:0003B9CC  7034 0001:0003B9D9
  7035 0001:0003B9DD  7036 0001:0003B9E8  7040 0001:0003BA11  7041 0001:0003BA1F
  7043 0001:0003BA28  7044 0001:0003BA3D  7047 0001:0003BA47  7048 0001:0003BA4E
  7051 0001:0003BA54  7052 0001:0003BA60  7053 0001:0003BA7A  7054 0001:0003BA89
  7057 0001:0003BA90  7058 0001:0003BA9C  7059 0001:0003BAB6  7060 0001:0003BAC5
  7063 0001:0003BACC  7064 0001:0003BADC  7065 0001:0003BB02  7071 0001:0003BB08
  7072 0001:0003BB15  7073 0001:0003BB19  7074 0001:0003BB24  7078 0001:0003BB4D
  7079 0001:0003BB5B  7081 0001:0003BB64  7082 0001:0003BB79  7085 0001:0003BB83
  7086 0001:0003BB8A  7089 0001:0003BB90  7090 0001:0003BB9C  7091 0001:0003BBB6
  7094 0001:0003BBBC  7095 0001:0003BBC8  7096 0001:0003BBE2  7099 0001:0003BBE8
  7100 0001:0003BBF5  7101 0001:0003BC17  7107 0001:0003BC1C  7108 0001:0003BC29
  7109 0001:0003BC2D  7110 0001:0003BC38  7112 0001:0003BC61  7115 0001:0003BC6A
  7116 0001:0003BC73  7117 0001:0003BC82  7118 0001:0003BC8E  7120 0001:0003BC97
  7121 0001:0003BC9E  7124 0001:0003BCA4  7125 0001:0003BCB0  7126 0001:0003BCCA
  7136 0001:0003BCD0  7137 0001:0003BCD9  7138 0001:0003BCDD  7139 0001:0003BCED
  7141 0001:0003BD09  7142 0001:0003BD17  7144 0001:0003BD2C  7149 0001:0003BD7C
  7150 0001:0003BD80  7153 0001:0003BD82  7139 0001:0003BD85  7154 0001:0003BD91
  7156 0001:0003BD98  7159 0001:0003BDA4  7163 0001:0003BDF5  7164 0001:0003BE00
  7169 0001:0003BE1D  7172 0001:0003BE3D  7173 0001:0003BE48  7176 0001:0003BE4C
  7177 0001:0003BE58  7178 0001:0003BE75  7181 0001:0003BE7C  7183 0001:0003BE88
  7184 0001:0003BEAE  7185 0001:0003BEB9  7188 0001:0003BEC0  7189 0001:0003BECC
  7190 0001:0003BEE9  7193 0001:0003BEF0  7194 0001:0003BEFC  7195 0001:0003BF07
  7196 0001:0003BF1E  7197 0001:0003BF35  7200 0001:0003BF3C  7201 0001:0003BF48
  7202 0001:0003BF53  7203 0001:0003BF5E  7204 0001:0003BF68  7207 0001:0003BF6C
  7209 0001:0003BF78  7210 0001:0003BF8A  7212 0001:0003BF96  7213 0001:0003BFA1
  7218 0001:0003BFA8  7219 0001:0003BFB5  7220 0001:0003BFC3  7221 0001:0003BFCC
  7223 0001:0003BFDD  7224 0001:0003BFE5  7225 0001:0003C002  7221 0001:0003C005
  7226 0001:0003C00E  7229 0001:0003C014  7230 0001:0003C021  7231 0001:0003C029
  7232 0001:0003C040  7235 0001:0003C048  7236 0001:0003C055  7237 0001:0003C06C
  7240 0001:0003C074  7241 0001:0003C080  7242 0001:0003C08B  7243 0001:0003C097
  7246 0001:0003C09C  7247 0001:0003C0A8  7248 0001:0003C0B3  7249 0001:0003C0CF
  7250 0001:0003C0DB  7253 0001:0003C0E0  7254 0001:0003C0ED  7255 0001:0003C0F8
  7257 0001:0003C104  7258 0001:0003C111  7261 0001:0003C12A  7262 0001:0003C137
  7263 0001:0003C14E  7264 0001:0003C15A  7267 0001:0003C160  7268 0001:0003C16D
  7269 0001:0003C179  7272 0001:0003C180  7273 0001:0003C18C  7274 0001:0003C1A6
  7277 0001:0003C1AC  7278 0001:0003C1B9  7279 0001:0003C1D1  7282 0001:0003C1D8
  7283 0001:0003C1E5  7284 0001:0003C1FD  7287 0001:0003C204  7288 0001:0003C210
  7289 0001:0003C21B  7292 0001:0003C220  7293 0001:0003C22C  7294 0001:0003C237
  7297 0001:0003C23C  7298 0001:0003C248  7299 0001:0003C253  7302 0001:0003C258
  7303 0001:0003C264  7304 0001:0003C280  7305 0001:0003C292  7306 0001:0003C29A
  7313 0001:0003C2A0  7314 0001:0003C2AC  7315 0001:0003C2D8  7318 0001:0003C2DC
  7319 0001:0003C2E8  7320 0001:0003C307  7321 0001:0003C31C  7322 0001:0003C338
  7325 0001:0003C33C  7326 0001:0003C348  7327 0001:0003C353  7328 0001:0003C367
  7329 0001:0003C373  7332 0001:0003C378  7333 0001:0003C384  7334 0001:0003C38F
  7335 0001:0003C3B7  7336 0001:0003C3C3  7341 0001:0003C3C8  7342 0001:0003C3D4
  7344 0001:0003C3DD  7345 0001:0003C3E6  7346 0001:0003C3F5  7348 0001:0003C40E
  7351 0001:0003C414  7352 0001:0003C420  7353 0001:0003C42B  7356 0001:0003C437
  7357 0001:0003C451  7358 0001:0003C45A  7360 0001:0003C462  7363 0001:0003C468
  7364 0001:0003C474  7365 0001:0003C4A5  7366 0001:0003C4AD  7367 0001:0003C4B9
  7370 0001:0003C4C0  7371 0001:0003C4CC  7373 0001:0003C4D8  7374 0001:0003C4E1
  7375 0001:0003C4F5  7376 0001:0003C509  7378 0001:0003C513  7381 0001:0003C518
  7382 0001:0003C524  7383 0001:0003C52F  7386 0001:0003C534  7387 0001:0003C540
  7388 0001:0003C54B  7391 0001:0003C550  7392 0001:0003C55C  7393 0001:0003C567
  7396 0001:0003C56C  7397 0001:0003C578  7398 0001:0003C583  7401 0001:0003C588
  7402 0001:0003C594  7403 0001:0003C59D  7405 0001:0003C5AD  7408 0001:0003C5C6
  7409 0001:0003C5EB  7412 0001:0003C5FD  7415 0001:0003C604  7416 0001:0003C611
  7417 0001:0003C629  7420 0001:0003C630  7421 0001:0003C63C  7422 0001:0003C647
  7423 0001:0003C652  7430 0001:0003C658  7431 0001:0003C665  7432 0001:0003C669
  7434 0001:0003C672  7435 0001:0003C678  7437 0001:0003C67E  7438 0001:0003C68D
  7440 0001:0003C6AF  7435 0001:0003C6B8  7442 0001:0003C6BE  7443 0001:0003C6C9
  7446 0001:0003C6E2  7447 0001:0003C6FD  7448 0001:0003C704  7453 0001:0003C70C
  7456 0001:0003C718  7457 0001:0003C722  7458 0001:0003C731  7459 0001:0003C744
  7461 0001:0003C751  7462 0001:0003C771  7463 0001:0003C776  7465 0001:0003C7A4
  7467 0001:0003C7AD  7469 0001:0003C7B6  7471 0001:0003C7BD  7477 0001:0003C817
  7479 0001:0003C81F  7482 0001:0003C824  7483 0001:0003C830  7485 0001:0003C839
  7488 0001:0003C865  7490 0001:0003C881  7493 0001:0003C888  7494 0001:0003C894
  7497 0001:0003C89D  7498 0001:0003C8A7  7501 0001:0003C8E0  7503 0001:0003C8E8
  7506 0001:0003C8EC  7509 0001:0003C8F8  7510 0001:0003C902  7511 0001:0003C911
  7513 0001:0003C91A  7514 0001:0003C936  7517 0001:0003C95A  7519 0001:0003C962
  7522 0001:0003C968  7523 0001:0003C974  7525 0001:0003C97D  7526 0001:0003C987
  7528 0001:0003C9AD  7533 0001:0003C9B4  7534 0001:0003C9C5  7537 0001:0003C9F5
  7538 0001:0003CA14  7542 0001:0003CA39  7543 0001:0003CA42  7544 0001:0003CA4B
  7545 0001:0003CA54  7546 0001:0003CA5D  7548 0001:0003CA69  7549 0001:0003CA70
  7550 0001:0003CA83  7551 0001:0003CA98  7554 0001:0003CAAB  7555 0001:0003CAB3
  7557 0001:0003CABF  7562 0001:0003CAC8  7563 0001:0003CAD8  7564 0001:0003CB12
  7567 0001:0003CB18  7568 0001:0003CB27  7569 0001:0003CB2F  7570 0001:0003CB3D
  7571 0001:0003CB4B  7574 0001:0003CB68  7575 0001:0003CB88  7577 0001:0003CBA8
  7579 0001:0003CBC3  7581 0001:0003CBD3  7604 0001:0003CBD8  7605 0001:0003CBE7
  7606 0001:0003CC0F  7607 0001:0003CC30  7609 0001:0003CC4C  7610 0001:0003CC5A
  7612 0001:0003CC78  7613 0001:0003CC81  7615 0001:0003CC8C  7616 0001:0003CC92
  7619 0001:0003CCC7  7607 0001:0003CCCA  7620 0001:0003CCD3  7621 0001:0003CCDB
  7624 0001:0003CCE0  7625 0001:0003CCEC  7626 0001:0003CD06  7632 0001:0003CD0C
  7633 0001:0003CD18  7635 0001:0003CD25  7636 0001:0003CD34  7637 0001:0003CD46
  7638 0001:0003CD5D  7640 0001:0003CD63  7641 0001:0003CD75  7642 0001:0003CD80
  7643 0001:0003CD8F  7645 0001:0003CD97  7646 0001:0003CDAB  7649 0001:0003CDC2
  7651 0001:0003CDD2  7652 0001:0003CDE1  7653 0001:0003CDFD  7654 0001:0003CE05
  7655 0001:0003CE24  7656 0001:0003CE2C  7658 0001:0003CE48  7661 0001:0003CE65
  7668 0001:0003CE6C  7669 0001:0003CE78  7671 0001:0003CE81  7672 0001:0003CEA1
  7673 0001:0003CEA6  7674 0001:0003CEC7  7676 0001:0003CED7  7677 0001:0003CEE3
  7679 0001:0003CF0A  7682 0001:0003CF10  7683 0001:0003CF1C  7684 0001:0003CF25
  7686 0001:0003CF3C  7687 0001:0003CF4D  7688 0001:0003CF6A  7689 0001:0003CF7B
  7711 0001:0003CF80  7712 0001:0003CF87  7713 0001:0003CF98  7718 0001:0003CF9C
  7719 0001:0003CFA8  7721 0001:0003CFB8  7722 0001:0003CFD8  7724 0001:0003CFE1
  7726 0001:0003D003  7727 0001:0003D011  7728 0001:0003D029  7729 0001:0003D03A
  7727 0001:0003D04D  7732 0001:0003D052  7735 0001:0003D058  7736 0001:0003D05F
  7737 0001:0003D07A  7740 0001:0003D080  7741 0001:0003D087  7742 0001:0003D08F
  7743 0001:0003D09A  7748 0001:0003D0A0  7749 0001:0003D0A9  7750 0001:0003D0B4
  7751 0001:0003D0C1  7752 0001:0003D0D9  7758 0001:0003D0E0  7759 0001:0003D0E9
  7760 0001:0003D0ED  7761 0001:0003D0F8  7763 0001:0003D0FE  7764 0001:0003D104
  7766 0001:0003D10C  7767 0001:0003D121  7764 0001:0003D12A  7769 0001:0003D132
  7771 0001:0003D139  7776 0001:0003D140  7777 0001:0003D149  7778 0001:0003D154
  7779 0001:0003D15A  7780 0001:0003D167  7781 0001:0003D173  7783 0001:0003D183
  7784 0001:0003D18B  7787 0001:0003D190  7788 0001:0003D199  7789 0001:0003D1C1
  7792 0001:0003D1C8  7793 0001:0003D1CF  7795 0001:0003D1DB  7796 0001:0003D1EF
  7798 0001:0003D1FA  7801 0001:0003D200  7802 0001:0003D209  7803 0001:0003D211
  7804 0001:0003D220  7809 0001:0003D224  7810 0001:0003D230  7811 0001:0003D247
  7812 0001:0003D263  7813 0001:0003D271  7816 0001:0003D290  7817 0001:0003D2A8
  7818 0001:0003D2C2  7819 0001:0003D2E8  7820 0001:0003D30E  7811 0001:0003D311
  7821 0001:0003D31A  7824 0001:0003D320  7825 0001:0003D32C  7826 0001:0003D333
  7827 0001:0003D33B  7828 0001:0003D34D  7831 0001:0003D354  7832 0001:0003D360
  7833 0001:0003D372  7836 0001:0003D378  7837 0001:0003D380  7840 0001:0003D395
  7841 0001:0003D3B9  7843 0001:0003D3C5  7846 0001:0003D3CC  7847 0001:0003D3D8
  7849 0001:0003D3E6  7850 0001:0003D3F2  7852 0001:0003D403  7855 0001:0003D408
  7856 0001:0003D414  7858 0001:0003D422  7859 0001:0003D42E  7860 0001:0003D438
  7862 0001:0003D449  7884 0001:0003D450  7885 0001:0003D459  7886 0001:0003D46A
  7889 0001:0003D470  7890 0001:0003D47C  7892 0001:0003D48A  7893 0001:0003D496
  7894 0001:0003D4A8  7896 0001:0003D4B9  7899 0001:0003D4C0  7900 0001:0003D4C9
  7901 0001:0003D4D2  7903 0001:0003D4EC  7904 0001:0003D4F6  7909 0001:0003D4FC
  7910 0001:0003D509  7911 0001:0003D517  7913 0001:0003D51D  7914 0001:0003D52F
  7915 0001:0003D53C  7916 0001:0003D54E  7918 0001:0003D557  7919 0001:0003D56B
  7922 0001:0003D583  7925 0001:0003D588  7926 0001:0003D595  7927 0001:0003D59E
  7928 0001:0003D5AD  7929 0001:0003D5B9  7934 0001:0003D5C0  7935 0001:0003D5CC
  7937 0001:0003D5DA  7938 0001:0003D5E6  7940 0001:0003D5F2  7941 0001:0003D60B
  7942 0001:0003D618  7944 0001:0003D62D  7946 0001:0003D63E  7949 0001:0003D644
  7950 0001:0003D664  7952 0001:0003D672  7953 0001:0003D67E  7954 0001:0003D68F
  7956 0001:0003D6CB  7959 0001:0003D6D0  7960 0001:0003D6D9  7961 0001:0003D6EA
  7968 0001:0003D6F0  7969 0001:0003D6FB  7971 0001:0003D70E  7972 0001:0003D715
  7973 0001:0003D728  7975 0001:0003D734  7976 0001:0003D747  7978 0001:0003D75F
  7979 0001:0003D773  7981 0001:0003D779  7982 0001:0003D786  7985 0001:0003D793
  7986 0001:0003D79C  7987 0001:0003D7A5  7988 0001:0003D7B1  7989 0001:0003D7BD
  7990 0001:0003D7C5  7996 0001:0003D7CC  7997 0001:0003D7D9  7998 0001:0003D7E5
  8000 0001:0003D801  8001 0001:0003D815  8002 0001:0003D820  8003 0001:0003D82F
  7998 0001:0003D832  8004 0001:0003D837  8011 0001:0003D83C  8012 0001:0003D84C
  8013 0001:0003D851  8014 0001:0003D860  8015 0001:0003D86E  8016 0001:0003D87D
  8018 0001:0003D88A  8019 0001:0003D898  8020 0001:0003D89E  8021 0001:0003D8B5
  8023 0001:0003D8BB  8025 0001:0003D8C1  8026 0001:0003D8C4  8029 0001:0003D8D6
  8030 0001:0003D8E5  8032 0001:0003D8E8  8033 0001:0003D8F6  8036 0001:0003D929
  8037 0001:0003D92F  8040 0001:0003D94E  8042 0001:0003D961  8046 0001:0003D968
  8047 0001:0003D977  8049 0001:0003D992  8050 0001:0003D9A3  8071 0001:0003D9AC
  8072 0001:0003D9B8  8074 0001:0003D9D0  8075 0001:0003D9DE  8076 0001:0003D9F2
  8072 0001:0003D9F5  8077 0001:0003D9FA  8080 0001:0003DA00  8081 0001:0003DA0F
  8082 0001:0003DA21  8083 0001:0003DA2E  8084 0001:0003DA40  8085 0001:0003DA4B
  8089 0001:0003DA50  8090 0001:0003DA5F  8091 0001:0003DA73  8110 0001:0003DA78
  8113 0001:0003DA88  8114 0001:0003DA94  8116 0001:0003DAA4  8117 0001:0003DAAB
  8118 0001:0003DAB7  8120 0001:0003DAC7  8121 0001:0003DACE  8122 0001:0003DADA
  8124 0001:0003DAEA  8125 0001:0003DAF1  8126 0001:0003DAFD  8128 0001:0003DB0D
  8130 0001:0003DB14  8132 0001:0003DB2A  8134 0001:0003DB34  8135 0001:0003DB43
  8137 0001:0003DB63  8138 0001:0003DB6E  8139 0001:0003DB7C  8140 0001:0003DB8D
  8141 0001:0003DB9E  8142 0001:0003DBAF  8143 0001:0003DBC0  8144 0001:0003DBD1
  8145 0001:0003DBE1  8146 0001:0003DBF1  8147 0001:0003DC01  8149 0001:0003DC11
  8150 0001:0003DC1F  8151 0001:0003DC24  8152 0001:0003DC29  8153 0001:0003DC2E
  8154 0001:0003DC33  8155 0001:0003DC38  8156 0001:0003DC3D  8157 0001:0003DC42
  8158 0001:0003DC47  8160 0001:0003DC63  8162 0001:0003DC71  8165 0001:0003DC94
  8168 0001:0003DCAC  8169 0001:0003DCC0  8170 0001:0003DCC6  8172 0001:0003DCCC
  8174 0001:0003DCE2  8176 0001:0003DCE6  8177 0001:0003DCEC  8178 0001:0003DCFE
  8179 0001:0003DD04  8182 0001:0003DD18  8184 0001:0003DD1E  8187 0001:0003DD22
  8188 0001:0003DD36  8189 0001:0003DD3C  8191 0001:0003DD42  8193 0001:0003DD58
  8195 0001:0003DD5C  8196 0001:0003DD62  8197 0001:0003DD74  8198 0001:0003DD7A
  8201 0001:0003DD8E  8203 0001:0003DD94  8207 0001:0003DD98  8210 0001:0003DDA4
  8212 0001:0003DDB4  8213 0001:0003DDBC  8214 0001:0003DDC6  8216 0001:0003DDCE
  8218 0001:0003DDDE  8219 0001:0003DDE6  8220 0001:0003DDF0  8225 0001:0003DDFA
  8226 0001:0003DE03  8231 0001:0003DE0C  8234 0001:0003DE18  8236 0001:0003DE28
  8237 0001:0003DE30  8238 0001:0003DE3A  8240 0001:0003DE42  8242 0001:0003DE52
  8243 0001:0003DE5A  8244 0001:0003DE64  8249 0001:0003DE6E  8250 0001:0003DE77
  8254 0001:0003DE80  8158 0001:0003DE83  8255 0001:0003DE8C  8256 0001:0003DE9F
  8257 0001:0003DEAA  8258 0001:0003DEC5  8259 0001:0003DED0  8260 0001:0003DEE3
  8261 0001:0003DEEE  8262 0001:0003DF09  8264 0001:0003DF21  8265 0001:0003DF31
  8266 0001:0003DF41  8267 0001:0003DF51  8269 0001:0003DF69  8273 0001:0003DF78
  8274 0001:0003DF87  8275 0001:0003DF9D  8276 0001:0003DFB3  8279 0001:0003DFBC
  8280 0001:0003DFCB  8281 0001:0003DFD9  8283 0001:0003DFEB  8284 0001:0003DFFD
  8285 0001:0003E00B  8288 0001:0003E010  8289 0001:0003E019  8290 0001:0003E024
  8294 0001:0003E028  8295 0001:0003E034  8296 0001:0003E03F  8297 0001:0003E062
  8303 0001:0003E068  8304 0001:0003E079  8306 0001:0003E07D  8309 0001:0003E0B3
  8311 0001:0003E0C1  8312 0001:0003E0CC  8313 0001:0003E0DA  8314 0001:0003E0E2
  8315 0001:0003E0F0  8316 0001:0003E10C  8317 0001:0003E11A  8320 0001:0003E135
  8321 0001:0003E145  8322 0001:0003E150  8323 0001:0003E155  8324 0001:0003E15F
  8325 0001:0003E16A  8326 0001:0003E16F  8327 0001:0003E19A  8315 0001:0003E19D
  8329 0001:0003E1B3  8330 0001:0003E1BB  8332 0001:0003E1CB  8333 0001:0003E1DB
  8335 0001:0003E1E5  8336 0001:0003E1FE  8339 0001:0003E215  8340 0001:0003E21C
  8341 0001:0003E226  8343 0001:0003E230  8344 0001:0003E249  8347 0001:0003E260
  8349 0001:0003E26A  8352 0001:0003E270  8353 0001:0003E27F  8355 0001:0003E28B
  8357 0001:0003E299  8358 0001:0003E2A5  8361 0001:0003E2B8  8363 0001:0003E2C6
  8364 0001:0003E2D2  8367 0001:0003E2E3  8370 0001:0003E2E8  8371 0001:0003E2F4
  8373 0001:0003E302  8374 0001:0003E30E  8376 0001:0003E31F  8379 0001:0003E324
  8380 0001:0003E330  8382 0001:0003E33E  8383 0001:0003E34A  8385 0001:0003E35B
  8399 0001:0003E360  8400 0001:0003E36C  8401 0001:0003E377  8403 0001:0003E380
  8404 0001:0003E3A1  8406 0001:0003E3B1  8407 0001:0003E3B6  8408 0001:0003E3CE
  8409 0001:0003E3E6  8411 0001:0003E3EC  8412 0001:0003E400  8413 0001:0003E415
  8414 0001:0003E42A  8418 0001:0003E43F  8431 0001:0003E444  8433 0001:0003E452
  8435 0001:0003E46E  8436 0001:0003E47F  8437 0001:0003E48D  8438 0001:0003E49F
  8439 0001:0003E4B1  8440 0001:0003E4C7  8441 0001:0003E4DC  8443 0001:0003E4F5
  8444 0001:0003E4FF  8445 0001:0003E51C  8446 0001:0003E526  8448 0001:0003E536
  8449 0001:0003E53B  8450 0001:0003E553  8453 0001:0003E56B  8454 0001:0003E57E
  8455 0001:0003E590  8456 0001:0003E5A2  8457 0001:0003E5B4  8458 0001:0003E5C8
  8459 0001:0003E5DA  8461 0001:0003E5EE  8464 0001:0003E650  8465 0001:0003E669
  8467 0001:0003E673  8468 0001:0003E688  8470 0001:0003E6B1  8474 0001:0003E6CB
  8476 0001:0003E6D6  8477 0001:0003E6ED  8478 0001:0003E6FC  8497 0001:0003E704
  8498 0001:0003E710  8499 0001:0003E719  8500 0001:0003E747  8501 0001:0003E74D
  8503 0001:0003E769  8504 0001:0003E772  8505 0001:0003E77D  8510 0001:0003E784
  8511 0001:0003E791  8512 0001:0003E79C  8513 0001:0003E7A2  8515 0001:0003E7BB
  8517 0001:0003E7DB  8519 0001:0003E7F9  8522 0001:0003E800  8524 0001:0003E80C
  8525 0001:0003E815  8526 0001:0003E827  8528 0001:0003E834  8530 0001:0003E841
  8531 0001:0003E84C  8534 0001:0003E850  8535 0001:0003E859  8536 0001:0003E869
  8539 0001:0003E870  8540 0001:0003E87C  8542 0001:0003E889  8543 0001:0003E88F
  8545 0001:0003E8A2  8546 0001:0003E8B5  8548 0001:0003E8BD  8591 0001:0003E8C8
  8592 0001:0003E8E3  8593 0001:0003E8F0  8594 0001:0003E8FD  8595 0001:0003E918
  8596 0001:0003E946  8599 0001:0003E94C  8600 0001:0003E958  8603 0001:0003E963
  8604 0001:0003E96D  8605 0001:0003E977  8606 0001:0003E980  8608 0001:0003E98A
  8609 0001:0003E99D  8610 0001:0003E9A7  8611 0001:0003E9BA  8613 0001:0003E9C8
  8616 0001:0003E9CC  8617 0001:0003E9D8  8618 0001:0003E9E2  8623 0001:0003E9E8
  8624 0001:0003E9F4  8625 0001:0003EA05  8626 0001:0003EA13  8628 0001:0003EA2E
  8630 0001:0003EA48  8635 0001:0003EA4C  8636 0001:0003EA68  8637 0001:0003EA73
  8638 0001:0003EA77  8639 0001:0003EA7B  8640 0001:0003EA9C  8642 0001:0003EAF5
  8645 0001:0003EAFC  8646 0001:0003EB08  8652 0001:0003EB8C  8655 0001:0003EB90
  8656 0001:0003EB97  8657 0001:0003EB9F  8660 0001:0003EBA4  8661 0001:0003EBC6
  8663 0001:0003EBD1  8664 0001:0003EBDD  8665 0001:0003EC06  8666 0001:0003EC51
  8677 0001:0003EC58  8678 0001:0003EC6F  8679 0001:0003EC79  8680 0001:0003EC87
  8681 0001:0003EC92  8682 0001:0003EC96  8683 0001:0003ECA1  8684 0001:0003ECBA
  8685 0001:0003ECCF  8686 0001:0003ECE8  8687 0001:0003ECFD  8688 0001:0003ED1D
  8689 0001:0003ED3D  8691 0001:0003ED65  8694 0001:0003ED98  8695 0001:0003EDAA
  8697 0001:0003EDB0  8698 0001:0003EDC2  8699 0001:0003EDC8  8701 0001:0003EDCE
  8702 0001:0003EDE3  8704 0001:0003EDE9  8705 0001:0003EDED  8708 0001:0003EE10
  8709 0001:0003EE22  8710 0001:0003EE32  8712 0001:0003EE47  8713 0001:0003EE55
  8715 0001:0003EE67  8718 0001:0003EE70  8719 0001:0003EE88  8720 0001:0003EE99
  8723 0001:0003EEA4  8724 0001:0003EEB3  8725 0001:0003EEC5  8727 0001:0003EEF6
  8728 0001:0003EEFD  8729 0001:0003EF04  8735 0001:0003EF0C  8736 0001:0003EF18
  8737 0001:0003EF32  8738 0001:0003EF40  8741 0001:0003EF53  8742 0001:0003EF62
  8744 0001:0003EF7C  8747 0001:0003EF80  8748 0001:0003EF8C  8749 0001:0003EF9E
  8750 0001:0003EFAF  8758 0001:0003EFB4  8759 0001:0003EFC3  8760 0001:0003EFC9
  8761 0001:0003EFCF  8762 0001:0003EFDC  8763 0001:0003EFE9  8764 0001:0003EFF4
  8765 0001:0003F000  8777 0001:0003F008  8778 0001:0003F011  8780 0001:0003F01F
  8782 0001:0003F045  8783 0001:0003F053  8784 0001:0003F070  8785 0001:0003F08D
  8786 0001:0003F09C  8787 0001:0003F0A7  8789 0001:0003F0C7  8792 0001:0003F0D8
  8795 0001:0003F0DC  8796 0001:0003F0EB  8798 0001:0003F0F7  8799 0001:0003F100
  8800 0001:0003F109  8801 0001:0003F112  8802 0001:0003F12C  8803 0001:0003F130
  8805 0001:0003F13B  8806 0001:0003F142  8809 0001:0003F148  8810 0001:0003F155
  8812 0001:0003F162  8813 0001:0003F16D  8815 0001:0003F17E  8825 0001:0003F184
  8826 0001:0003F193  8827 0001:0003F197  8829 0001:0003F1A3  8830 0001:0003F1C7
  8831 0001:0003F1CF  8832 0001:0003F1E4  8834 0001:0003F1F4  8837 0001:0003F1FC
  8838 0001:0003F20B  8839 0001:0003F20F  8841 0001:0003F226  8842 0001:0003F22E
  8843 0001:0003F237  8844 0001:0003F24C  8846 0001:0003F26C  8849 0001:0003F274
  8850 0001:0003F27B  8852 0001:0003F290  8853 0001:0003F29C  8855 0001:0003F2A4
  8858 0001:0003F2A8  8859 0001:0003F2B7  8860 0001:0003F2C3  8861 0001:0003F2D8
  8863 0001:0003F2F0  8864 0001:0003F2F7  8867 0001:0003F2FC  8868 0001:0003F303
  8869 0001:0003F316  8872 0001:0003F31C  8873 0001:0003F323  8874 0001:0003F336
  8877 0001:0003F33C  8878 0001:0003F345  8880 0001:0003F35A  8881 0001:0003F362
  8882 0001:0003F370  8883 0001:0003F377  8884 0001:0003F382  8886 0001:0003F38B
  8887 0001:0003F392  8892 0001:0003F398  8893 0001:0003F3B3  8894 0001:0003F3C0
  8895 0001:0003F3D5  8896 0001:0003F401  8899 0001:0003F408  8900 0001:0003F419
  8901 0001:0003F427  8902 0001:0003F443  8905 0001:0003F448  8906 0001:0003F454
  8907 0001:0003F45D  8908 0001:0003F468  8909 0001:0003F471  8912 0001:0003F478
  8913 0001:0003F484  8914 0001:0003F492  8915 0001:0003F4A0  8916 0001:0003F4B1
  8917 0001:0003F4BF  8918 0001:0003F4CD  8920 0001:0003F4E5  8923 0001:0003F50A
  8925 0001:0003F520  8928 0001:0003F524  8929 0001:0003F52B  8934 0001:0003F530
  8935 0001:0003F539  8937 0001:0003F541  8936 0001:0003F54A  8938 0001:0003F55F
  8941 0001:0003F564  8942 0001:0003F56D  8945 0001:0003F5A5  8948 0001:0003F5AC
  8949 0001:0003F5C7  8950 0001:0003F5EB  8955 0001:0003F5F0  8956 0001:0003F5F9
  8957 0001:0003F5FE  8958 0001:0003F607  8960 0001:0003F60D  8961 0001:0003F616
  8958 0001:0003F619  8963 0001:0003F622  8968 0001:0003F628  8969 0001:0003F631
  8970 0001:0003F636  8971 0001:0003F641  8973 0001:0003F647  8974 0001:0003F652
  8971 0001:0003F655  8976 0001:0003F65E  8981 0001:0003F664  8982 0001:0003F66D
  8983 0001:0003F676  8986 0001:0003F684  8987 0001:0003F688  8988 0001:0003F693
  8990 0001:0003F699  8991 0001:0003F6A5  8988 0001:0003F6AE  8993 0001:0003F6B4
  8995 0001:0003F6BB  9000 0001:0003F6C0  9001 0001:0003F6C9  9002 0001:0003F6DF
  9003 0001:0003F6E8  9004 0001:0003F703  9005 0001:0003F71E  9006 0001:0003F734
  9011 0001:0003F738  9012 0001:0003F741  9013 0001:0003F757  9014 0001:0003F760
  9015 0001:0003F77B  9016 0001:0003F796  9017 0001:0003F7AC  9023 0001:0003F7B0
  9024 0001:0003F7BC  9027 0001:0003F7C4  9030 0001:0003F7DB  9031 0001:0003F7E9
  9034 0001:0003F7EB  9025 0001:0003F7F4  9036 0001:0003F802  9037 0001:0003F813
  9038 0001:0003F827  9039 0001:0003F832  9040 0001:0003F83A  9042 0001:0003F842
  9044 0001:0003F84A  9050 0001:0003F850  9051 0001:0003F85D  9054 0001:0003F896
  9055 0001:0003F8A7  9056 0001:0003F8BB  9057 0001:0003F8C1  9059 0001:0003F8CF
  9062 0001:0003F8DA  9065 0001:0003F8E2  9067 0001:0003F8F0  9068 0001:0003F907
  9071 0001:0003F909  9063 0001:0003F912  9073 0001:0003F920  9074 0001:0003F931
  9076 0001:0003F93F  9078 0001:0003F953  9085 0001:0003F958  9086 0001:0003F961
  9087 0001:0003F97E  9088 0001:0003F989  9089 0001:0003F999  9090 0001:0003F9AB
  9092 0001:0003F9BD  9094 0001:0003F9C2  9095 0001:0003F9D7  9097 0001:0003F9DD
  9098 0001:0003F9E6  9100 0001:0003F9F3  9101 0001:0003FA08  9102 0001:0003FA10
  9095 0001:0003FA1B  9104 0001:0003FA21  9107 0001:0003FA28  9108 0001:0003FA34
  9109 0001:0003FA3C  9111 0001:0003FA45  9112 0001:0003FA51  9113 0001:0003FA68
  9115 0001:0003FA79  9120 0001:0003FA80  9121 0001:0003FA8D  9122 0001:0003FA92
  9124 0001:0003FA9B  9125 0001:0003FAB0  9126 0001:0003FAB8  9128 0001:0003FABE
  9129 0001:0003FAC7  9130 0001:0003FAD5  9132 0001:0003FAF4  9136 0001:0003FB07
  9143 0001:0003FB0C  9144 0001:0003FB12  9145 0001:0003FB16  9146 0001:0003FB22
  9148 0001:0003FB28  9150 0001:0003FB34  9151 0001:0003FB38  9153 0001:0003FB3A
  9146 0001:0003FB43  9155 0001:0003FB4C  9160 0001:0003FB50  9161 0001:0003FB5A
  9163 0001:0003FB87  9164 0001:0003FB9C  9165 0001:0003FBAC  9166 0001:0003FBBC
  9168 0001:0003FBC7  9169 0001:0003FBD3  9171 0001:0003FBE1  9173 0001:0003FBED
  9179 0001:0003FC67  9180 0001:0003FC73  9182 0001:0003FC81  9184 0001:0003FC8D
  9185 0001:0003FCB9  9186 0001:0003FCCC  9188 0001:0003FCDA  9191 0001:0003FCE0
  9192 0001:0003FCE9  9194 0001:0003FD01  9196 0001:0003FD0E  9197 0001:0003FD1A
  9200 0001:0003FD20  9201 0001:0003FD2C  9202 0001:0003FD35  9207 0001:0003FD3C
  9209 0001:0003FD45  9211 0001:0003FD50  9210 0001:0003FD59  9212 0001:0003FD65
  9216 0001:0003FD6C  9217 0001:0003FD78  9218 0001:0003FD83  9219 0001:0003FD8C
  9221 0001:0003FD92  9223 0001:0003FD9E  9224 0001:0003FDAB  9226 0001:0003FDB6
  9219 0001:0003FDBF  9228 0001:0003FDC5  9233 0001:0003FDCC  9234 0001:0003FDD6
  9235 0001:0003FDDF  9238 0001:0003FDE5  9241 0001:0003FE11  9242 0001:0003FE19
  9244 0001:0003FE33  9245 0001:0003FE3B  9235 0001:0003FE44  9247 0001:0003FE4A
  9250 0001:0003FE50  9251 0001:0003FE59  9252 0001:0003FE6A  9255 0001:0003FE70
  9256 0001:0003FE79  9258 0001:0003FE84  9257 0001:0003FE8D  9259 0001:0003FEA2
  9262 0001:0003FEA8  9263 0001:0003FEB1  9264 0001:0003FEC2  9274 0001:0003FEC8
  9275 0001:0003FEE4  9276 0001:0003FEEE  9277 0001:0003FEF8  9278 0001:0003FF01
  9279 0001:0003FF0B  9280 0001:0003FF15  9281 0001:0003FF33  9282 0001:0003FF48
  9283 0001:0003FF5A  9285 0001:0003FF73  9286 0001:0003FF7B  9287 0001:0003FF89
  9288 0001:0003FFA1  9287 0001:0003FFBD  9289 0001:0003FFC2  9291 0001:0003FFDA
  9293 0001:0003FFEA  9295 0001:0003FFF3  9296 0001:00040008  9298 0001:00040036
  9301 0001:0004003C  9302 0001:0004004D  9304 0001:00040056  9305 0001:0004006B
  9307 0001:00040076  9308 0001:00040084  9309 0001:0004008F  9310 0001:000400AB
  9313 0001:000400B0  9316 0001:000400BF  9317 0001:000400CD  9318 0001:000400D5
  9319 0001:000400DC  9322 0001:000400E0  9323 0001:000400E7  9324 0001:000400ED
  9327 0001:000400F0  9328 0001:000400F7  9329 0001:000400FD  9331 0001:00040106
  9332 0001:0004010E  9334 0001:00040116  9341 0001:0004011C  9342 0001:00040123
  9343 0001:00040131  9346 0001:0004013D  9347 0001:0004014F  9349 0001:0004015F
  9350 0001:00040171  9352 0001:00040181  9354 0001:00040184  9355 0001:00040190
  9356 0001:00040195  9357 0001:000401B1  9358 0001:000401BA  9363 0001:000401C0
  9364 0001:000401C8  9366 0001:000401D6  9368 0001:000401EF  9369 0001:00040208
  9371 0001:0004020C  9372 0001:00040218  9373 0001:00040227  9374 0001:00040231
  9379 0001:00040238  9380 0001:00040249  9381 0001:00040257  9382 0001:0004025D
  9384 0001:0004026E  9386 0001:000402BC  9391 0001:000402C4  9392 0001:000402D3
  9393 0001:000402E4  9394 0001:000402F5  9395 0001:000402FD  9408 0001:00040304
  9409 0001:00040316  9410 0001:00040323  9412 0001:0004032C  9413 0001:00040338
  9415 0001:00040348  9418 0001:00040358  9419 0001:00040366  9420 0001:00040377
  9421 0001:00040380  9422 0001:00040389  9424 0001:00040395  9425 0001:000403A6
  9427 0001:000403B7  9428 0001:000403D7  9429 0001:000403E4  9430 0001:000403EF
  9431 0001:00040401  9432 0001:0004040D  9433 0001:00040419  9437 0001:00040427
  9438 0001:00040436  9439 0001:00040444  9440 0001:00040455  9441 0001:00040463
  9442 0001:00040471  9446 0001:00040483  9447 0001:0004048F  9450 0001:0004049C
  9451 0001:000404BC  9455 0001:000404D7  9456 0001:000404F7  9460 0001:00040510
  9461 0001:00040522  9462 0001:0004052B  9463 0001:0004053F  9464 0001:0004054B
  9465 0001:00040551  9468 0001:00040557  9472 0001:0004057B  9475 0001:00040599
  9476 0001:000405A4  9482 0001:000405B0  9483 0001:000405BF  9484 0001:000405D1
  9485 0001:000405DA  9488 0001:000405E4  9489 0001:000405F2  9490 0001:00040603
  9491 0001:0004060C  9492 0001:0004061B  9494 0001:00040621  9495 0001:0004062D
  9496 0001:00040639  9497 0001:00040645  9498 0001:00040651  9499 0001:0004065A
  9500 0001:00040663  9503 0001:0004067F  9504 0001:00040688  9505 0001:00040694
  9506 0001:000406A0  9507 0001:000406AC  9508 0001:000406B5  9509 0001:000406BE
  9510 0001:000406D5  9511 0001:000406ED  9512 0001:00040704  9514 0001:00040720
  9519 0001:00040738  9520 0001:0004074A  9521 0001:00040756  9522 0001:00040762
  9523 0001:0004076B  9524 0001:00040777  9525 0001:00040783  9526 0001:0004078C
  9527 0001:00040798  9528 0001:000407A6  9529 0001:000407B2  9530 0001:000407BB
  9531 0001:000407C4  9534 0001:000407CA  9535 0001:000407D3  9536 0001:000407DB
  9537 0001:000407E4  9541 0001:000407EF  9542 0001:000407F8  9543 0001:00040801
  9544 0001:00040809  9548 0001:00040812  9549 0001:0004081A  9550 0001:00040822
  9551 0001:00040835  9555 0001:0004083C  9556 0001:0004084B  9559 0001:00040851
  9560 0001:0004085D  9562 0001:00040865  9561 0001:0004086E  9564 0001:00040877
  9567 0001:0004087D  9568 0001:00040889  9569 0001:00040892  9570 0001:0004089E
  9571 0001:000408A7  9572 0001:000408B3  9576 0001:000408BE  9577 0001:000408C7
  9578 0001:000408D3  9579 0001:000408DC  9580 0001:000408E8  9581 0001:000408F1
  9582 0001:000408FD  9583 0001:0004090B  9586 0001:00040917  9587 0001:00040922
  9588 0001:0004092D  9597 0001:00040934  9599 0001:0004093D  9603 0001:00040978
  9604 0001:00040984  9607 0001:00040992  9611 0001:000409CB  9612 0001:000409D7
  9615 0001:000409E5  9617 0001:000409F2  9618 0001:00040A02  9619 0001:00040A12
  9621 0001:00040A22  9624 0001:00040A80  9625 0001:00040A89  9626 0001:00040A92
  9627 0001:00040ABC  9631 0001:00040ACD  9634 0001:00040B1B  9635 0001:00040B24
  9636 0001:00040B4B  9641 0001:00040B57  9642 0001:00040B6C  9643 0001:00040B7E
  9644 0001:00040B93  9645 0001:00040BA5  9651 0001:00040BAC  9652 0001:00040BB5
  9654 0001:00040BD0  9658 0001:00040BE4  9660 0001:00040C0B  9661 0001:00040C2A
  9663 0001:00040C48  9652 0001:00040C4B  9664 0001:00040C55  9665 0001:00040C5D
  9669 0001:00040C64  9670 0001:00040C73  9671 0001:00040C78  9672 0001:00040C7F
  9673 0001:00040C8C  9675 0001:00040CA3  9676 0001:00040CB1  9678 0001:00040CC2
  9679 0001:00040CD7  9680 0001:00040CE9  9681 0001:00040CF2  9691 0001:00040CF8
  9692 0001:00040D02  9693 0001:00040D0A  9694 0001:00040D1D  9696 0001:00040D23
  9697 0001:00040D2E  9699 0001:00040D41  9706 0001:00040D48  9707 0001:00040D69
  9708 0001:00040D77  9709 0001:00040D7F  9711 0001:00040D8D  9713 0001:00040D9D
  9714 0001:00040DAD  9716 0001:00040DC0  9717 0001:00040DCA  9719 0001:00040DD0
  9720 0001:00040DE5  9722 0001:00040DEB  9723 0001:00040DF5  9726 0001:00040E07
  9714 0001:00040E0A  9728 0001:00040E0F  9729 0001:00040E22  9730 0001:00040E27
  9736 0001:00040E2C  9737 0001:00040E3C  9738 0001:00040E4B  9739 0001:00040E5D
  9740 0001:00040E70  9741 0001:00040E83  9742 0001:00040E8D  9743 0001:00040E93
  9746 0001:00040EA2  9747 0001:00040EAA  9750 0001:00040EAC  9751 0001:00040EC0
  9753 0001:00040EC8  9754 0001:00040ED1  9755 0001:00040EDA  9757 0001:00040EE8
  9759 0001:00040EF0  9760 0001:00040EF9  9762 0001:00040F04  9764 0001:00040F0C
  9765 0001:00040F12  9766 0001:00040F37  9767 0001:00040F40  9768 0001:00040F49
  9770 0001:00040F55  9771 0001:00040F5B  9732 0001:00040F61  9774 0001:00040F73
  9776 0001:00040FA0  9782 0001:00040FA8  9783 0001:00040FB4  9785 0001:00040FFB
  9788 0001:00041000  9791 0001:0004100F  9792 0001:00041022  9793 0001:00041033
  9794 0001:00041044  9795 0001:00041055  9796 0001:00041068  9797 0001:00041079
  9799 0001:0004108B  9801 0001:00041094  9803 0001:000410A3  9805 0001:000410B1
  9806 0001:000410C5  9807 0001:000410F3  9811 0001:00041123  9812 0001:0004113E
  9813 0001:0004116F  9815 0001:000411A0  9823 0001:000411A8  9824 0001:000411B5
  9825 0001:000411C4  9826 0001:000411D2  9827 0001:000411E0  9828 0001:000411E8
  9829 0001:000411F6  9830 0001:00041201  9831 0001:0004120F  9833 0001:0004122E
  9834 0001:0004123F  9836 0001:0004125D  9837 0001:00041268  9838 0001:00041275
  9839 0001:00041285  9840 0001:00041295  9841 0001:000412A8  9842 0001:000412BB
  9844 0001:000412CD  9831 0001:000412D0  9846 0001:000412E6  9849 0001:00041305
  9852 0001:00041322  9854 0001:00041332  9861 0001:00041338  9862 0001:00041349
  9865 0001:00041357  9868 0001:00041373  9870 0001:000413A5  9872 0001:000413AF
  9873 0001:000413C7  9874 0001:000413DF  9875 0001:000413F6  9876 0001:0004140E
  9882 0001:00041426  9883 0001:0004142F  9884 0001:00041438  9885 0001:00041441
  9886 0001:0004144A  9887 0001:00041453  9888 0001:00041465  9889 0001:0004146D
  9890 0001:0004147D  9891 0001:00041488  9892 0001:00041490  9894 0001:00041496
  9896 0001:000414B8  9897 0001:000414D1  9902 0001:000414DC  9904 0001:000414E3
  9905 0001:000414EC  9907 0001:000414FC  9908 0001:00041505  9910 0001:00041515
  9911 0001:0004151D  9913 0001:00041520  9914 0001:0004152C  9916 0001:00041532
  9918 0001:00041548  9919 0001:00041551  9920 0001:00041562  9921 0001:0004156B
  9922 0001:0004157A  9923 0001:00041583  9925 0001:00041592  9926 0001:000415A5
  9927 0001:000415AD  9932 0001:000415B4  9933 0001:000415C0  9934 0001:000415CE
  9936 0001:000415D4  9937 0001:000415DF  9939 0001:000415E9  9940 0001:000415F4
  9942 0001:000415FE  9944 0001:00041609  9950 0001:00041610  9951 0001:00041638
  9952 0001:0004163E  9953 0001:00041679  9954 0001:00041682  9955 0001:000416BD
  9956 0001:000416CB  9958 0001:000416D1  9959 0001:000416DC  9961 0001:000416EB
  9964 0001:000416F5  9965 0001:00041709  9966 0001:00041712  9969 0001:0004171F
  9972 0001:0004172D  9973 0001:00041739  9974 0001:00041741  9975 0001:00041749
  9976 0001:0004175E  9980 0001:00041768  9981 0001:00041772  9982 0001:00041781
  9983 0001:0004178C  9985 0001:00041794  9990 0001:000417B0  9993 0001:000417BE
  9994 0001:000417CC  9995 0001:000417DD  9996 0001:000417E8  9997 0001:000417F1
  9998 0001:000417F9  9999 0001:00041801 10000 0001:00041809 10005 0001:00041816
 10006 0001:00041828 10007 0001:00041834 10009 0001:00041848 10010 0001:0004185A
 10011 0001:00041863 10013 0001:00041872 10014 0001:0004187B 10015 0001:0004188A
 10016 0001:00041893 10017 0001:000418A2 10018 0001:000418AB 10019 0001:000418B7
 10020 0001:000418CE 10021 0001:000418D9 10027 0001:000418E6 10031 0001:000418EF
 10032 0001:000418FE 10033 0001:00041909 10038 0001:00041916 10039 0001:00041925
 10040 0001:0004192E 10041 0001:0004193D 10042 0001:00041952 10044 0001:0004195D
 10046 0001:00041974 10047 0001:0004199E 10052 0001:000419A4 10053 0001:000419B2
 10056 0001:000419E2 10057 0001:000419F0 10058 0001:00041A01 10060 0001:00041A22
 10061 0001:00041A2F 10064 0001:00041A42 10065 0001:00041A53 10069 0001:00041A61
 10070 0001:00041A72 10073 0001:00041A7E 10075 0001:00041A8D 10076 0001:00041A97
 10080 0001:00041AB3 10083 0001:00041ABC 10084 0001:00041AC8 10085 0001:00041ACE
 10086 0001:00041AE5 10088 0001:00041B08 10095 0001:00041B0C 10096 0001:00041B2C
 10097 0001:00041B37 10098 0001:00041B4A 10099 0001:00041B7E 10102 0001:00041B84
 10105 0001:00041BA4 10106 0001:00041BB7 10107 0001:00041BCD 10108 0001:00041BE3
 10111 0001:00041BFB 10112 0001:00041C04 10114 0001:00041C18 10115 0001:00041C21
 10116 0001:00041C51 10122 0001:00041C58 10124 0001:00041C78 10126 0001:00041C8B
 10127 0001:00041C9A 10128 0001:00041CA8 10130 0001:00041CC3 10131 0001:00041CD4
 10132 0001:00041CE6 10133 0001:00041CF4 10128 0001:00041CF7 10135 0001:00041CFC
 10136 0001:00041D07 10137 0001:00041D17 10139 0001:00041D57 10142 0001:00041D67
 10144 0001:00041D7A 10145 0001:00041D89 10146 0001:00041DB8 10151 0001:00041DC0
 10152 0001:00041DC7 10154 0001:00041DD1 10156 0001:00041DF7 10157 0001:00041E08
 10159 0001:00041E1B 10161 0001:00041E33 10162 0001:00041E45 10164 0001:00041E57
 10166 0001:00041E5C 10167 0001:00041E68 10168 0001:00041E7A 10170 0001:00041E84
 10171 0001:00041E8F 10174 0001:00041E94 10175 0001:00041EA0 10176 0001:00041EB1
 10179 0001:00041EB8 10180 0001:00041EC4 10182 0001:00041EE6 10183 0001:00041EFE
 10186 0001:00041F04 10187 0001:00041F19 10188 0001:00041F22 10189 0001:00041F39
 10190 0001:00041F4A 10192 0001:00041F63 10193 0001:00041F72 10194 0001:00041F7A
 10197 0001:00041F80 10198 0001:00041F87 10199 0001:00041F93 10200 0001:00041F9B
 10201 0001:00041FAE 10202 0001:00041FBD 10203 0001:00041FDD 10204 0001:00041FFB
 10205 0001:0004200C 10206 0001:00042026 10207 0001:0004202E 10210 0001:00042034
 10211 0001:0004203B 10212 0001:00042053 10213 0001:00042066 10216 0001:0004206C
 10217 0001:00042078 10218 0001:00042089 10224 0001:00042090 10225 0001:00042099
 10229 0001:000420A6 10231 0001:000420B5 10232 0001:000420C8 10233 0001:000420E0
 10234 0001:000420F6 10237 0001:00042104 10238 0001:0004211C 10239 0001:0004212F
 10240 0001:0004213B 10243 0001:00042151 10244 0001:0004216C 10246 0001:00042193
 10248 0001:000421A3 10255 0001:000421A8 10256 0001:000421B0 10260 0001:00042209
 10261 0001:00042224 10262 0001:0004223D 10263 0001:00042256 10265 0001:0004225C
 10266 0001:00042269 10267 0001:00042272 10269 0001:00042282 10270 0001:00042299
 10271 0001:000422A9 10272 0001:000422B2 10280 0001:000422B8 10281 0001:000422C4
 10282 0001:000422C8 10284 0001:000422CE 10285 0001:000422D9 10286 0001:000422E4
 10288 0001:000422FC 10289 0001:00042302 10291 0001:0004231A 10292 0001:00042320
 10293 0001:00042332 10295 0001:00042339 10298 0001:00042340 10299 0001:00042347
 10300 0001:00042353 10302 0001:0004236B 10304 0001:00042373 10305 0001:0004238B
 10307 0001:0004239B 10308 0001:000423A7 10309 0001:000423BA 10310 0001:000423D7
 10316 0001:000423DC 10317 0001:000423E6 10319 0001:0004240E 10320 0001:0004241E
 10321 0001:00042435 10324 0001:0004243E 10325 0001:00042442 10326 0001:0004245A
 10327 0001:00042466 10329 0001:00042471 10331 0001:00042490 10335 0001:00042499
 10337 0001:000424B1 10338 0001:000424C9 10341 0001:000424D8 10343 0001:000424E4
 10345 0001:000424FC 10349 0001:00042502 10350 0001:0004251A 10354 0001:00042527
 10355 0001:0004252D 10356 0001:00042538 10357 0001:00042555 10363 0001:0004255C
 10364 0001:0004256C 10365 0001:0004257A 10367 0001:00042580 10368 0001:00042586
 10370 0001:00042592 10371 0001:0004259C 10374 0001:000425A9 10376 0001:000425AF
 10377 0001:000425D4 10378 0001:000425DA 10380 0001:000425E5 10381 0001:000425EA
 10383 0001:00042608 10391 0001:00042610 10392 0001:00042616 10393 0001:00042622
 10395 0001:00042634 10396 0001:0004264D 10397 0001:00042667 10398 0001:00042681
 10401 0001:0004269D 10402 0001:000426B6 10403 0001:000426D0 10404 0001:000426EA
 10406 0001:00042704 10417 0001:00042708 10418 0001:0004272A 10421 0001:00042777
 10422 0001:00042789 10424 0001:000427A5 10426 0001:000427B2 10427 0001:000427BA
 10428 0001:000427D7 10429 0001:000427DE 10433 0001:000427EB 10435 0001:0004280A
 10437 0001:00042814 10439 0001:0004282B 10440 0001:00042830 10445 0001:00042846
 10446 0001:00042854 10447 0001:00042865 10449 0001:0004286F 10450 0001:00042875
 10451 0001:00042888 10453 0001:00042892 10456 0001:000428CC 10457 0001:000428DA
 10459 0001:000428FD 10460 0001:0004290D 10465 0001:00042912 10467 0001:0004291B
 10468 0001:00042929 10469 0001:0004293A 10471 0001:0004294E 10472 0001:00042963
 10474 0001:00042973 10478 0001:00042985 10481 0001:00042992 10482 0001:0004299B
 10484 0001:000429B8 10487 0001:000429F0 10488 0001:00042A01 10490 0001:00042A15
 10491 0001:00042A39 10492 0001:00042A43 10499 0001:00042A48 10500 0001:00042A54
 10502 0001:00042A61 10503 0001:00042A78 10504 0001:00042A7E 10505 0001:00042A91
 10507 0001:00042AAC 10508 0001:00042AB7 10509 0001:00042AC4 10510 0001:00042AD4
 10511 0001:00042AE4 10512 0001:00042AF7 10513 0001:00042B0A 10514 0001:00042B26
 10517 0001:00042B36 10520 0001:00042B38 10521 0001:00042B42 10522 0001:00042B6B
 10527 0001:00042B74 10528 0001:00042B8C 10529 0001:00042B96 10530 0001:00042B9D
 10533 0001:00042BA7 10538 0001:00042BEF 10539 0001:00042C14 10542 0001:00042C18
 10543 0001:00042C29 10544 0001:00042C33 10545 0001:00042C4F 10548 0001:00042C54
 10549 0001:00042C5D 10550 0001:00042C68 10553 0001:00042C6C 10554 0001:00042C78
 10555 0001:00042C86 10563 0001:00042C8C 10564 0001:00042C93 10565 0001:00042CAA
 10568 0001:00042CB0 10569 0001:00042CB7 10570 0001:00042CCE 10571 0001:00042CD7
 10572 0001:00042CE9 10577 0001:00042CEC 10578 0001:00042CF5 10580 0001:00042D1D
 10581 0001:00042D2D 10584 0001:00042D34 10585 0001:00042D40 10587 0001:00042D4D
 10588 0001:00042D5A 10590 0001:00042D63 10598 0001:00042D68 10599 0001:00042D74
 10602 0001:00042D83 10603 0001:00042D8B 10604 0001:00042D9E 10607 0001:00042DA8
 10609 0001:00042DB1 10610 0001:00042DBA 10612 0001:00042DCE 10615 0001:00042DEB
 10645 0001:00042DF0 10646 0001:00042DF6 10647 0001:00042E05 10648 0001:00042E12
 10649 0001:00042E20 10651 0001:00042E29 10653 0001:00042E36 10660 0001:00042E49
 10662 0001:00042E56 10663 0001:00042E65 10666 0001:00042E72 10667 0001:00042E87
 10668 0001:00042E9C 10669 0001:00042EB1 10670 0001:00042EC6 10671 0001:00042EDB
 10672 0001:00042EF0 10673 0001:00042F05 10674 0001:00042F1A 10675 0001:00042F2F
 10692 0001:00042F51 10694 0001:00042F62 10697 0001:0004305C 10698 0001:00043068
 10699 0001:00043071 10701 0001:00043088 10702 0001:0004308F 10718 0001:00043094
 10719 0001:000430A0 10721 0001:000430B9 10723 0001:000430BF 10724 0001:000430C9
 10727 0001:000430CE 10729 0001:000430D8 10731 0001:000430E5 10732 0001:000430F2
 10734 0001:000430FC 10736 0001:0004310E 10737 0001:0004311B 10738 0001:00043129
 10740 0001:00043137 10741 0001:00043143 10742 0001:00043155 10745 0001:0004316C
 10746 0001:0004317E 10747 0001:0004318C 10829 0001:00043190 10830 0001:00043199
 10831 0001:000431A2 10833 0001:000431B1 10834 0001:000431B8 10897 0001:000431BC
 10898 0001:000431C8 10899 0001:000431D1 10900 0001:000431DD 10901 0001:000431E6
 10902 0001:000431F0 10903 0001:000431F7 10904 0001:00043201 10905 0001:0004320D
 10906 0001:00043217 10907 0001:00043223 10908 0001:0004322D 10909 0001:00043241
 10914 0001:00043244 10915 0001:00043260 10916 0001:0004328C 10917 0001:000432A2
 10918 0001:000432DD 10919 0001:000432F3 10920 0001:00043308 10921 0001:00043319
 10922 0001:0004331E 10923 0001:0004332F 10924 0001:00043345 10925 0001:0004335B
 10926 0001:00043369 10927 0001:0004337D 10928 0001:0004338A 10929 0001:00043390
 10930 0001:000433C8 10951 0001:00043414 10952 0001:00043437 10954 0001:0004347A
 10941 0001:0004347C 10942 0001:00043496 10943 0001:000434AB 10944 0001:000434B0
 10945 0001:000434BA 10946 0001:000434C4 10947 0001:000434D4 10948 0001:000434E4
 10950 0001:00043509

Line numbers for ActnList(ActnList.pas) segment .text

   292 0001:00043A00   293 0001:00043A11   294 0001:00043A28   295 0001:00043A44
   298 0001:00043A48   299 0001:00043A51   300 0001:00043A5A   301 0001:00043A70
   302 0001:00043A7A   305 0001:00043A80   306 0001:00043A89   307 0001:00043A90
   310 0001:00043A94   311 0001:00043A9D   312 0001:00043AA6   313 0001:00043AB1
   314 0001:00043ABF   317 0001:00043AC4   318 0001:00043ACD   319 0001:00043AD6
   320 0001:00043ADC   321 0001:00043AEA   324 0001:00043AF0   325 0001:00043AFC
   326 0001:00043B07   327 0001:00043B1C   328 0001:00043B2A   333 0001:00043B30
   334 0001:00043B3C   335 0001:00043B47   337 0001:00043B4D   338 0001:00043B5C
   339 0001:00043B67   340 0001:00043B76   342 0001:00043B7E   343 0001:00043B8F
   346 0001:00043BA3   349 0001:00043BA8   350 0001:00043BB4   352 0001:00043BC4
   353 0001:00043BD2   354 0001:00043BDB   356 0001:00043BE6   359 0001:00043BEC
   360 0001:00043BF8   362 0001:00043C03   363 0001:00043C1A   365 0001:00043C2B
   368 0001:00043C30   369 0001:00043C3C   370 0001:00043C57   371 0001:00043C62
   374 0001:00043C68   375 0001:00043C72   378 0001:00043CCE   381 0001:00043CD4
   382 0001:00043CDE   385 0001:00043D3A   390 0001:00043D40   391 0001:00043D5B
   392 0001:00043D68   393 0001:00043D7A   394 0001:00043D8C   395 0001:00043D9F
   396 0001:00043DC1   399 0001:00043DC8   400 0001:00043DD9   401 0001:00043DE6
   402 0001:00043E02   403 0001:00043E0D   404 0001:00043E29   410 0001:00043E30
   411 0001:00043E3C   413 0001:00043E55   414 0001:00043E67   415 0001:00043E7B
   411 0001:00043E7E   416 0001:00043E83   419 0001:00043E8C   420 0001:00043E9B
   421 0001:00043EAD   422 0001:00043EC3   425 0001:00043EC8   426 0001:00043ED4
   427 0001:00043EE8   430 0001:00043EEC   431 0001:00043EF5   432 0001:00043F04
   440 0001:00043F08   441 0001:00043F14   442 0001:00043F2E   443 0001:00043F37
   445 0001:00043F40   446 0001:00043F51   448 0001:00043F5F   451 0001:00043F64
   452 0001:00043F70   453 0001:00043F83   457 0001:00043F88   458 0001:00043F97
   459 0001:00043FA5   460 0001:00043FAB   461 0001:00043FB6   462 0001:00043FC2
   463 0001:00043FD4   464 0001:00043FDF   467 0001:00043FE4   468 0001:00043FF0
   469 0001:00043FFE   470 0001:00044007   471 0001:00044012   474 0001:00044018
   475 0001:00044024   476 0001:00044036   477 0001:0004403E   482 0001:00044044
   483 0001:0004404E   484 0001:00044064   485 0001:0004407D   484 0001:00044094
   486 0001:00044099   488 0001:000440A2   489 0001:000440C6   491 0001:000440D7
   499 0001:000440DC   500 0001:000440E8   501 0001:000440F6   502 0001:00044109
   503 0001:00044114   505 0001:0004412D   506 0001:0004413F   507 0001:00044151
   510 0001:00044181   511 0001:0004418C   513 0001:0004418E   503 0001:00044191
   514 0001:00044196   515 0001:0004419D   518 0001:000441A4   519 0001:000441B1
   520 0001:000441B5   521 0001:000441D1   524 0001:000441D8   525 0001:000441E5
   526 0001:000441E9   527 0001:00044205   570 0001:0004420C   571 0001:00044215
   572 0001:0004422C   575 0001:00044230   576 0001:00044239   577 0001:00044250
   580 0001:00044254   581 0001:0004425D   582 0001:00044274   585 0001:00044278
   586 0001:00044281   587 0001:00044298   590 0001:0004429C   591 0001:000442A5
   592 0001:000442BC   595 0001:000442C0   596 0001:000442C9   597 0001:000442E0
   600 0001:000442E4   601 0001:000442ED   602 0001:00044304   605 0001:00044308
   606 0001:00044311   607 0001:00044328   610 0001:0004432C   611 0001:00044335
   612 0001:0004434C   615 0001:00044350   616 0001:00044359   617 0001:00044370
   620 0001:00044374   621 0001:00044380   624 0001:00044384   625 0001:00044390
   628 0001:00044394   629 0001:000443A0   632 0001:000443A4   633 0001:000443B0
   636 0001:000443B4   637 0001:000443C0   640 0001:000443C4   641 0001:000443D0
   644 0001:000443D4   645 0001:000443E0   648 0001:000443E4   649 0001:000443F0
   652 0001:000443F4   653 0001:00044400   656 0001:00044404   657 0001:00044410
   661 0001:00044414   662 0001:00044421   665 0001:00044428   666 0001:00044434
   671 0001:00044438   672 0001:00044453   673 0001:00044460   674 0001:00044467
   675 0001:00044474   676 0001:0004447E   677 0001:000444A4   680 0001:000444A8
   681 0001:000444B9   682 0001:000444C7   683 0001:000444D5   684 0001:000444E1
   685 0001:000444EE   686 0001:0004450A   689 0001:00044510   690 0001:0004451C
   693 0001:00044532   694 0001:00044540   695 0001:0004454E   696 0001:0004455C
   697 0001:0004456A   698 0001:00044578   699 0001:00044589   700 0001:0004459B
   701 0001:000445AC   702 0001:000445BD   703 0001:000445CF   704 0001:000445E3
   705 0001:000445EE   725 0001:000445F4   726 0001:00044600   728 0001:00044610
   730 0001:00044629   731 0001:00044646   732 0001:0004464C   733 0001:00044657
   728 0001:0004465A   734 0001:0004465F   735 0001:0004466D   737 0001:00044675
   744 0001:0004467C   745 0001:00044688   746 0001:00044695   747 0001:0004469C
   748 0001:000446AA   750 0001:000446B9   752 0001:000446D2   753 0001:000446EF
   754 0001:000446F5   755 0001:00044700   750 0001:00044703   756 0001:00044708
   757 0001:00044711   758 0001:00044723   760 0001:0004473E   761 0001:0004474F
   764 0001:00044777   765 0001:00044781   758 0001:00044784   766 0001:00044789
   769 0001:0004479E   771 0001:000447AD   777 0001:000447B4   778 0001:000447C0
   780 0001:000447CF   781 0001:000447D8   783 0001:000447E4   784 0001:000447ED
   787 0001:000447EF   788 0001:000447FB   789 0001:000447FF   791 0001:00044818
   792 0001:00044835   793 0001:0004483B   794 0001:00044846   789 0001:00044849
   795 0001:0004484E   796 0001:00044857   798 0001:0004485F   835 0001:00044864
   836 0001:00044870   838 0001:00044880   839 0001:00044899   840 0001:000448B6
   838 0001:000448CF   841 0001:000448D4   842 0001:000448E2   844 0001:000448EA
   850 0001:000448F0   851 0001:000448FC   853 0001:00044907   855 0001:00044920
   856 0001:0004493D   857 0001:00044943   858 0001:0004494E   853 0001:00044951
   859 0001:00044956   860 0001:0004495F   862 0001:00044967   868 0001:0004496C
   869 0001:00044978   871 0001:00044988   873 0001:000449A1   874 0001:000449BE
   875 0001:000449C4   876 0001:000449CF   871 0001:000449D2   877 0001:000449D7
   878 0001:000449E5   880 0001:000449ED   886 0001:000449F4   887 0001:00044A00
   889 0001:00044A0E   891 0001:00044A27   892 0001:00044A44   893 0001:00044A4A
   894 0001:00044A55   889 0001:00044A58   895 0001:00044A5D   896 0001:00044A69
   898 0001:00044A71   904 0001:00044A78   905 0001:00044A85   907 0001:00044A95
   909 0001:00044AAE   910 0001:00044ACB   911 0001:00044AD1   912 0001:00044ADD
   907 0001:00044AE0   913 0001:00044AE5   914 0001:00044AF3   916 0001:00044AFB
   922 0001:00044B00   923 0001:00044B0C   925 0001:00044B1A   927 0001:00044B33
   928 0001:00044B50   929 0001:00044B56   930 0001:00044B6C   925 0001:00044B6F
   931 0001:00044B74   932 0001:00044B80   934 0001:00044B88   939 0001:00044B8C
   940 0001:00044B98   942 0001:00044BC9   944 0001:00044BD4   945 0001:00044BF1
   948 0001:00044BF8   949 0001:00044C05   950 0001:00044C09   951 0001:00044C2E
   954 0001:00044C34   955 0001:00044C3D   956 0001:00044C41   957 0001:00044C56
   958 0001:00044C5E   959 0001:00044C73   960 0001:00044C8E   961 0001:00044C9F
   962 0001:00044CC0   965 0001:00044CC4   966 0001:00044CCD   967 0001:00044CD9
   968 0001:00044CEE   969 0001:00044CFD   984 0001:00044D04   985 0001:00044D0E
   986 0001:00044D20   991 0001:00044D28   992 0001:00044D35   993 0001:00044D43
   994 0001:00044D5C  1012 0001:00044D64  1013 0001:00044D71  1014 0001:00044D78
  1015 0001:00044D90  1017 0001:00044DA1  1018 0001:00044DA7  1019 0001:00044DA9
  1014 0001:00044DAC  1020 0001:00044DB4  1022 0001:00044DE8  1023 0001:00044DF4
  1024 0001:00044E04  1026 0001:00044E14

Line numbers for ImgList(ImgList.pas) segment .text

   179 0001:00044F6C   180 0001:00044F75   181 0001:00044F80   182 0001:00044F8F
   183 0001:00044F98   185 0001:00044FA2   188 0001:00044FA8   189 0001:00044FB1
   190 0001:00044FC2   191 0001:00044FCB   193 0001:00044FD4   195 0001:00044FDD
   198 0001:00044FE4   199 0001:00044FFF   200 0001:0004500C   201 0001:00045016
   202 0001:00045020   203 0001:00045043   214 0001:00045048   216 0001:0004505B
   215 0001:00045070   217 0001:0004507C   218 0001:00045087   219 0001:0004508F
   220 0001:0004509A   221 0001:000450A2   222 0001:000450B6   223 0001:000450D2
   228 0001:000450D8   229 0001:000450F4   230 0001:00045106   231 0001:00045124
   232 0001:00045145   233 0001:0004514F   234 0001:00045156   235 0001:00045160
   236 0001:00045167   237 0001:00045171   238 0001:0004517B   239 0001:0004518D
   240 0001:000451B2   243 0001:000451B8   244 0001:000451C1   245 0001:000451CF
   248 0001:000451D4   249 0001:000451DB   250 0001:000451EC   255 0001:000451F0
   256 0001:000451F9   257 0001:00045203   258 0001:00045211   260 0001:0004521A
   261 0001:0004523B   262 0001:0004524D   265 0001:0004528C   267 0001:0004529F
   269 0001:000452A8   270 0001:000452B3   272 0001:000452BB   277 0001:000452C0
   278 0001:000452CC   279 0001:000452D5   280 0001:000452DE   281 0001:000452EF
   282 0001:000452F8   283 0001:00045301   284 0001:00045309   311 0001:00045310
   312 0001:0004531D   313 0001:00045325   315 0001:0004532B   316 0001:00045336
   317 0001:0004533F   319 0001:0004534B   329 0001:00045350   330 0001:00045359
   331 0001:00045361   332 0001:0004536D   335 0001:00045374   336 0001:00045383
   337 0001:0004538E   338 0001:00045394   339 0001:000453A0   342 0001:000453AD
   343 0001:000453B8   344 0001:000453C2   346 0001:000453CF   347 0001:000453E0
   350 0001:000453E4   351 0001:000453EC   352 0001:00045401   353 0001:0004540F
   354 0001:00045417   355 0001:00045423   360 0001:00045428   361 0001:00045444
   363 0001:0004547F   364 0001:000454AC   365 0001:000454E3   394 0001:000454E8
   395 0001:000454F8   396 0001:00045507   397 0001:00045515   398 0001:00045524
   399 0001:00045532   400 0001:0004553A   403 0001:00045574   406 0001:00045591
   408 0001:000455A1   409 0001:000455B0   475 0001:000455B8   476 0001:000455C1
   477 0001:000455E0   478 0001:000455E8   557 0001:000455EC   558 0001:0004560C
   559 0001:0004563A   560 0001:00045658   561 0001:00045681   564 0001:00045688
   565 0001:0004568F   566 0001:0004569A   569 0001:000456A0   570 0001:000456AD
   571 0001:000456D0   572 0001:000456D9   573 0001:000456E5   576 0001:000456EC
   577 0001:000456F5   578 0001:00045719   579 0001:00045725   588 0001:0004572C
   589 0001:0004573B   591 0001:0004574B   592 0001:00045751   596 0001:0004579B
   598 0001:000457A4   599 0001:000457B6   601 0001:000457BF   602 0001:000457C9
   603 0001:000457D7   607 0001:000457E5   608 0001:000457FD   609 0001:0004582C
   611 0001:0004585D   612 0001:0004587F   614 0001:00045892   615 0001:000458A2
   616 0001:000458AD   617 0001:000458BB   618 0001:000458C6   620 0001:000458F4
   621 0001:00045904   622 0001:0004590F   623 0001:0004591D   624 0001:00045928
   627 0001:00045954   631 0001:0004595C   632 0001:0004596B   633 0001:00045993
   637 0001:0004599C   638 0001:000459AC   639 0001:000459B8   641 0001:000459EB
   675 0001:000459F4   676 0001:00045A03   677 0001:00045A1D   678 0001:00045A25
   679 0001:00045A33   680 0001:00045A42   683 0001:00045A50   684 0001:00045A5E
   686 0001:00045A6C   687 0001:00045A7B   690 0001:00045A89   691 0001:00045A93
   692 0001:00045AA1   694 0001:00045AAF   695 0001:00045ACC   697 0001:00045ADA
   699 0001:00045AE5   700 0001:00045AF0   702 0001:00045B0C   704 0001:00045B17
   705 0001:00045B22   707 0001:00045B3E   708 0001:00045B4C   694 0001:00045B4F
   710 0001:00045B65   713 0001:00045B82   716 0001:00045B9F   718 0001:00045BAF
   883 0001:00045BB4   884 0001:00045BC0   885 0001:00045BDB   890 0001:00045BE0
   891 0001:00045BEC   892 0001:00045BFF   894 0001:00045C15   895 0001:00045C1D
   896 0001:00045C23   897 0001:00045C2F   898 0001:00045C3B   899 0001:00045C49
   900 0001:00045C55   901 0001:00045C67   902 0001:00045C7D   903 0001:00045C99
   904 0001:00045CB6   905 0001:00045CC2   907 0001:00045CCF   908 0001:00045CDA
   913 0001:00045CE0   914 0001:00045CEC   916 0001:00045D02   917 0001:00045D08
   918 0001:00045D14   919 0001:00045D20   920 0001:00045D2E   921 0001:00045D3A
   924 0001:00045D46   925 0001:00045D4E   926 0001:00045D60   927 0001:00045D76
   928 0001:00045D92   929 0001:00045DAF   932 0001:00045DBC   933 0001:00045DC7
   936 0001:00045DCC   937 0001:00045DEB   939 0001:00045DF1   940 0001:00045E11
   941 0001:00045E4F   944 0001:00045E54   945 0001:00045E61   947 0001:00045E6C
   948 0001:00045E75   950 0001:00045E81   953 0001:00045E88   954 0001:00045E94
   955 0001:00045EA0  1044 0001:00045EA4  1045 0001:00045EAF  1046 0001:00045EB6
  1047 0001:00045EBF  1048 0001:00045EC8  1049 0001:00045EE1  1048 0001:00045EFB
  1050 0001:00045F00  1051 0001:00045F16  1056 0001:00045F1C  1057 0001:00045F28
  1058 0001:00045F31  1059 0001:00045F4A  1061 0001:00045F5D  1062 0001:00045F65
  1063 0001:00045F73  1064 0001:00045F75  1058 0001:00045F78  1065 0001:00045F7D
  1068 0001:00045F84  1069 0001:00045F90  1070 0001:00045F99  1071 0001:00045FB0
  1076 0001:00045FB4  1077 0001:00045FC0  1078 0001:00046007  1082 0001:0004600C
  1083 0001:00046019  1085 0001:00046035  1086 0001:00046039  1088 0001:0004603E
  1090 0001:00046056  1091 0001:0004605A  1093 0001:0004605F  1094 0001:0004606E
  1095 0001:0004607C  1096 0001:00046087  1097 0001:00046096  1098 0001:000460A4
  1099 0001:000460AF  1101 0001:000460CC  1104 0001:000460E9  1106 0001:000460FC
  1111 0001:00046104  1112 0001:00046108  1113 0001:00046114  1116 0001:0004614F
  1117 0001:00046163  1119 0001:00046168  1120 0001:00046175  1121 0001:00046180
  1122 0001:000461AA  1129 0001:000461C0  1130 0001:000461CC  1131 0001:000461DC
  1132 0001:000461EC  1133 0001:000461FB  1134 0001:00046209  1135 0001:00046214
  1136 0001:0004621F  1137 0001:00046230  1138 0001:0004623F  1139 0001:0004624D
  1140 0001:00046258  1141 0001:00046267  1142 0001:00046275  1143 0001:00046283
  1144 0001:00046292  1145 0001:0004629C  1146 0001:000462AA  1147 0001:000462B8
  1148 0001:000462D2  1149 0001:000462DA  1150 0001:000462E8  1152 0001:0004630D
  1153 0001:00046317  1155 0001:0004633C  1156 0001:00046346  1158 0001:0004638E
  1160 0001:000463D6  1161 0001:000463E4  1162 0001:000463E7  1153 0001:000463EA
  1163 0001:000463F3  1150 0001:000463F6  1165 0001:0004640C  1166 0001:00046414
  1167 0001:0004641C  1170 0001:00046439  1173 0001:00046456  1175 0001:00046466
  1183 0001:0004646C  1185 0001:00046479  1186 0001:0004648D  1187 0001:0004649B
  1189 0001:000464C2  1193 0001:000464D2  1197 0001:000464E2  1198 0001:000464E6
  1199 0001:000464F5  1200 0001:00046503  1201 0001:0004650F  1204 0001:0004651A
  1205 0001:00046526  1209 0001:0004653F  1210 0001:0004654B  1214 0001:0004655E
  1217 0001:00046564  1218 0001:00046570  1223 0001:00046585  1225 0001:0004658B
  1226 0001:00046597  1227 0001:000465AB  1228 0001:000465B9  1230 0001:000465E0
  1235 0001:000465FD  1239 0001:0004660D  1240 0001:00046619  1242 0001:00046630
  1249 0001:00046638  1250 0001:00046645  1251 0001:0004664D  1252 0001:00046658
  1253 0001:00046668  1254 0001:00046678  1255 0001:00046680  1256 0001:0004668B
  1257 0001:00046699  1258 0001:000466AD  1260 0001:000466BA  1261 0001:000466C5
  1275 0001:000466CC  1276 0001:000466D8  1278 0001:000466E1  1279 0001:000466F0
  1281 0001:000466FC  1282 0001:00046709  1283 0001:0004670F  1287 0001:00046722
  1288 0001:00046736  1291 0001:00046744  1293 0001:0004674D  1294 0001:0004676D
  1296 0001:00046786  1297 0001:000467A3  1299 0001:000467C7  1301 0001:000467D7
  1375 0001:00046818  1376 0001:0004681F  1377 0001:00046825  1380 0001:00046828
  1381 0001:00046830  1382 0001:0004683F  1384 0001:00046848  1385 0001:0004684F
  1387 0001:0004685B  1392 0001:00046860  1393 0001:00046871  1394 0001:00046888
  1395 0001:000468A4  1398 0001:000468A8  1399 0001:000468B0  1400 0001:000468C9
  1402 0001:00046900  1402 0001:00046907

Line numbers for Menus(Menus.pas) segment .text

   439 0001:00047838   440 0001:00047841   441 0001:00047846   442 0001:00047851
   444 0001:00047857   445 0001:00047869   447 0001:00047878   452 0001:0004787C
   453 0001:0004787F   454 0001:00047883   456 0001:00047888   457 0001:0004788F
   458 0001:000478AB   463 0001:000478B0   464 0001:000478BD   465 0001:000478C3
   466 0001:000478C9   467 0001:000478D1   468 0001:000478DD   469 0001:000478E9
   470 0001:000478F9   496 0001:00047900   497 0001:00047910   498 0001:00047918
   499 0001:0004792B   501 0001:00047931   502 0001:00047946   504 0001:00047959
   509 0001:00047960   510 0001:00047983   512 0001:000479FD   513 0001:00047A17
   514 0001:00047A2A   516 0001:00047A3D   518 0001:00047A5A   519 0001:00047A74
   520 0001:00047A89   521 0001:00047A9E   522 0001:00047AB3   524 0001:00047AD5
   526 0001:00047AE1   528 0001:00047AE7   529 0001:00047AEF   530 0001:00047B06
   531 0001:00047B1D   532 0001:00047B34   534 0001:00047B44   535 0001:00047B6E
   546 0001:00047B80   547 0001:00047B8D   548 0001:00047B91   551 0001:00047BD0
   552 0001:00047BD4   554 0001:00047BEE   559 0001:00047BF4   560 0001:00047C18
   561 0001:00047C1E   564 0001:00047C24   565 0001:00047C40   566 0001:00047C5B
   567 0001:00047C77   562 0001:00047C91   570 0001:00047C93   571 0001:00047C99
   572 0001:00047C9F   574 0001:00047CBA   575 0001:00047CC6   576 0001:00047CC8
   571 0001:00047CCC   577 0001:00047CFD   585 0001:00047D10   586 0001:00047D14
   587 0001:00047D22   588 0001:00047D36   602 0001:00047D3C   603 0001:00047D4B
   604 0001:00047D51   607 0001:00047D57   608 0001:00047D67   610 0001:00047D75
   611 0001:00047D78   612 0001:00047D7B   613 0001:00047D7D   614 0001:00047D80
   615 0001:00047D83   617 0001:00047D86   605 0001:00047D8B   619 0001:00047DA3
   621 0001:00047DA8   622 0001:00047DB7   623 0001:00047DBC   624 0001:00047DC1
   625 0001:00047DC6   626 0001:00047DCB   627 0001:00047DDC   628 0001:00047DED
   631 0001:00047DF6   632 0001:00047DFA   633 0001:00047DFE   634 0001:00047E17
   635 0001:00047E30   638 0001:00047E4D   639 0001:00047E53   641 0001:00047E68
   642 0001:00047E88   629 0001:00047EA6   644 0001:00047EC4   649 0001:00047EC8
   650 0001:00047ED4   651 0001:00047EE8   654 0001:00047EEC   655 0001:00047EF5
   656 0001:00047F1F   659 0001:00047F24   660 0001:00047F2D   662 0001:00047F6B
   665 0001:00047F70   666 0001:00047F79   668 0001:00047FB0   671 0001:00047FB4
   672 0001:00047FBD   674 0001:00047FF4   677 0001:00047FF8   678 0001:00048001
   680 0001:00048038   683 0001:0004803C   684 0001:00048045   686 0001:00048081
   689 0001:00048088   690 0001:00048091   692 0001:000480D7   695 0001:000480DC
   696 0001:000480E5   698 0001:0004811F   701 0001:00048124   702 0001:0004812D
   704 0001:00048169   707 0001:00048170   708 0001:00048179   710 0001:000481B3
   713 0001:000481B8   714 0001:000481C1   716 0001:000481F0   719 0001:000481F4
   720 0001:00048200   721 0001:0004821B   724 0001:00048220   725 0001:0004822C
   726 0001:00048246   729 0001:0004824C   730 0001:00048258   731 0001:00048272
   734 0001:00048278   735 0001:00048284   736 0001:0004829E   739 0001:000482A4
   740 0001:000482B0   741 0001:000482C8   744 0001:000482CC   745 0001:000482D8
   746 0001:000482F5   749 0001:000482FC   750 0001:00048308   751 0001:00048322
   754 0001:00048328   755 0001:00048335   756 0001:00048350   759 0001:00048354
   760 0001:00048360   761 0001:0004837A   764 0001:00048380   765 0001:00048387
   766 0001:000483AB   771 0001:000483B0   772 0001:000483CB   773 0001:000483D8
   774 0001:000483DF   775 0001:000483E6   776 0001:000483ED   777 0001:000483F4
   778 0001:00048400   779 0001:0004840A   780 0001:0004841C   781 0001:0004844A
   784 0001:00048450   785 0001:00048461   786 0001:0004846E   788 0001:00048477
   789 0001:00048485   791 0001:0004848F   792 0001:000484AA   794 0001:000484B3
   795 0001:000484BD   797 0001:000484C9   798 0001:000484D4   799 0001:000484DF
   800 0001:000484EA   801 0001:00048507   802 0001:0004851B   803 0001:00048537
   827 0001:0004853C   828 0001:00048562   830 0001:0004856F   831 0001:0004857D
   832 0001:00048589   833 0001:00048596   835 0001:000485CD   836 0001:000485F4
   838 0001:00048608   839 0001:0004860F   841 0001:00048616   843 0001:00048621
   846 0001:0004865D   849 0001:000486B3   851 0001:000486E0   852 0001:000486EA
   853 0001:000486EF   854 0001:000486F4   855 0001:000486F9   856 0001:00048704
   857 0001:00048710   858 0001:0004871B   862 0001:00048731   864 0001:00048782
   865 0001:0004878E   868 0001:000487B7   871 0001:000487FC   878 0001:0004881C
   879 0001:00048825   880 0001:0004883C   881 0001:00048843   883 0001:00048848
   884 0001:00048851   887 0001:0004886F   888 0001:00048879   892 0001:00048883
   893 0001:000488A4   894 0001:000488B7   897 0001:000488BC   898 0001:000488DB
   899 0001:00048915   902 0001:0004891C   903 0001:00048928   904 0001:00048937
   906 0001:00048942   907 0001:0004894B   908 0001:00048956   909 0001:0004895F
   911 0001:00048968   912 0001:00048974   914 0001:00048982   916 0001:0004898A
   919 0001:00048990   920 0001:00048998   921 0001:000489A0   922 0001:000489C4
   923 0001:000489D5   929 0001:000489DC   930 0001:000489E5   931 0001:000489F2
   932 0001:000489FB   935 0001:00048A07   936 0001:00048A10   939 0001:00048A20
   940 0001:00048A31   941 0001:00048A39   943 0001:00048A3F   945 0001:00048A5B
   946 0001:00048A73   948 0001:00048A77   941 0001:00048A7A   950 0001:00048A80
   952 0001:00048A86   955 0001:00048AB6   956 0001:00048AC2   959 0001:00048ACC
   960 0001:00048AD4   964 0001:00048ADE   969 0001:00048AE4   970 0001:00048AF3
   971 0001:00048B0B   973 0001:00048B13   977 0001:00048B32   970 0001:00048B59
   978 0001:00048B5E   981 0001:00048B64   982 0001:00048B6D   984 0001:00048B76
   985 0001:00048B8B   987 0001:00048B98   988 0001:00048BA3   989 0001:00048BB6
   991 0001:00048BBE   992 0001:00048BCA   995 0001:00048BD0   996 0001:00048BDD
   997 0001:00048BE8   998 0001:00048C04  1006 0001:00048C24  1007 0001:00048C49
  1008 0001:00048C54  1010 0001:00048C66  1011 0001:00048C6C  1012 0001:00048C7A
  1013 0001:00048C85  1014 0001:00048C91  1016 0001:00048C98  1017 0001:00048CA3
  1018 0001:00048CC0  1021 0001:00048CCD  1023 0001:00048CDC  1025 0001:00048CE6
  1026 0001:00048CF2  1027 0001:00048CF6  1032 0001:00048D11  1033 0001:00048D1E
  1034 0001:00048D27  1035 0001:00048D45  1037 0001:00048D52  1039 0001:00048D58
  1040 0001:00048D65  1041 0001:00048D75  1042 0001:00048D9D  1044 0001:00048DAA
  1045 0001:00048DCA  1046 0001:00048DDC  1048 0001:00048DEC  1051 0001:00048E31
  1054 0001:00048E58  1055 0001:00048E70  1056 0001:00048E7D  1057 0001:00048E9A
  1079 0001:00048EA4  1082 0001:00048EB9  1084 0001:00048EC2  1086 0001:00048ED4
  1087 0001:00048EE7  1089 0001:00048EFC  1090 0001:00048F05  1094 0001:00048F18
  1095 0001:00048F2A  1096 0001:00048F3B  1097 0001:00048F44  1098 0001:00048F4D
  1099 0001:00048F62  1101 0001:00048F73  1102 0001:00048F7A  1103 0001:00048F87
  1104 0001:00048F94  1106 0001:00048FA9  1107 0001:00048FBA  1108 0001:00048FC2
  1109 0001:00048FCC  1113 0001:00048FD8  1116 0001:00049039  1118 0001:00049068
  1120 0001:0004906F  1122 0001:00049078  1123 0001:0004908D  1129 0001:000490A4
  1130 0001:000490B3  1134 0001:000490C2  1136 0001:000490DF  1137 0001:000490E5
  1138 0001:000490EB  1139 0001:000490FF  1141 0001:00049108  1142 0001:0004911C
  1143 0001:0004913B  1147 0001:0004914E  1148 0001:00049161  1150 0001:00049172
  1151 0001:00049186  1152 0001:0004918C  1155 0001:00049192  1157 0001:0004919F
  1158 0001:000491C1  1163 0001:000491F8  1164 0001:0004920A  1165 0001:00049218
  1166 0001:00049225  1167 0001:0004923E  1168 0001:00049250  1169 0001:00049263
  1171 0001:000492C5  1173 0001:000492E6  1179 0001:000492F9  1181 0001:00049309
  1184 0001:00049327  1185 0001:00049357  1187 0001:00049371  1190 0001:0004938F
  1191 0001:000493BF  1193 0001:000493D9  1194 0001:000493F3  1197 0001:00049403
  1199 0001:0004940F  1200 0001:00049415  1205 0001:0004941D  1207 0001:0004942F
  1208 0001:00049444  1212 0001:0004945B  1213 0001:00049467  1215 0001:00049473
  1220 0001:0004947A  1221 0001:00049480  1222 0001:00049486  1223 0001:0004948D
  1226 0001:00049494  1227 0001:000494B2  1228 0001:000494BB  1230 0001:000494E7
  1232 0001:000494F0  1233 0001:00049506  1234 0001:00049518  1235 0001:0004952B
  1237 0001:0004953C  1239 0001:00049557  1240 0001:00049560  1241 0001:0004957E
  1242 0001:00049587  1243 0001:000495A3  1244 0001:000495AC  1247 0001:000495BC
  1248 0001:000495CE  1249 0001:000495DB  1250 0001:000495E2  1252 0001:000495E8
  1253 0001:00049604  1254 0001:00049616  1256 0001:00049620  1257 0001:00049630
  1258 0001:00049639  1259 0001:0004964D  1260 0001:00049686  1261 0001:000496B6
  1262 0001:000496DA  1264 0001:000496EA  1265 0001:00049719  1267 0001:0004972F
  1268 0001:0004973B  1269 0001:0004974A  1273 0001:0004979D  1278 0001:000497B4
  1281 0001:000497C9  1283 0001:000497D2  1285 0001:000497E4  1286 0001:000497F7
  1288 0001:0004980C  1289 0001:00049815  1293 0001:00049828  1294 0001:00049846
  1295 0001:00049857  1296 0001:00049860  1297 0001:00049869  1298 0001:0004987E
  1300 0001:0004988F  1301 0001:00049896  1302 0001:000498A3  1303 0001:000498B0
  1305 0001:000498C5  1306 0001:000498D6  1307 0001:000498E5  1308 0001:000498ED
  1312 0001:000498F9  1315 0001:0004995A  1317 0001:00049989  1319 0001:00049990
  1321 0001:00049999  1322 0001:000499AE  1328 0001:000499C5  1329 0001:000499D4
  1333 0001:000499E3  1335 0001:000499F3  1336 0001:000499F9  1337 0001:000499FF
  1338 0001:00049A13  1340 0001:00049A1C  1341 0001:00049A30  1342 0001:00049A4F
  1346 0001:00049A62  1347 0001:00049A75  1349 0001:00049A86  1350 0001:00049A9A
  1351 0001:00049AA0  1354 0001:00049AA6  1356 0001:00049AB3  1357 0001:00049AD5
  1362 0001:00049B0C  1363 0001:00049B1E  1364 0001:00049B2C  1365 0001:00049B39
  1366 0001:00049B52  1367 0001:00049B64  1368 0001:00049B77  1370 0001:00049BD9
  1372 0001:00049BFA  1378 0001:00049C0D  1380 0001:00049C1D  1383 0001:00049C3B
  1384 0001:00049C6D  1386 0001:00049C89  1389 0001:00049CA7  1390 0001:00049CD7
  1392 0001:00049CF1  1393 0001:00049D0B  1396 0001:00049D1B  1398 0001:00049D27
  1399 0001:00049D2D  1404 0001:00049D35  1406 0001:00049D47  1407 0001:00049D5C
  1411 0001:00049D73  1412 0001:00049D7F  1414 0001:00049D8B  1419 0001:00049D92
  1420 0001:00049D98  1421 0001:00049D9E  1422 0001:00049DA5  1425 0001:00049DAC
  1426 0001:00049DD3  1428 0001:00049DFF  1430 0001:00049E08  1431 0001:00049E1E
  1432 0001:00049E30  1433 0001:00049E43  1435 0001:00049E54  1437 0001:00049E6F
  1438 0001:00049E78  1439 0001:00049E96  1440 0001:00049E9F  1441 0001:00049EBB
  1442 0001:00049EC4  1444 0001:00049ED4  1445 0001:00049EE6  1446 0001:00049EF3
  1447 0001:00049EFA  1448 0001:00049F00  1449 0001:00049F1C  1450 0001:00049F2E
  1452 0001:00049F38  1453 0001:00049F48  1454 0001:00049F51  1455 0001:00049F65
  1457 0001:00049F9E  1458 0001:00049FAA  1459 0001:00049FB6  1460 0001:00049FE6
  1461 0001:0004A001  1462 0001:0004A011  1463 0001:0004A040  1465 0001:0004A056
  1466 0001:0004A068  1467 0001:0004A072  1468 0001:0004A08C  1471 0001:0004A0CD
  1473 0001:0004A0E4  1474 0001:0004A0FC  1475 0001:0004A107  1476 0001:0004A112
  1477 0001:0004A11C  1479 0001:0004A143  1480 0001:0004A160  1481 0001:0004A17D
  1484 0001:0004A1AC  1485 0001:0004A1BE  1486 0001:0004A1CB  1488 0001:0004A1EB
  1489 0001:0004A1FD  1491 0001:0004A206  1492 0001:0004A20D  1498 0001:0004A218
  1499 0001:0004A221  1500 0001:0004A226  1502 0001:0004A231  1501 0001:0004A23A
  1503 0001:0004A249  1504 0001:0004A24F  1507 0001:0004A25A  1508 0001:0004A265
  1509 0001:0004A26B  1511 0001:0004A277  1529 0001:0004A27C  1530 0001:0004A285
  1531 0001:0004A28F  1533 0001:0004A2A5  1534 0001:0004A2B3  1536 0001:0004A2C1
  1538 0001:0004A2C8  1539 0001:0004A2EF  1541 0001:0004A30A  1542 0001:0004A30E
  1544 0001:0004A317  1545 0001:0004A31B  1546 0001:0004A326  1547 0001:0004A331
  1549 0001:0004A343  1550 0001:0004A34C  1551 0001:0004A355  1553 0001:0004A35B
  1555 0001:0004A370  1556 0001:0004A37B  1557 0001:0004A381  1558 0001:0004A38C
  1560 0001:0004A392  1562 0001:0004A3AA  1563 0001:0004A3B3  1564 0001:0004A3B9
  1565 0001:0004A3C2  1569 0001:0004A3C8  1570 0001:0004A3D1  1572 0001:0004A3D5
  1573 0001:0004A3E1  1574 0001:0004A3E7  1575 0001:0004A3ED  1576 0001:0004A3F3
  1577 0001:0004A402  1578 0001:0004A408  1579 0001:0004A40E  1580 0001:0004A420
  1582 0001:0004A42B  1583 0001:0004A42F  1584 0001:0004A439  1585 0001:0004A45B
  1586 0001:0004A469  1588 0001:0004A48C  1589 0001:0004A4A4  1590 0001:0004A4B2
  1591 0001:0004A501  1594 0001:0004A518  1595 0001:0004A521  1596 0001:0004A528
  1599 0001:0004A52C  1600 0001:0004A538  1602 0001:0004A543  1603 0001:0004A54C
  1605 0001:0004A556  1608 0001:0004A55C  1609 0001:0004A568  1611 0001:0004A578
  1612 0001:0004A586  1614 0001:0004A590  1620 0001:0004A594  1621 0001:0004A59D
  1622 0001:0004A5A6  1624 0001:0004A5C1  1625 0001:0004A5D2  1626 0001:0004A5F1
  1627 0001:0004A5FB  1622 0001:0004A5FE  1628 0001:0004A603  1631 0001:0004A608
  1632 0001:0004A614  1634 0001:0004A61F  1635 0001:0004A628  1636 0001:0004A63A
  1637 0001:0004A663  1638 0001:0004A672  1640 0001:0004A67A  1643 0001:0004A680
  1644 0001:0004A68C  1646 0001:0004A69B  1647 0001:0004A6A4  1649 0001:0004A6CF
  1652 0001:0004A6DB  1653 0001:0004A6ED  1654 0001:0004A716  1657 0001:0004A720
  1660 0001:0004A724  1661 0001:0004A730  1663 0001:0004A73B  1664 0001:0004A762
  1665 0001:0004A76B  1666 0001:0004A77D  1668 0001:0004A785  1671 0001:0004A78C
  1672 0001:0004A795  1673 0001:0004A79E  1674 0001:0004A7AC  1675 0001:0004A7B4
  1678 0001:0004A7B8  1679 0001:0004A7C1  1680 0001:0004A7CC  1683 0001:0004A7D0
  1684 0001:0004A7D9  1685 0001:0004A7E9  1686 0001:0004A7F8  1689 0001:0004A7FC
  1690 0001:0004A808  1691 0001:0004A81B  1692 0001:0004A82F  1695 0001:0004A834
  1696 0001:0004A841  1698 0001:0004A84E  1699 0001:0004A859  1701 0001:0004A863
  1704 0001:0004A868  1705 0001:0004A874  1707 0001:0004A87F  1708 0001:0004A888
  1710 0001:0004A892  1713 0001:0004A898  1714 0001:0004A8A4  1716 0001:0004A8AF
  1717 0001:0004A8B8  1719 0001:0004A8C2  1722 0001:0004A8C8  1723 0001:0004A8D1
  1724 0001:0004A8D8  1725 0001:0004A8F5  1731 0001:0004A8FC  1732 0001:0004A908
  1734 0001:0004A911  1735 0001:0004A91F  1736 0001:0004A92A  1737 0001:0004A939
  1739 0001:0004A946  1740 0001:0004A94F  1741 0001:0004A95A  1744 0001:0004A968
  1749 0001:0004A96C  1750 0001:0004A978  1751 0001:0004A9AB  1754 0001:0004A9B4
  1755 0001:0004A9C3  1756 0001:0004A9D9  1761 0001:0004A9E0  1762 0001:0004A9EC
  1764 0001:0004A9F7  1765 0001:0004AA06  1766 0001:0004AA21  1765 0001:0004AA4A
  1767 0001:0004AA4F  1768 0001:0004AA58  1770 0001:0004AA62  1773 0001:0004AA68
  1774 0001:0004AA6F  1775 0001:0004AA83  1778 0001:0004AA88  1779 0001:0004AA97
  1780 0001:0004AAAA  1781 0001:0004AAC5  1782 0001:0004AADA  1783 0001:0004AAF4
  1784 0001:0004AB0E  1785 0001:0004AB1F  1786 0001:0004AB30  1787 0001:0004AB39
  1788 0001:0004AB4F  1789 0001:0004AB60  1790 0001:0004AB74  1795 0001:0004AB78
  1796 0001:0004AB84  1797 0001:0004ABAA  1798 0001:0004ABBB  1799 0001:0004ABC9
  1800 0001:0004ABD1  1801 0001:0004ABE2  1802 0001:0004ABF3  1803 0001:0004AC08
  1806 0001:0004AC0C  1807 0001:0004AC14  1809 0001:0004AC21  1811 0001:0004AC5A
  1815 0001:0004AC6B  1816 0001:0004AC9A  1817 0001:0004ACAE  1818 0001:0004ACC0
  1819 0001:0004ACD0  1820 0001:0004ACDD  1822 0001:0004ACEF  1825 0001:0004ACF4
  1826 0001:0004AD00  1827 0001:0004AD07  1828 0001:0004AD24  1831 0001:0004AD28
  1832 0001:0004AD34  1833 0001:0004AD49  1838 0001:0004AD50  1839 0001:0004AD5C
  1840 0001:0004AD6A  1841 0001:0004AD7A  1842 0001:0004AD85  1847 0001:0004AD8C
  1848 0001:0004AD99  1849 0001:0004ADB7  1850 0001:0004ADBE  1851 0001:0004ADC4
  1852 0001:0004ADEA  1855 0001:0004ADF0  1856 0001:0004ADFF  1857 0001:0004AE1F
  1858 0001:0004AE3D  1859 0001:0004AE5D  1862 0001:0004AE64  1863 0001:0004AE6D
  1864 0001:0004AE88  1865 0001:0004AE95  1866 0001:0004AEA1  1869 0001:0004AEA8
  1870 0001:0004AEB5  1872 0001:0004AEBB  1873 0001:0004AEC6  1877 0001:0004AED0
  1878 0001:0004AED9  1879 0001:0004AEF3  1880 0001:0004AF01  1881 0001:0004AF14
  1882 0001:0004AF2D  1884 0001:0004AF38  1887 0001:0004AF40  1888 0001:0004AF4C
  1889 0001:0004AF67  1890 0001:0004AF75  1891 0001:0004AF7F  1896 0001:0004AF84
  1897 0001:0004AF8D  1898 0001:0004AFA5  1897 0001:0004AFB8  1899 0001:0004AFBD
  1902 0001:0004AFC4  1903 0001:0004AFCD  1904 0001:0004AFE2  1905 0001:0004AFF0
  1906 0001:0004AFFC  1909 0001:0004B000  1910 0001:0004B00C  1911 0001:0004B023
  1912 0001:0004B029  1913 0001:0004B03B  1914 0001:0004B04B  1915 0001:0004B05D
  1916 0001:0004B068  1921 0001:0004B06C  1922 0001:0004B075  1923 0001:0004B07D
  1924 0001:0004B08F  1925 0001:0004B09B  1928 0001:0004B0A0  1929 0001:0004B0AC
  1931 0001:0004B0B7  1932 0001:0004B0C0  1933 0001:0004B0D2  1934 0001:0004B0DA
  1936 0001:0004B0E4  1939 0001:0004B0E8  1940 0001:0004B0F7  1943 0001:0004B10D
  1944 0001:0004B11F  1945 0001:0004B131  1946 0001:0004B140  1947 0001:0004B14E
  1948 0001:0004B15D  1949 0001:0004B16B  1950 0001:0004B17A  1951 0001:0004B188
  1952 0001:0004B197  1953 0001:0004B1A3  1954 0001:0004B1B2  1955 0001:0004B1C3
  1956 0001:0004B1DB  1957 0001:0004B1E9  1958 0001:0004B1F8  1959 0001:0004B209
  1960 0001:0004B219  1961 0001:0004B22B  1962 0001:0004B23A  1963 0001:0004B24B
  1964 0001:0004B25E  1966 0001:0004B276  1969 0001:0004B27C  1970 0001:0004B289
  1971 0001:0004B2A7  1974 0001:0004B2AC  1975 0001:0004B2B5  1976 0001:0004B2D9
  1979 0001:0004B2E0  1980 0001:0004B2E9  1981 0001:0004B30D  1984 0001:0004B314
  1985 0001:0004B31D  1986 0001:0004B341  1989 0001:0004B348  1990 0001:0004B351
  1991 0001:0004B375  1994 0001:0004B37C  1995 0001:0004B385  1996 0001:0004B3A9
  1999 0001:0004B3B0  2000 0001:0004B3B9  2001 0001:0004B3DD  2004 0001:0004B3E4
  2005 0001:0004B3ED  2006 0001:0004B411  2009 0001:0004B418  2010 0001:0004B421
  2011 0001:0004B445  2014 0001:0004B44C  2015 0001:0004B455  2016 0001:0004B479
  2019 0001:0004B480  2020 0001:0004B48C  2023 0001:0004B49E  2024 0001:0004B4AC
  2025 0001:0004B4BA  2026 0001:0004B4C8  2027 0001:0004B4D6  2028 0001:0004B4E4
  2029 0001:0004B4F2  2031 0001:0004B50B  2032 0001:0004B516  2036 0001:0004B51C
  2037 0001:0004B52B  2038 0001:0004B539  2039 0001:0004B53F  2040 0001:0004B54C
  2041 0001:0004B558  2042 0001:0004B563  2043 0001:0004B56F  2044 0001:0004B57A
  2045 0001:0004B584  2048 0001:0004B588  2049 0001:0004B594  2050 0001:0004B5AE
  2051 0001:0004B5B7  2053 0001:0004B5C0  2054 0001:0004B5D1  2056 0001:0004B5DF
  2057 0001:0004B5E7  2060 0001:0004B5EC  2061 0001:0004B5F8  2062 0001:0004B60B
  2067 0001:0004B610  2068 0001:0004B619  2069 0001:0004B61D  2070 0001:0004B630
  2071 0001:0004B643  2073 0001:0004B648  2074 0001:0004B64F  2075 0001:0004B662
  2101 0001:0004B668  2102 0001:0004B671  2103 0001:0004B682  2104 0001:0004B68A
  2105 0001:0004B690  2106 0001:0004B6A6  2110 0001:0004B6AC  2111 0001:0004B6B3
  2112 0001:0004B6C4  2113 0001:0004B6D5  2114 0001:0004B6F0  2113 0001:0004B71F
  2115 0001:0004B724  2116 0001:0004B735  2121 0001:0004B73C  2122 0001:0004B762
  2123 0001:0004B766  2124 0001:0004B77E  2126 0001:0004B79A  2127 0001:0004B79E
  2128 0001:0004B7A0  2123 0001:0004B7A3  2129 0001:0004B7A8  2131 0001:0004B7B2
  2132 0001:0004B7E4  2135 0001:0004B82F  2137 0001:0004B855  2138 0001:0004B85B
  2139 0001:0004B88D  2140 0001:0004B8C4  2141 0001:0004B8FC  2142 0001:0004B900
  2145 0001:0004B923  2146 0001:0004B931  2147 0001:0004B936  2148 0001:0004B93B
  2149 0001:0004B940  2150 0001:0004B945  2151 0001:0004B94A  2152 0001:0004B958
  2153 0001:0004B967  2154 0001:0004B976  2155 0001:0004B985  2156 0001:0004B994
  2157 0001:0004B9B0  2161 0001:0004B9F8  2162 0001:0004BA19  2163 0001:0004BA1F
  2164 0001:0004BA45  2167 0001:0004BA65  2168 0001:0004BA93  2170 0001:0004BAB7
  2156 0001:0004BABA  2171 0001:0004BAC3  2172 0001:0004BACE  2174 0001:0004BAEA
  2175 0001:0004BAF5  2176 0001:0004BB00  2177 0001:0004BB08  2179 0001:0004BB1D
  2180 0001:0004BB2B  2183 0001:0004BB37  2184 0001:0004BB51  2187 0001:0004BB56
  2188 0001:0004BB75  2190 0001:0004BB83  2191 0001:0004BB8E  2193 0001:0004BBA0
  2194 0001:0004BBB0  2195 0001:0004BBC8  2196 0001:0004BBD3  2199 0001:0004BBD5
  2181 0001:0004BBD8  2201 0001:0004BBE9  2177 0001:0004BBEC  2202 0001:0004BBF6
  2203 0001:0004BC03  2204 0001:0004BC0A  2205 0001:0004BC16  2207 0001:0004BC2E
  2208 0001:0004BC46  2210 0001:0004BC5C  2205 0001:0004BC5F  2212 0001:0004BC64
  2172 0001:0004BC67  2213 0001:0004BC70  2214 0001:0004BC76  2215 0001:0004BC7D
  2216 0001:0004BC8B  2218 0001:0004BCA7  2219 0001:0004BCB5  2222 0001:0004BCD7
  2224 0001:0004BCE8  2225 0001:0004BD12  2228 0001:0004BD29  2229 0001:0004BD3F
  2216 0001:0004BD42  2231 0001:0004BD58  2232 0001:0004BD60  2233 0001:0004BD68
  2234 0001:0004BD70  2237 0001:0004BDC2  2247 0001:0004BDE0  2248 0001:0004BDEC
  2250 0001:0004BDF7  2251 0001:0004BE00  2253 0001:0004BE0A  2256 0001:0004BE10
  2257 0001:0004BE19  2258 0001:0004BE30  2340 0001:0004BE40  2341 0001:0004BE4C
  2342 0001:0004BE50  2345 0001:0004BE73  2346 0001:0004BE78  2347 0001:0004BE7D
  2348 0001:0004BE96  2349 0001:0004BEA7  2351 0001:0004BEBB  2352 0001:0004BECA
  2356 0001:0004BED0  2357 0001:0004BED6  2358 0001:0004BED8  2347 0001:0004BEDB
  2359 0001:0004BEE0  2360 0001:0004BEFD  2362 0001:0004BF11  2364 0001:0004BF20
  2365 0001:0004BF27  2367 0001:0004BF2B  2369 0001:0004BF3B  2371 0001:0004BF4C
  2373 0001:0004BF5B  2374 0001:0004BF62  2376 0001:0004BF66  2377 0001:0004BF6B
  2378 0001:0004BF71  2359 0001:0004BF74  2379 0001:0004BF79  2380 0001:0004BF90
  2381 0001:0004BFA1  2383 0001:0004BFB5  2384 0001:0004BFC4  2387 0001:0004BFC8
  2379 0001:0004BFCB  2389 0001:0004BFD3  2392 0001:0004BFD8  2393 0001:0004BFE4
  2395 0001:0004BFEF  2396 0001:0004BFF8  2398 0001:0004C002  2410 0001:0004C008
  2411 0001:0004C011  2412 0001:0004C01A  2414 0001:0004C029  2415 0001:0004C040
  2416 0001:0004C051  2421 0001:0004C058  2422 0001:0004C061  2423 0001:0004C06A
  2425 0001:0004C079  2426 0001:0004C090  2427 0001:0004C0A1  2432 0001:0004C0A8
  2433 0001:0004C0C3  2434 0001:0004C0D8  2435 0001:0004C0F2  2436 0001:0004C0FE
  2437 0001:0004C110  2438 0001:0004C123  2439 0001:0004C12A  2440 0001:0004C137
  2441 0001:0004C141  2442 0001:0004C14B  2443 0001:0004C16E  2446 0001:0004C174
  2447 0001:0004C185  2448 0001:0004C190  2449 0001:0004C19B  2450 0001:0004C1B7
  2453 0001:0004C1BC  2454 0001:0004C1C9  2455 0001:0004C1E1  2458 0001:0004C1E8
  2459 0001:0004C1F1  2460 0001:0004C202  2463 0001:0004C208  2464 0001:0004C218
  2465 0001:0004C22D  2470 0001:0004C234  2471 0001:0004C23D  2472 0001:0004C241
  2473 0001:0004C254  2474 0001:0004C267  2476 0001:0004C26C  2477 0001:0004C273
  2478 0001:0004C28C  2487 0001:0004C290  2488 0001:0004C299  2489 0001:0004C29D
  2493 0001:0004C2E8  2494 0001:0004C2F1  2495 0001:0004C2F5  2498 0001:0004C2F7
  2499 0001:0004C30F  2501 0001:0004C328  2502 0001:0004C32C  2503 0001:0004C32E
  2498 0001:0004C331  2504 0001:0004C339  2506 0001:0004C340  2507 0001:0004C34F
  2508 0001:0004C354  2509 0001:0004C36D  2510 0001:0004C376  2516 0001:0004C37C
  2517 0001:0004C38B  2518 0001:0004C390  2519 0001:0004C394  2520 0001:0004C39E
  2522 0001:0004C3C3  2525 0001:0004C3D0  2527 0001:0004C3E3  2526 0001:0004C3EC
  2528 0001:0004C3FB  2530 0001:0004C40D  2535 0001:0004C414  2536 0001:0004C421
  2537 0001:0004C425  2538 0001:0004C436  2540 0001:0004C43C  2541 0001:0004C444
  2543 0001:0004C44B  2549 0001:0004C450  2550 0001:0004C45C  2551 0001:0004C460
  2552 0001:0004C470  2554 0001:0004C47A  2555 0001:0004C483  2556 0001:0004C48B
  2557 0001:0004C493  2558 0001:0004C4A0  2559 0001:0004C4B0  2560 0001:0004C4B6
  2561 0001:0004C4BE  2562 0001:0004C4CB  2563 0001:0004C4D8  2566 0001:0004C50E
  2567 0001:0004C51C  2569 0001:0004C522  2570 0001:0004C53D  2571 0001:0004C54B
  2574 0001:0004C550  2575 0001:0004C559  2576 0001:0004C577  2594 0001:0004C57C
  2595 0001:0004C588  2598 0001:0004C590  2599 0001:0004C599  2596 0001:0004C59C
  2601 0001:0004C5AB  2606 0001:0004C5B0  2607 0001:0004C5BF  2608 0001:0004C5C3
  2610 0001:0004C5CE  2611 0001:0004C5E8  2612 0001:0004C5FB  2616 0001:0004C605
  2618 0001:0004C621  2619 0001:0004C63B  2621 0001:0004C644  2622 0001:0004C648
  2625 0001:0004C64D  2626 0001:0004C665  2628 0001:0004C682  2630 0001:0004C68C
  2631 0001:0004C69B  2632 0001:0004C6A9  2633 0001:0004C6BF  2634 0001:0004C6C9
  2636 0001:0004C6F2  2638 0001:0004C705  2640 0001:0004C71E  2641 0001:0004C725
  2643 0001:0004C72C  2648 0001:0004C738  2651 0001:0004C73C  2652 0001:0004C747
  2653 0001:0004C752  2654 0001:0004C764  2655 0001:0004C776  2660 0001:0004C785
  2661 0001:0004C78E  2662 0001:0004C79B  2664 0001:0004C7A9  2665 0001:0004C7AD
  2666 0001:0004C7BE  2668 0001:0004C7C4  2669 0001:0004C7D1  2670 0001:0004C7DF
  2672 0001:0004C7FB  2675 0001:0004C80D  2677 0001:0004C826  2679 0001:0004C838
  2681 0001:0004C850  2684 0001:0004C854  2685 0001:0004C85D  2686 0001:0004C86B
  2693 0001:0004C870  2694 0001:0004C87C  2695 0001:0004C898  2696 0001:0004C8A3
  2697 0001:0004C8AA  2698 0001:0004C8B1  2699 0001:0004C8BA  2700 0001:0004C8C1
  2702 0001:0004C8D6  2705 0001:0004C8F1  2707 0001:0004C910  2708 0001:0004C917
  2709 0001:0004C92C  2711 0001:0004C938  2722 0001:0004C93C  2723 0001:0004C945
  2724 0001:0004C951  2725 0001:0004C95C  2726 0001:0004C965  2729 0001:0004C96F
  2730 0001:0004C993  2731 0001:0004C99E  2732 0001:0004C9B4  2734 0001:0004C9BA
  2735 0001:0004C9C0  2736 0001:0004C9C3  2738 0001:0004C9C9  2740 0001:0004C9CF
  2741 0001:0004C9D5  2742 0001:0004C9D8  2744 0001:0004C9DE  2746 0001:0004C9E4
  2747 0001:0004C9EA  2748 0001:0004C9ED  2750 0001:0004C9F3  2751 0001:0004C9F9
  2752 0001:0004C9FC  2753 0001:0004CA02  2727 0001:0004CA05  2755 0001:0004CA19
  2757 0001:0004CA20  2758 0001:0004CA2F  2759 0001:0004CA36  2760 0001:0004CA3D
  2761 0001:0004CA5B  2763 0001:0004CA84  2764 0001:0004CA8B  2766 0001:0004CAAA
  2769 0001:0004CAB0  2770 0001:0004CABC  2772 0001:0004CAC7  2773 0001:0004CAD0
  2775 0001:0004CAD8  2781 0001:0004CADC  2782 0001:0004CAE5  2783 0001:0004CAF0
  2784 0001:0004CAF9  2785 0001:0004CB02  2786 0001:0004CB10  2787 0001:0004CB19
  2789 0001:0004CB25  2791 0001:0004CB3C  2792 0001:0004CB47  2794 0001:0004CB58
  2797 0001:0004CB5C  2798 0001:0004CB68  2799 0001:0004CB71  2803 0001:0004CB79
  2804 0001:0004CB8A  2805 0001:0004CB93  2807 0001:0004CB9D  2808 0001:0004CBA5
  2811 0001:0004CBAC  2812 0001:0004CBBC  2813 0001:0004CBD9  2816 0001:0004CBE0
  2817 0001:0004CBE8  2818 0001:0004CBF0  2819 0001:0004CBFC  2822 0001:0004CC00
  2823 0001:0004CC10  2824 0001:0004CC37  2827 0001:0004CC48  2828 0001:0004CC54
  2829 0001:0004CC67  2832 0001:0004CC6C  2833 0001:0004CC78  2834 0001:0004CC92
  2835 0001:0004CC9B  2837 0001:0004CCA4  2838 0001:0004CCB5  2840 0001:0004CCC3
  2841 0001:0004CCCB  2845 0001:0004CCD0  2846 0001:0004CCDF  2847 0001:0004CCED
  2848 0001:0004CD08  2851 0001:0004CD0C  2852 0001:0004CD15  2853 0001:0004CD35
  2864 0001:0004CD3C  2865 0001:0004CD4C  2866 0001:0004CD51  2868 0001:0004CD57
  2869 0001:0004CD67  2873 0001:0004CD7C  2874 0001:0004CD8C  2875 0001:0004CD92
  2877 0001:0004CDA5  2878 0001:0004CDAB  2879 0001:0004CDC0  2880 0001:0004CDC7
  2885 0001:0004CDD0  2886 0001:0004CDFA  2888 0001:0004CE00  2889 0001:0004CE10
  2893 0001:0004CE25  2894 0001:0004CE38  2895 0001:0004CE4B  2899 0001:0004CE59
  2900 0001:0004CE68  2903 0001:0004CEB3  2904 0001:0004CEDC  2906 0001:0004CEE4
  2909 0001:0004CEF0  2910 0001:0004CEF8  2911 0001:0004CEFF  2912 0001:0004CF06
  2913 0001:0004CF0D  2914 0001:0004CF1C  2916 0001:0004CF33  2917 0001:0004CF4C
  2919 0001:0004CF6B  2923 0001:0004CF71  2924 0001:0004CF7E  2926 0001:0004CF80
  2928 0001:0004CF86  2929 0001:0004CF8C  2932 0001:0004CF98  2933 0001:0004CFA2
  2934 0001:0004CFA8  2935 0001:0004CFB0  2936 0001:0004CFB6  2938 0001:0004CFBC
  2914 0001:0004CFBF  2940 0001:0004CFC8  2942 0001:0004CFCE  2943 0001:0004CFD8
  2947 0001:0004CFDD  2948 0001:0004CFE7  2950 0001:0004CFFE  2951 0001:0004D017
  2953 0001:0004D036  2955 0001:0004D03C  2956 0001:0004D046  2958 0001:0004D04B
  2960 0001:0004D051  2961 0001:0004D057  2964 0001:0004D063  2965 0001:0004D06D
  2966 0001:0004D073  2967 0001:0004D07B  2968 0001:0004D081  2970 0001:0004D087
  2948 0001:0004D08A  2972 0001:0004D093  2973 0001:0004D09C  2974 0001:0004D0B0
  2976 0001:0004D0B9  2977 0001:0004D0BF  2978 0001:0004D0C5  2981 0001:0004D0D7
  2989 0001:0004D0DC  2990 0001:0004D0EB  2992 0001:0004D0FB  2993 0001:0004D100
  2994 0001:0004D115  2996 0001:0004D11B  2997 0001:0004D12B  3001 0001:0004D13D
  3002 0001:0004D14D  3003 0001:0004D153  3005 0001:0004D163  3007 0001:0004D169
  3008 0001:0004D16F  3009 0001:0004D180  3012 0001:0004D18D  3015 0001:0004D194
  3016 0001:0004D1B3  3019 0001:0004D1BC  3020 0001:0004D1C8  3022 0001:0004D1D3
  3023 0001:0004D1DC  3024 0001:0004D1E3  3026 0001:0004D1EB  3029 0001:0004D1F0
  3030 0001:0004D1FC  3032 0001:0004D207  3033 0001:0004D210  3035 0001:0004D218
  3040 0001:0004D21C  3041 0001:0004D225  3043 0001:0004D22E  3044 0001:0004D23C
  3046 0001:0004D242  3047 0001:0004D250  3050 0001:0004D257  3053 0001:0004D25C
  3054 0001:0004D268  3056 0001:0004D271  3057 0001:0004D28A  3059 0001:0004D291
  3062 0001:0004D298  3063 0001:0004D2A1  3064 0001:0004D2B7  3067 0001:0004D2BC
  3068 0001:0004D2C8  3069 0001:0004D2DC  3072 0001:0004D2E0  3073 0001:0004D2E9
  3074 0001:0004D2FF  3077 0001:0004D304  3078 0001:0004D310  3079 0001:0004D324
  3084 0001:0004D328  3085 0001:0004D334  3087 0001:0004D33F  3088 0001:0004D348
  3089 0001:0004D351  3091 0001:0004D366  3096 0001:0004D36C  3097 0001:0004D37B
  3099 0001:0004D384  3100 0001:0004D38F  3101 0001:0004D395  3102 0001:0004D3AA
  3103 0001:0004D3B0  3105 0001:0004D3BC  3106 0001:0004D3CE  3109 0001:0004D3D4
  3110 0001:0004D3E0  3111 0001:0004D3E6  3112 0001:0004D3F9  3113 0001:0004D406
  3116 0001:0004D40C  3117 0001:0004D418  3118 0001:0004D42F  3119 0001:0004D43C
  3122 0001:0004D440  3123 0001:0004D448  3124 0001:0004D456  3125 0001:0004D45F
  3126 0001:0004D474  3129 0001:0004D478  3130 0001:0004D481  3131 0001:0004D48A
  3132 0001:0004D495  3133 0001:0004D4A3  3233 0001:0004D4A8  3234 0001:0004D4B7
  3235 0001:0004D4C5  3237 0001:0004D4DF  3239 0001:0004D4F3  3250 0001:0004D4FC
  3251 0001:0004D51C  3253 0001:0004D564  3254 0001:0004D57E  3253 0001:0004D5A0
  3256 0001:0004D5AA  3258 0001:0004D5C4  3256 0001:0004D5E5  3262 0001:0004D5EF
  3263 0001:0004D5F3  3264 0001:0004D600  3266 0001:0004D61A  3268 0001:0004D620
  3269 0001:0004D629  3270 0001:0004D642  3273 0001:0004D64B  3274 0001:0004D655
  3275 0001:0004D66E  3277 0001:0004D674  3278 0001:0004D691  3280 0001:0004D696
  3264 0001:0004D699  3281 0001:0004D6A2  3284 0001:0004D6B5  3286 0001:0004D6BE
  3288 0001:0004D6D8  3289 0001:0004D6F0  3291 0001:0004D703  3292 0001:0004D71E
  3294 0001:0004D728  3295 0001:0004D743  3296 0001:0004D749  3297 0001:0004D764
  3298 0001:0004D775  3299 0001:0004D77B  3300 0001:0004D78E  3301 0001:0004D7A1
  3303 0001:0004D7BA  3304 0001:0004D7C9  3306 0001:0004D7CE  3286 0001:0004D7D1
  3309 0001:0004D7DF  3311 0001:0004D7E8  3313 0001:0004D802  3314 0001:0004D81D
  3316 0001:0004D827  3317 0001:0004D836  3319 0001:0004D844  3320 0001:0004D853
  3321 0001:0004D861  3322 0001:0004D86F  3323 0001:0004D884  3325 0001:0004D8AA
  3326 0001:0004D8B4  3329 0001:0004D8D9  3333 0001:0004D8E9  3311 0001:0004D8EC
  3336 0001:0004D8FA  3338 0001:0004D903  3340 0001:0004D91D  3341 0001:0004D938
  3343 0001:0004D942  3344 0001:0004D951  3345 0001:0004D95F  3346 0001:0004D96E
  3348 0001:0004D97C  3349 0001:0004D988  3350 0001:0004D996  3351 0001:0004D9A1
  3352 0001:0004D9B6  3355 0001:0004D9DB  3356 0001:0004D9E5  3359 0001:0004DA07
  3362 0001:0004DA24  3366 0001:0004DA3C  3338 0001:0004DA3F  3369 0001:0004DA4A
  3370 0001:0004DA60  3371 0001:0004DA6E  3374 0001:0004DA92  3375 0001:0004DA9D
  3376 0001:0004DA9F  3369 0001:0004DAA2  3378 0001:0004DAA7  3379 0001:0004DAEA
  3382 0001:0004DAF0  3384 0001:0004DAFC  3389 0001:0004DB19  3390 0001:0004DB24
  3393 0001:0004DB28  3394 0001:0004DB34  3396 0001:0004DB3F  3401 0001:0004DB53
  3406 0001:0004DB58  3407 0001:0004DB73  3408 0001:0004DB80  3409 0001:0004DB8A
  3410 0001:0004DB94  3411 0001:0004DBAE  3412 0001:0004DBBE  3413 0001:0004DBC5
  3414 0001:0004DBED  3417 0001:0004DBF4  3418 0001:0004DC05  3419 0001:0004DC12
  3420 0001:0004DC2E  3423 0001:0004DC34  3424 0001:0004DC41  3425 0001:0004DC57
  3428 0001:0004DC5C  3429 0001:0004DC65  3430 0001:0004DC74  3433 0001:0004DC78
  3434 0001:0004DC84  3435 0001:0004DC90  3440 0001:0004DC94  3441 0001:0004DC9D
  3442 0001:0004DCA8  3446 0001:0004DCB1  3447 0001:0004DCBF  3449 0001:0004DCC5
  3450 0001:0004DCD3  3454 0001:0004DCDC  3455 0001:0004DCEE  3458 0001:0004DCF5
  3463 0001:0004DCFC  3464 0001:0004DD06  3465 0001:0004DD0A  3466 0001:0004DD15
  3470 0001:0004DD1E  3471 0001:0004DD2C  3472 0001:0004DD32  3474 0001:0004DD43
  3477 0001:0004DD54  3478 0001:0004DD62  3488 0001:0004DD68  3489 0001:0004DD77
  3490 0001:0004DD94  3491 0001:0004DD9C  3492 0001:0004DDA7  3493 0001:0004DDB4
  3494 0001:0004DDC1  3495 0001:0004DDCC  3496 0001:0004DDD4  3498 0001:0004DE15
  3499 0001:0004DE3F  3506 0001:0004DE44  3507 0001:0004DE50  3508 0001:0004DE69
  3509 0001:0004DE7E  3507 0001:0004DE93  3510 0001:0004DE98  3594 0001:0004DE9C
  3597 0001:0004DEB4  3599 0001:0004DEDB  3600 0001:0004DEF5  3602 0001:0004DF0D
  3603 0001:0004DF1D  3605 0001:0004DF2F  3607 0001:0004DF3B  3608 0001:0004DF4B
  3612 0001:0004DF5D  3613 0001:0004DF6D  3615 0001:0004DF7D  3617 0001:0004DF94
  3622 0001:0004DFA0  3623 0001:0004DFAC  3624 0001:0004DFB7  3627 0001:0004DFC3
  3628 0001:0004DFDF  3629 0001:0004DFE4  3630 0001:0004DFF3  3633 0001:0004E034
  3635 0001:0004E047  3636 0001:0004E057  3625 0001:0004E05A  3638 0001:0004E06D
  3643 0001:0004E074  3644 0001:0004E080  3645 0001:0004E088  3646 0001:0004E08F
  3647 0001:0004E09A  3649 0001:0004E0A2  3650 0001:0004E0BC  3651 0001:0004E0C1
  3654 0001:0004E0D7  3655 0001:0004E0DA  3656 0001:0004E0E7  3658 0001:0004E0F9
  3647 0001:0004E0FC  3660 0001:0004E104  3663 0001:0004E108  3664 0001:0004E12A
  3665 0001:0004E175  3678 0001:0004E210  3679 0001:0004E233  3680 0001:0004E23D
  3682 0001:0004E27B  3667 0001:0004E280  3668 0001:0004E293  3669 0001:0004E29D
  3670 0001:0004E2A7  3671 0001:0004E2B7  3672 0001:0004E2C7  3673 0001:0004E2D1
  3674 0001:0004E2E2  3675 0001:0004E2F3  3677 0001:0004E304

Line numbers for Forms(Forms.pas) segment .text

  1289 0001:000500BC  1290 0001:000500C0  1291 0001:000500CB  1294 0001:000500D0
  1295 0001:000500D7  1296 0001:000500DF  1307 0001:000500E4  1308 0001:000500F0
  1310 0001:000500F6  1311 0001:00050104  1312 0001:0005010A  1313 0001:00050110
  1315 0001:00050117  1316 0001:00050119  1317 0001:0005011F  1320 0001:00050126
  1321 0001:00050135  1324 0001:0005014A  1345 0001:00050150  1346 0001:0005016B
  1347 0001:00050177  1348 0001:00050181  1350 0001:0005018B  1355 0001:0005018C
  1356 0001:00050192  1359 0001:000501B7  1360 0001:000501C4  1361 0001:000501CE
  1362 0001:000501D7  1363 0001:000501DF  1365 0001:000501EA  1366 0001:000501F4
  1372 0001:000501FC  1373 0001:00050208  1374 0001:0005020D  1375 0001:00050215
  1376 0001:0005021D  1377 0001:00050225  1378 0001:0005022C  1379 0001:0005023A
  1380 0001:00050248  1381 0001:0005025A  1383 0001:00050271  1384 0001:0005027B
  1387 0001:00050292  1388 0001:0005029A  1390 0001:000502AD  1395 0001:000502B4
  1396 0001:000502BD  1398 0001:000502C3  1399 0001:000502C9  1400 0001:000502E7
  1401 0001:000502EF  1396 0001:000502FC  1403 0001:00050302  1406 0001:00050308
  1407 0001:0005030C  1409 0001:0005033E  1411 0001:0005034D  1414 0001:00050360
  1416 0001:00050371  1417 0001:0005037B  1420 0001:00050380  1421 0001:00050389
  1422 0001:00050391  1423 0001:00050398  1424 0001:0005039F  1425 0001:000503B1
  1426 0001:000503BA  1427 0001:000503C4  1428 0001:000503CF  1433 0001:000503D4
  1434 0001:000503E1  1435 0001:000503E9  1436 0001:000503FB  1437 0001:0005040A
  1449 0001:00050410  1450 0001:00050414  1451 0001:0005041B  1453 0001:00050425
  1454 0001:0005042A  1456 0001:00050434  1461 0001:0005043C  1462 0001:00050442
  1463 0001:0005044A  1464 0001:0005044E  1465 0001:00050462  1466 0001:0005046B
  1471 0001:00050470  1472 0001:00050479  1474 0001:00050493  1475 0001:000504A3
  1477 0001:000504BE  1472 0001:000504C1  1478 0001:000504C6  1480 0001:000504E0
  1481 0001:000504F0  1482 0001:00050502  1478 0001:00050505  1483 0001:0005050A
  1484 0001:00050512  1559 0001:00050518  1560 0001:00050520  1561 0001:00050528
  1562 0001:00050532  1563 0001:0005053C  1564 0001:00050546  1565 0001:00050550
  1566 0001:0005055A  1567 0001:0005056D  1578 0001:00050574  1579 0001:0005057D
  1580 0001:00050585  1581 0001:00050595  1582 0001:000505A5  1587 0001:000505B2
  1592 0001:000505BC  1593 0001:000505C5  1594 0001:000505CD  1595 0001:000505DA
  1596 0001:000505E7  1597 0001:000505F4  1598 0001:00050601  1599 0001:0005060E
  1600 0001:0005061E  1613 0001:00050628  1614 0001:0005064B  1615 0001:00050699
  1620 0001:000506A0  1621 0001:000506AB  1622 0001:000506BD  1623 0001:000506CF
  1624 0001:000506D7  1625 0001:000506DF  1628 0001:000506E4  1629 0001:00050700
  1630 0001:0005070B  1631 0001:00050711  1632 0001:00050765  1638 0001:0005076C
  1639 0001:00050787  1640 0001:00050791  1641 0001:0005079A  1642 0001:000507A3
  1643 0001:000507AC  1644 0001:000507C3  1645 0001:000507CA  1646 0001:000507D4
  1647 0001:000507DE  1648 0001:000507E8  1649 0001:000507F2  1650 0001:000507F9
  1651 0001:0005081B  1654 0001:00050824  1655 0001:0005082D  1656 0001:0005083B
  1659 0001:00050840  1660 0001:0005084C  1662 0001:0005085E  1663 0001:0005086C
  1664 0001:0005087A  1665 0001:00050888  1666 0001:00050896  1668 0001:00050898
  1669 0001:000508A3  1672 0001:000508A8  1673 0001:000508AF  1674 0001:000508B8
  1675 0001:000508C4  1676 0001:000508D3  1678 0001:000508DF  1679 0001:000508ED
  1687 0001:000508F0  1688 0001:000508F7  1689 0001:00050900  1691 0001:00050914
  1692 0001:00050932  1693 0001:0005095A  1695 0001:00050966  1698 0001:00050974
  1699 0001:0005097B  1700 0001:00050984  1702 0001:00050992  1703 0001:000509B0
  1704 0001:000509D8  1706 0001:000509E4  1708 0001:000509F0  1709 0001:000509F9
  1711 0001:00050A0C  1713 0001:00050A1E  1714 0001:00050A23  1715 0001:00050A28
  1716 0001:00050A43  1717 0001:00050A4C  1718 0001:00050A63  1715 0001:00050A7B
  1719 0001:00050A80  1721 0001:00050A99  1723 0001:00050AA3  1728 0001:00050AA8
  1729 0001:00050AB1  1730 0001:00050AB8  1731 0001:00050AC8  1733 0001:00050AF5
  1742 0001:00050AFC  1743 0001:00050B06  1744 0001:00050B0D  1745 0001:00050B1B
  1746 0001:00050B3B  1749 0001:00050B40  1750 0001:00050B4E  1751 0001:00050B53
  1752 0001:00050B5C  1753 0001:00050B77  1754 0001:00050B92  1755 0001:00050BAD
  1756 0001:00050BC7  1758 0001:00050BCC  1759 0001:00050BDC  1761 0001:00050BFD
  1762 0001:00050C06  1763 0001:00050C27  1764 0001:00050C4B  1773 0001:00050C50
  1774 0001:00050C59  1775 0001:00050C72  1786 0001:00050C78  1787 0001:00050C7E
  1788 0001:00050C85  1789 0001:00050C8C  1790 0001:00050C91  1791 0001:00050CA4
  1792 0001:00050CB1  1793 0001:00050CD5  1794 0001:00050CDE  1796 0001:00050CE4
  1799 0001:00050CF0  1801 0001:00050D0E  1804 0001:00050D23  1805 0001:00050D36
  1806 0001:00050D49  1810 0001:00050D54  1811 0001:00050D5E  1812 0001:00050D70
  1813 0001:00050D82  1816 0001:00050D8D  1817 0001:00050D92  1818 0001:00050D97
  1820 0001:00050D9C  1821 0001:00050DA1  1823 0001:00050DAB  1824 0001:00050DB3
  1825 0001:00050DBC  1826 0001:00050DD6  1827 0001:00050DDC  1828 0001:00050DF7
  1829 0001:00050E0A  1830 0001:00050E1D  1831 0001:00050E30  1833 0001:00050E41
  1834 0001:00050E4F  1821 0001:00050E52  1836 0001:00050E5C  1838 0001:00050E66
  1839 0001:00050E84  1840 0001:00050E9A  1841 0001:00050EB0  1842 0001:00050EC6
  1847 0001:00050EDC  1848 0001:00050F13  1849 0001:00050F2F  1850 0001:00050F4B
  1851 0001:00050F6C  1853 0001:00050F8D  1854 0001:00050F99  1855 0001:00050FAC
  1857 0001:00050FBD  1858 0001:00050FC6  1859 0001:00050FD2  1860 0001:00050FE5
  1861 0001:00050FF6  1862 0001:00051002  1866 0001:00051010  1873 0001:00051014
  1874 0001:00051020  1876 0001:0005102B  1877 0001:00051031  1878 0001:00051037
  1879 0001:00051052  1880 0001:0005105B  1881 0001:00051062  1882 0001:0005106D
  1883 0001:00051073  1885 0001:0005107B  1888 0001:00051080  1889 0001:0005108C
  1891 0001:00051097  1892 0001:000510A0  1893 0001:000510A7  1894 0001:000510AE
  1896 0001:000510B9  1899 0001:000510C0  1900 0001:000510CC  1902 0001:000510D7
  1903 0001:000510E0  1905 0001:000510F3  1912 0001:000510F8  1913 0001:00051104
  1914 0001:00051110  1917 0001:0005111E  1918 0001:00051134  1919 0001:0005113F
  1920 0001:00051148  1921 0001:00051150  1922 0001:00051156  1924 0001:00051161
  1925 0001:0005116A  1926 0001:00051173  1927 0001:0005117C  1928 0001:00051191
  1929 0001:000511A4  1931 0001:000511B0  1932 0001:000511BE  1935 0001:000511DE
  1936 0001:00051200  1938 0001:00051223  1945 0001:00051228  1946 0001:00051234
  1948 0001:0005123F  1949 0001:00051245  1950 0001:0005124B  1951 0001:00051266
  1952 0001:0005126F  1953 0001:00051276  1954 0001:00051281  1955 0001:00051287
  1957 0001:0005128F  1960 0001:00051294  1961 0001:000512A0  1963 0001:000512AB
  1964 0001:000512B4  1965 0001:000512BB  1967 0001:000512C6  1970 0001:000512CC
  1971 0001:000512D8  1973 0001:000512E3  1974 0001:000512EC  1975 0001:000512F3
  1977 0001:000512FE  1980 0001:00051304  1981 0001:00051310  1982 0001:00051319
  1983 0001:0005132A  1984 0001:00051335  1987 0001:0005133C  1988 0001:00051348
  1989 0001:00051355  1990 0001:0005135C  1991 0001:00051367  1994 0001:0005136C
  1995 0001:00051375  1996 0001:00051389  1999 0001:00051390  2000 0001:0005139C
  2001 0001:000513A5  2002 0001:000513B0  2023 0001:000513B4  2024 0001:000513BB
  2025 0001:000513FE  2026 0001:0005140A  2027 0001:0005143F  2028 0001:0005144B
  2029 0001:00051480  2030 0001:0005148C  2031 0001:000514C1  2033 0001:000514FB
  2035 0001:00051500  2036 0001:0005150F  2037 0001:00051517  2038 0001:0005151D
  2039 0001:0005152C  2041 0001:00051535  2042 0001:00051551  2044 0001:00051562
  2045 0001:00051569  2046 0001:00051570  2047 0001:00051575  2048 0001:0005157E
  2049 0001:00051589  2050 0001:0005158E  2051 0001:000515A0  2052 0001:000515A9
  2053 0001:000515B2  2054 0001:000515BF  2055 0001:000515C6  2056 0001:000515E6
  2057 0001:000515F4  2058 0001:00051612  2059 0001:00051632  2064 0001:00051638
  2065 0001:00051653  2066 0001:00051660  2067 0001:00051672  2068 0001:0005168C
  2069 0001:000516A6  2070 0001:000516CB  2073 0001:000516D4  2074 0001:000516E5
  2075 0001:000516F3  2076 0001:00051701  2077 0001:0005171D  2080 0001:00051724
  2081 0001:00051730  2082 0001:0005173B  2084 0001:00051742  2087 0001:00051748
  2088 0001:0005174F  2092 0001:00051757  2094 0001:00051775  2095 0001:00051783
  2096 0001:0005178B  2099 0001:00051790  2100 0001:0005179F  2101 0001:000517A7
  2102 0001:000517B5  2105 0001:000517BC  2106 0001:000517C5  2107 0001:000517F2
  2115 0001:000517F8  2116 0001:00051801  2117 0001:00051810  2118 0001:0005181E
  2119 0001:00051829  2120 0001:00051835  2121 0001:00051855  2123 0001:0005185B
  2124 0001:00051864  2128 0001:0005186E  2130 0001:00051894  2131 0001:000518A9
  2132 0001:000518C0  2128 0001:000518C3  2135 0001:000518C8  2136 0001:000518DE
  2135 0001:000518FA  2138 0001:000518FF  2139 0001:00051905  2141 0001:00051920
  2143 0001:00051930  2146 0001:00051934  2147 0001:0005193B  2149 0001:00051947
  2150 0001:00051955  2152 0001:00051963  2155 0001:00051968  2156 0001:00051974
  2158 0001:00051982  2159 0001:0005198E  2161 0001:0005199E  2162 0001:000519AE
  2165 0001:000519BE  2168 0001:000519C4  2169 0001:000519D0  2170 0001:000519E1
  2173 0001:000519E8  2174 0001:000519F4  2175 0001:00051A05  2178 0001:00051A0C
  2179 0001:00051A13  2180 0001:00051A33  2181 0001:00051A41  2182 0001:00051A4B
  2184 0001:00051A5D  2185 0001:00051A6F  2187 0001:00051A83  2189 0001:00051A95
  2190 0001:00051AA7  2194 0001:00051ABB  2195 0001:00051ACD  2198 0001:00051AEC
  2200 0001:00051AFE  2203 0001:00051B04  2204 0001:00051B10  2206 0001:00051B28
  2207 0001:00051B33  2227 0001:00051B38  2228 0001:00051B44  2229 0001:00051B4E
  2230 0001:00051B59  2231 0001:00051B69  2232 0001:00051B79  2233 0001:00051B89
  2234 0001:00051B99  2235 0001:00051BC1  2236 0001:00051BE9  2237 0001:00051BEF
  2238 0001:00051C0E  2240 0001:00051C1B  2241 0001:00051C2D  2242 0001:00051C3B
  2244 0001:00051C62  2245 0001:00051C68  2246 0001:00051C87  2248 0001:00051C94
  2249 0001:00051CA6  2250 0001:00051CB4  2252 0001:00051CDB  2255 0001:00051CE0
  2256 0001:00051CEF  2258 0001:00051CFB  2260 0001:00051D04  2261 0001:00051D11
  2263 0001:00051D1E  2264 0001:00051D2E  2265 0001:00051D3E  2267 0001:00051D4A
  2268 0001:00051D7D  2271 0001:00051DB0  2272 0001:00051DBD  2273 0001:00051DCA
  2276 0001:00051DD0  2277 0001:00051DDF  2278 0001:00051DED  2279 0001:00051DFB
  2282 0001:00051E00  2284 0001:00051E0C  2289 0001:00051E10  2290 0001:00051E1C
  2291 0001:00051E25  2292 0001:00051E33  2293 0001:00051E3E  2294 0001:00051E42
  2295 0001:00051E54  2296 0001:00051E5A  2297 0001:00051E60  2299 0001:00051E64
  2301 0001:00051E7F  2303 0001:00051E90  2304 0001:00051E9A  2305 0001:00051EA8
  2307 0001:00051EBD  2309 0001:00051ECF  2310 0001:00051EED  2311 0001:00051EF5
  2314 0001:00051EFC  2315 0001:00051F08  2316 0001:00051F20  2317 0001:00051F33
  2318 0001:00051F3E  2321 0001:00051F44  2322 0001:00051F50  2323 0001:00051F68
  2324 0001:00051F7B  2325 0001:00051F86  2328 0001:00051F8C  2329 0001:00051F9A
  2332 0001:00052002  2333 0001:0005200D  2338 0001:00052014  2339 0001:00052020
  2340 0001:00052029  2342 0001:00052037  2343 0001:00052053  2345 0001:0005206B
  2347 0001:0005207C  2349 0001:00052088  2350 0001:00052096  2352 0001:0005209E
  2553 0001:000520A4  2554 0001:000520D9  2555 0001:000520E5  2556 0001:000520F3
  2557 0001:00052105  2559 0001:00052126  2560 0001:00052130  2561 0001:0005213E
  2562 0001:00052150  2564 0001:000521A7  2566 0001:000521B9  2569 0001:000521DD
  2571 0001:0005222C  2574 0001:00052234  2575 0001:0005223C  2576 0001:00052253
  2578 0001:0005225F  2579 0001:0005226B  2581 0001:00052275  2584 0001:0005227C
  2585 0001:00052297  2586 0001:000522A4  2588 0001:000522B0  2589 0001:000522BA
  2590 0001:000522C4  2591 0001:000522D1  2592 0001:000522DE  2593 0001:000522F3
  2594 0001:0005230E  2595 0001:00052329  2596 0001:0005233F  2597 0001:00052354
  2598 0001:00052365  2599 0001:00052374  2600 0001:0005237E  2601 0001:00052388
  2602 0001:00052392  2603 0001:0005239C  2604 0001:000523AD  2605 0001:000523B7
  2606 0001:000523C8  2607 0001:000523D2  2608 0001:000523DD  2609 0001:000523E7
  2610 0001:000523F1  2611 0001:000523FB  2612 0001:00052405  2613 0001:00052412
  2614 0001:0005243A  2617 0001:00052448  2618 0001:0005244F  2619 0001:0005245B
  2620 0001:00052463  2621 0001:00052473  2622 0001:0005247D  2623 0001:00052497
  2624 0001:000524AB  2625 0001:000524C2  2628 0001:000524C8  2629 0001:000524D9
  2630 0001:000524EE  2631 0001:000524FC  2632 0001:00052513  2633 0001:0005251D
  2634 0001:00052534  2635 0001:00052541  2636 0001:0005254F  2637 0001:0005255D
  2638 0001:0005256A  2640 0001:00052585  2642 0001:000525A7  2645 0001:000525AC
  2646 0001:000525B6  2647 0001:000525C3  2648 0001:000525D1  2650 0001:000525F2
  2651 0001:00052602  2653 0001:0005260C  2654 0001:00052622  2657 0001:00052628
  2658 0001:00052632  2659 0001:0005263F  2660 0001:0005264D  2662 0001:0005266E
  2664 0001:00052680  2669 0001:00052688  2670 0001:00052692  2671 0001:0005269A
  2673 0001:000526A6  2674 0001:000526B2  2675 0001:000526BD  2677 0001:000526D8
  2681 0001:000526E0  2682 0001:000526F0  2683 0001:000526FE  2686 0001:00052710
  2688 0001:00052722  2689 0001:00052743  2691 0001:00052759  2693 0001:0005279B
  2697 0001:000527A8  2698 0001:000527C6  2701 0001:000527D9  2702 0001:000527F1
  2703 0001:00052809  2707 0001:00052821  2708 0001:0005282D  2709 0001:00052841
  2715 0001:00052848  2716 0001:00052854  2717 0001:0005285C  2718 0001:0005286A
  2719 0001:00052875  2720 0001:00052880  2721 0001:0005288B  2722 0001:0005288F
  2723 0001:0005289F  2724 0001:000528AA  2726 0001:000528CA  2727 0001:000528EA
  2728 0001:0005291B  2729 0001:0005292C  2730 0001:00052937  2732 0001:00052949
  2733 0001:0005294D  2734 0001:00052961  2735 0001:00052975  2736 0001:00052981
  2737 0001:000529A7  2738 0001:000529B3  2739 0001:000529D9  2741 0001:000529E5
  2742 0001:00052A0B  2746 0001:00052A31  2747 0001:00052A4E  2748 0001:00052A6B
  2749 0001:00052A7A  2752 0001:00052A80  2753 0001:00052A92  2755 0001:00052AA4
  2757 0001:00052AC2  2759 0001:00052AD2  2762 0001:00052ADC  2763 0001:00052AE9
  2764 0001:00052AF4  2765 0001:00052B17  2766 0001:00052B3F  2767 0001:00052B5B
  2770 0001:00052BA8  2771 0001:00052BB4  2772 0001:00052BC0  2773 0001:00052BCA
  2776 0001:00052BD0  2777 0001:00052BDC  2778 0001:00052BED  2781 0001:00052BF4
  2782 0001:00052C00  2783 0001:00052C12  2786 0001:00052C18  2787 0001:00052C24
  2788 0001:00052C36  2791 0001:00052C3C  2792 0001:00052C45  2793 0001:00052C5D
  2796 0001:00052C70  2798 0001:00052C77  2803 0001:00052C7C  2804 0001:00052C8B
  2805 0001:00052C99  2806 0001:00052CA7  2808 0001:00052CB3  2809 0001:00052CBE
  2810 0001:00052CDE  2812 0001:00052CF9  2813 0001:00052D1F  2816 0001:00052D24
  2817 0001:00052D30  2819 0001:00052D3A  2820 0001:00052D52  2822 0001:00052D72
  2823 0001:00052D8C  2826 0001:00052D90  2827 0001:00052D99  2828 0001:00052DA9
  2831 0001:00052DB0  2832 0001:00052DB9  2834 0001:00052DEF  2837 0001:00052DF4
  2838 0001:00052DFD  2840 0001:00052E37  2843 0001:00052E3C  2844 0001:00052E49
  2845 0001:00052E6B  2848 0001:00052E70  2849 0001:00052E78  2850 0001:00052E97
  2853 0001:00052E9C  2854 0001:00052EA4  2855 0001:00052EC3  2858 0001:00052EC8
  2859 0001:00052ED4  2861 0001:00052EEA  2862 0001:00052EFB  2864 0001:00052F38
  2868 0001:00052F6C  2869 0001:00052F77  2875 0001:00052F7C  2876 0001:00052F89
  2877 0001:00052F9A  2878 0001:00052FA2  2880 0001:00052FBA  2881 0001:00052FC8
  2882 0001:00052FE1  2878 0001:00052FE4  2883 0001:00052FE9  2886 0001:00052FF0
  2887 0001:00052FFA  2888 0001:00053028  2893 0001:00053030  2894 0001:00053040
  2895 0001:00053052  2898 0001:00053062  2899 0001:0005306D  2900 0001:00053074
  2901 0001:0005308C  2903 0001:000530A4  2904 0001:000530A7  2906 0001:000530AF
  2907 0001:000530BA  2909 0001:000530BC  2900 0001:000530BF  2911 0001:000530C4
  2914 0001:000530CC  2915 0001:000530D8  2917 0001:000530E3  2919 0001:000530EE
  2920 0001:000530F7  2922 0001:00053108  2925 0001:0005310C  2926 0001:00053118
  2928 0001:00053121  2929 0001:0005312D  2930 0001:00053146  2931 0001:00053151
  2934 0001:0005315C  2935 0001:00053168  2937 0001:00053171  2938 0001:0005317D
  2939 0001:00053196  2940 0001:000531A1  2943 0001:000531AC  2944 0001:000531B8
  2945 0001:000531C4  2946 0001:000531CA  2947 0001:000531D6  2950 0001:000531E2
  2951 0001:000531FB  2953 0001:00053206  2956 0001:0005320C  2957 0001:00053228
  2958 0001:0005323D  2959 0001:0005327B  2962 0001:00053280  2963 0001:0005328F
  2964 0001:00053296  2967 0001:0005329C  2968 0001:000532A8  2970 0001:000532BB
  2971 0001:000532CC  2972 0001:000532D7  2974 0001:000532E8  2978 0001:000532EC
  2979 0001:000532FC  2980 0001:0005330E  2981 0001:0005331A  2982 0001:00053332
  2994 0001:0005333C  2996 0001:0005334A  2999 0001:0005338E  3000 0001:0005339B
  3002 0001:000533B4  3003 0001:000533B9  3005 0001:000533C5  3007 0001:000533E3
  3008 0001:000533FD  3009 0001:0005340E  3011 0001:00053418  3012 0001:00053421
  3017 0001:00053426  3019 0001:00053447  3021 0001:00053468  3023 0001:00053486
  3025 0001:000534A0  3026 0001:000534B0  3028 0001:000534DA  3031 0001:000534EF
  3032 0001:000534F8  3034 0001:00053514  3035 0001:0005352D  3037 0001:00053537
  3038 0001:00053546  3040 0001:00053554  3041 0001:00053563  3042 0001:00053571
  3043 0001:0005357F  3044 0001:00053592  3047 0001:000535B8  3048 0001:000535C2
  3051 0001:000535E7  3057 0001:000535F7  3058 0001:00053600  3060 0001:0005361C
  3061 0001:00053635  3063 0001:0005363F  3064 0001:00053650  3065 0001:0005365E
  3066 0001:0005366D  3068 0001:0005367B  3069 0001:00053687  3070 0001:00053695
  3071 0001:000536A0  3072 0001:000536B3  3075 0001:000536D8  3076 0001:000536E2
  3079 0001:00053704  3082 0001:00053721  3087 0001:0005373B  3089 0001:00053748
  3090 0001:00053759  3091 0001:0005376A  3092 0001:0005377B  3093 0001:0005378C
  3094 0001:0005379D  3097 0001:000537AE  3098 0001:000537B9  3103 0001:000537C8
  3104 0001:000537CB  3106 0001:00053810  3111 0001:00053814  3112 0001:0005381A
  3113 0001:00053835  3115 0001:0005384C  3116 0001:00053850  3117 0001:00053852
  3112 0001:00053855  3118 0001:0005385A  3119 0001:00053861  3125 0001:00053868
  3127 0001:00053874  3130 0001:00053899  3131 0001:000538A0  3135 0001:000538BC
  3137 0001:000538E6  3139 0001:000538FE  3140 0001:00053911  3142 0001:00053930
  3146 0001:0005393F  3147 0001:00053946  3148 0001:00053956  3153 0001:00053986
  3154 0001:0005398F  3155 0001:00053995  3156 0001:000539AE  3157 0001:000539BC
  3159 0001:000539C2  3160 0001:000539D5  3161 0001:000539EF  3163 0001:00053A04
  3165 0001:00053A1C  3166 0001:00053A22  3170 0001:00053A3D  3172 0001:00053A44
  3177 0001:00053A48  3178 0001:00053A57  3179 0001:00053A65  3182 0001:00053A71
  3184 0001:00053AAA  3185 0001:00053AB6  3186 0001:00053ACD  3188 0001:00053AE0
  3194 0001:00053AE4  3195 0001:00053AF0  3197 0001:00053AFB  3199 0001:00053B07
  3201 0001:00053B29  3202 0001:00053B34  3206 0001:00053B48  3207 0001:00053B60
  3208 0001:00053B7A  3206 0001:00053B8D  3209 0001:00053B92  3212 0001:00053B98
  3214 0001:00053BA4  3215 0001:00053BB0  3216 0001:00053BBA  3217 0001:00053BC8
  3220 0001:00053BD1  3221 0001:00053BDA  3223 0001:00053BEC  3224 0001:00053BFD
  3227 0001:00053C14  3229 0001:00053C26  3237 0001:00053C2C  3238 0001:00053C38
  3240 0001:00053C46  3241 0001:00053C52  3243 0001:00053C63  3246 0001:00053C68
  3247 0001:00053C74  3249 0001:00053C82  3250 0001:00053C8E  3251 0001:00053CAD
  3253 0001:00053CBE  3258 0001:00053CC4  3259 0001:00053CDB  3260 0001:00053CE4
  3261 0001:00053CF0  3262 0001:00053CFE  3263 0001:00053D20  3264 0001:00053D28
  3267 0001:00053D30  3268 0001:00053D3F  3270 0001:00053D5F  3271 0001:00053D65
  3273 0001:00053D79  3274 0001:00053D8B  3276 0001:00053D95  3277 0001:00053DA3
  3280 0001:00053DA8  3281 0001:00053DB1  3282 0001:00053DB6  3283 0001:00053DCE
  3285 0001:00053DF1  3290 0001:00053DF8  3291 0001:00053E01  3292 0001:00053E06
  3293 0001:00053E1E  3294 0001:00053E38  3293 0001:00053E54  3295 0001:00053E5C
  3300 0001:00053E60  3301 0001:00053E6C  3302 0001:00053E84  3304 0001:00053E9E
  3305 0001:00053EAE  3307 0001:00053EBA  3308 0001:00053EBD  3310 0001:00053EC3
  3302 0001:00053EC6  3311 0001:00053ECB  3312 0001:00053ED3  3318 0001:00053ED8
  3319 0001:00053EDE  3320 0001:00053EE4  3321 0001:00053EF3  3322 0001:00053EFC
  3323 0001:00053F08  3324 0001:00053F13  3325 0001:00053F1A  3331 0001:00053F20
  3332 0001:00053F29  3333 0001:00053F2E  3334 0001:00053F45  3335 0001:00053F5F
  3337 0001:00053F74  3338 0001:00053F84  3339 0001:00053F89  3334 0001:00053F8C
  3342 0001:00053F91  3343 0001:00053FAB  3342 0001:00053FC3  3344 0001:00053FC8
  3345 0001:00053FD5  3346 0001:00053FF1  3347 0001:0005400B  3349 0001:00054020
  3350 0001:00054030  3351 0001:00054032  3346 0001:00054035  3352 0001:0005403D
  3355 0001:00054044  3356 0001:0005404D  3357 0001:0005405C  3360 0001:00054060
  3361 0001:0005406C  3362 0001:0005407D  3365 0001:00054084  3366 0001:0005408D
  3367 0001:0005409B  3370 0001:000540A0  3371 0001:000540A9  3372 0001:000540D3
  3377 0001:000540D8  3378 0001:000540E4  3380 0001:000540F6  3381 0001:00054108
  3382 0001:00054112  3383 0001:00054123  3384 0001:0005412F  3385 0001:0005413B
  3386 0001:00054153  3387 0001:00054165  3388 0001:00054176  3390 0001:00054186
  3396 0001:0005418C  3397 0001:00054195  3399 0001:000541B5  3400 0001:000541BA
  3401 0001:000541D7  3402 0001:000541DC  3403 0001:000541F9  3404 0001:0005420E
  3405 0001:0005422A  3407 0001:0005423E  3410 0001:00054244  3411 0001:00054250
  3412 0001:0005425C  3414 0001:00054262  3415 0001:0005426D  3417 0001:00054277
  3420 0001:0005427C  3421 0001:00054288  3423 0001:00054296  3424 0001:000542A2
  3425 0001:000542B3  3427 0001:000542BB  3432 0001:000542C0  3433 0001:000542E0
  3434 0001:000542EA  3435 0001:00054304  3436 0001:0005432E  3434 0001:00054365
  3437 0001:0005436A  3438 0001:00054386  3440 0001:0005439E  3441 0001:000543A3
  3442 0001:000543AF  3443 0001:000543C0  3446 0001:000543E3  3449 0001:00054407
  3451 0001:00054417  3452 0001:00054439  3453 0001:00054456  3456 0001:0005446A
  3457 0001:00054476  3459 0001:00054494  3460 0001:000544B0  3461 0001:000544C6
  3462 0001:000544EB  3465 0001:000544F0  3466 0001:000544F9  3467 0001:00054505
  3468 0001:00054519  3471 0001:00054520  3472 0001:0005452C  3474 0001:0005455A
  3475 0001:00054566  3478 0001:0005456C  3479 0001:00054578  3481 0001:00054586
  3482 0001:00054592  3484 0001:000545A3  3487 0001:000545A8  3488 0001:000545B1
  3489 0001:000545C2  3492 0001:000545C8  3493 0001:000545D4  3495 0001:000545E1
  3496 0001:000545EC  3498 0001:00054603  3501 0001:00054608  3502 0001:00054614
  3503 0001:0005461F  3504 0001:00054642  3507 0001:00054648  3508 0001:00054651
  3509 0001:00054658  3510 0001:0005466E  3513 0001:00054674  3514 0001:00054680
  3515 0001:0005468B  3517 0001:00054697  3519 0001:000546B6  3520 0001:000546D4
  3523 0001:000546D8  3524 0001:000546E4  3525 0001:000546EF  3526 0001:0005470F
  3529 0001:00054714  3530 0001:00054720  3531 0001:00054728  3532 0001:00054739
  3538 0001:00054740  3539 0001:0005474C  3541 0001:0005475A  3542 0001:00054766
  3543 0001:0005477B  3545 0001:00054796  3552 0001:0005479C  3553 0001:000547A6
  3555 0001:000547C5  3556 0001:000547CA  3557 0001:000547D6  3558 0001:000547EB
  3559 0001:00054802  3560 0001:00054817  3561 0001:00054823  3562 0001:00054835
  3563 0001:00054843  3564 0001:00054861  3565 0001:0005487A  3566 0001:00054886
  3567 0001:000548A4  3569 0001:000548BD  3570 0001:000548CD  3574 0001:00054959
  3576 0001:00054969  3582 0001:000549F5  3583 0001:00054A26  3584 0001:00054A5B
  3585 0001:00054A8C  3586 0001:00054ABD  3587 0001:00054AF2  3588 0001:00054B23
  3590 0001:00054B42  3566 0001:00054B45  3590 0001:00054B4E  3563 0001:00054B51
  3592 0001:00054B5A  3598 0001:00054B60  3599 0001:00054B6C  3600 0001:00054B77
  3603 0001:00054B82  3605 0001:00054B97  3606 0001:00054BA5  3608 0001:00054BAF
  3609 0001:00054BB9  3610 0001:00054BCB  3614 0001:00054BDA  3616 0001:00054BE8
  3617 0001:00054BF2  3619 0001:00054BFC  3620 0001:00054C08  3621 0001:00054C14
  3622 0001:00054C2B  3623 0001:00054C2F  3626 0001:00054C5C  3627 0001:00054C71
  3628 0001:00054C7B  3631 0001:00054C88  3634 0001:00054C97  3635 0001:00054CA1
  3637 0001:00054CB2  3638 0001:00054CBC  3643 0001:00054CC8  3644 0001:00054CDE
  3645 0001:00054CE8  3646 0001:00054CF6  3647 0001:00054D00  3648 0001:00054D16
  3649 0001:00054D21  3653 0001:00054D2B  3655 0001:00054D34  3656 0001:00054D3E
  3657 0001:00054D4C  3659 0001:00054D57  3661 0001:00054D5E  3663 0001:00054D70
  3664 0001:00054D80  3666 0001:00054D90  3667 0001:00054DA8  3668 0001:00054DC0
  3669 0001:00054DCA  3670 0001:00054DDA  3671 0001:00054DEA  3672 0001:00054DF3
  3673 0001:00054DFD  3676 0001:00054E14  3681 0001:00054E24  3682 0001:00054E2D
  3683 0001:00054E35  3684 0001:00054E3F  3685 0001:00054E4B  3686 0001:00054E6B
  3687 0001:00054E82  3688 0001:00054E8F  3693 0001:00054EA9  3694 0001:00054EB0
  3695 0001:00054EB5  3697 0001:00054ED2  3706 0001:00054F1C  3708 0001:00054F33
  3709 0001:00054F4D  3712 0001:00054F6A  3715 0001:00054F84  3721 0001:00054F94
  3722 0001:00054FBB  3724 0001:00054FD8  3726 0001:00054FF4  3729 0001:0005501B
  3730 0001:00055024  3731 0001:0005502C  3732 0001:00055034  3733 0001:0005503D
  3734 0001:00055046  3735 0001:0005504F  3736 0001:00055058  3737 0001:00055061
  3739 0001:0005506A  3741 0001:00055092  3744 0001:0005509E  3745 0001:000550B0
  3746 0001:000550BA  3747 0001:000550C8  3749 0001:000550D2  3750 0001:000550FA
  3753 0001:00055100  3754 0001:00055107  3755 0001:00055113  3757 0001:00055139
  3758 0001:00055141  3759 0001:0005514C  3762 0001:00055150  3763 0001:0005515C
  3765 0001:00055168  3766 0001:00055170  3767 0001:0005519A  3769 0001:000551CE
  3770 0001:000551D9  3773 0001:000551E0  3774 0001:00055200  3776 0001:00055212
  3779 0001:00055246  3780 0001:00055267  3781 0001:00055273  3783 0001:0005527C
  3784 0001:00055290  3787 0001:000552B9  3790 0001:000552C0  3791 0001:000552CF
  3792 0001:000552EA  3793 0001:000552F9  3794 0001:00055318  3799 0001:0005531C
  3800 0001:00055328  3801 0001:00055334  3802 0001:0005533F  3803 0001:00055350
  3809 0001:00055354  3810 0001:00055360  3811 0001:00055364  3812 0001:0005536A
  3813 0001:00055376  3814 0001:0005537E  3815 0001:0005538C  3816 0001:00055397
  3817 0001:000553A2  3818 0001:000553AD  3819 0001:000553BD  3820 0001:000553CF
  3822 0001:000553E1  3823 0001:000553EC  3824 0001:000553FC  3826 0001:00055410
  3827 0001:0005541A  3829 0001:00055427  3830 0001:0005543C  3831 0001:0005544A
  3833 0001:00055457  3835 0001:00055462  3836 0001:00055472  3837 0001:0005547C
  3839 0001:00055496  3840 0001:000554A1  3842 0001:000554C0  3843 0001:000554D8
  3848 0001:000554EC  3849 0001:000554FD  3850 0001:00055512  3845 0001:0005552C
  3854 0001:0005554F  3856 0001:00055557  3855 0001:00055560  3857 0001:00055571
  3858 0001:0005557D  3852 0001:0005559C  3860 0001:000555AA  3861 0001:000555B3
  3863 0001:000555B9  3864 0001:000555CB  3865 0001:000555D9  3861 0001:000555E2
  3867 0001:000555E8  3868 0001:000555FB  3869 0001:00055615  3872 0001:00055639
  3874 0001:00055658  3875 0001:00055662  3877 0001:00055669  3880 0001:00055674
  3881 0001:0005567B  3886 0001:00055680  3887 0001:0005568A  3888 0001:000556A2
  3889 0001:000556B0  3890 0001:000556B6  3891 0001:000556C4  3892 0001:000556D7
  3893 0001:000556E8  3896 0001:000556F0  3897 0001:000556FC  3898 0001:00055708
  3899 0001:00055714  3900 0001:0005572E  3902 0001:00055734  3903 0001:00055749
  3904 0001:00055763  3905 0001:0005576D  3907 0001:00055775  3910 0001:0005577C
  3911 0001:00055788  3912 0001:000557A0  3913 0001:000557B9  3914 0001:000557D1
  3915 0001:000557E1  3920 0001:000557E8  3921 0001:000557F4  3927 0001:00055856
  3928 0001:0005585B  3929 0001:0005588B  3930 0001:00055897  3931 0001:000558A8
  3933 0001:000558C6  3936 0001:000558CC  3937 0001:000558DB  3940 0001:000558E3
  3939 0001:000558EC  3941 0001:00055907  3942 0001:00055915  3943 0001:0005592B
  3946 0001:00055930  3947 0001:00055938  3948 0001:0005594E  3949 0001:0005596D
  3952 0001:00055974  3953 0001:0005597C  3954 0001:00055992  3955 0001:000559B1
  3958 0001:000559B8  3959 0001:000559C0  3960 0001:000559DF  3963 0001:000559E4
  3964 0001:000559ED  3965 0001:000559FE  3966 0001:00055A14  3969 0001:00055A18
  3970 0001:00055A25  3971 0001:00055A33  3972 0001:00055A41  3973 0001:00055A52
  3974 0001:00055A60  3976 0001:00055A95  3979 0001:00055ABA  3981 0001:00055AD0
  3987 0001:00055AD8  3988 0001:00055AE5  3989 0001:00055AE9  3990 0001:00055AF4
  3991 0001:00055AFA  3992 0001:00055B0C  3994 0001:00055B24  3995 0001:00055B2C
  3996 0001:00055B3A  3997 0001:00055B42  3998 0001:00055B57  3992 0001:00055B5A
  3999 0001:00055B5F  4000 0001:00055B67  4001 0001:00055B78  4007 0001:00055B80
  4008 0001:00055B8C  4010 0001:00055B9E  4011 0001:00055BB2  4012 0001:00055BBD
  4016 0001:00055BD5  4017 0001:00055BEA  4018 0001:00055C00  4020 0001:00055C12
  4023 0001:00055C1C  4024 0001:00055C28  4025 0001:00055C34  4026 0001:00055C49
  4027 0001:00055C7A  4028 0001:00055C85  4031 0001:00055C8C  4032 0001:00055C98
  4034 0001:00055CB7  4035 0001:00055CC0  4037 0001:00055CCB  4040 0001:00055CD0
  4041 0001:00055CDC  4042 0001:00055CEA  4049 0001:00055CF0  4050 0001:00055CF4
  4054 0001:00055D2D  4055 0001:00055D43  4059 0001:00055D52  4060 0001:00055D62
  4061 0001:00055D72  4062 0001:00055D82  4063 0001:00055D92  4064 0001:00055DA2
  4065 0001:00055DB2  4070 0001:00055DC4  4071 0001:00055DD3  4072 0001:00055DE3
  4073 0001:00055DF2  4076 0001:00055E02  4078 0001:00055E08  4079 0001:00055E14
  4080 0001:00055E1F  4081 0001:00055E30  4082 0001:00055E40  4085 0001:00055E44
  4086 0001:00055E50  4091 0001:00055E84  4092 0001:00055E9E  4094 0001:00055EBF
  4097 0001:00055EE5  4098 0001:00055EF0  4101 0001:00055EF4  4102 0001:00055F00
  4103 0001:00055F21  4105 0001:00055F39  4106 0001:00055F49  4108 0001:00055F59
  4109 0001:00055F64  4112 0001:00055F68  4114 0001:00055F74  4115 0001:00055FA2
  4116 0001:00055FAD  4119 0001:00055FB4  4120 0001:00055FC0  4121 0001:00055FE0
  4124 0001:00055FE4  4125 0001:00055FF0  4127 0001:00055FFC  4128 0001:0005600D
  4131 0001:00056016  4134 0001:00056023  4135 0001:0005602E  4142 0001:00056034
  4143 0001:00056053  4146 0001:00056063  4147 0001:00056068  4149 0001:0005607D
  4150 0001:00056081  4151 0001:0005608B  4153 0001:00056094  4154 0001:00056098
  4156 0001:000560AB  4158 0001:000560C2  4159 0001:000560C8  4160 0001:000560E5
  4162 0001:0005610E  4165 0001:00056114  4166 0001:00056120  4167 0001:00056135
  4168 0001:00056148  4171 0001:0005614C  4172 0001:00056159  4173 0001:00056162
  4174 0001:0005616E  4175 0001:00056174  4176 0001:00056180  4177 0001:0005619A
  4180 0001:000561A0  4181 0001:000561AC  4182 0001:000561B4  4185 0001:000561B8
  4186 0001:000561C4  4187 0001:000561EB  4192 0001:000561F0  4193 0001:000561FC
  4194 0001:00056204  4196 0001:00056234  4198 0001:0005623D  4199 0001:00056247
  4200 0001:00056262  4202 0001:0005626C  4205 0001:00056270  4208 0001:0005627D
  4209 0001:0005629C  4210 0001:000562AB  4212 0001:000562DB  4213 0001:000562E6
  4215 0001:0005631C  4217 0001:00056328  4223 0001:00056330  4225 0001:0005633C
  4228 0001:0005634F  4229 0001:0005636D  4230 0001:0005638B  4231 0001:00056395
  4234 0001:000563A2  4236 0001:000563AE  4237 0001:000563CE  4240 0001:000563DA
  4242 0001:000563E5  4247 0001:000563EC  4248 0001:000563F9  4249 0001:00056404
  4251 0001:00056410  4252 0001:00056422  4253 0001:0005642D  4254 0001:00056441
  4256 0001:00056454  4259 0001:0005645C  4261 0001:00056468  4262 0001:00056472
  4263 0001:00056480  4264 0001:000564A0  4267 0001:000564A4  4268 0001:000564B0
  4269 0001:000564BA  4270 0001:000564C5  4275 0001:000564CC  4276 0001:000564D5
  4277 0001:000564DA  4278 0001:000564E0  4279 0001:000564F9  4280 0001:000564FF
  4281 0001:0005651B  4284 0001:00056520  4285 0001:00056529  4286 0001:0005652D
  4287 0001:00056545  4288 0001:0005654B  4289 0001:00056563  4290 0001:0005656A
  4293 0001:00056570  4294 0001:0005657F  4296 0001:0005658B  4297 0001:00056591
  4300 0001:000565A1  4301 0001:000565A7  4303 0001:000565B8  4311 0001:000565C0
  4312 0001:000565DF  4316 0001:000565EC  4318 0001:000565F5  4320 0001:000565FE
  4322 0001:0005660E  4321 0001:00056617  4323 0001:0005662B  4324 0001:00056635
  4325 0001:00056649  4329 0001:00056670  4330 0001:00056674  4331 0001:00056687
  4332 0001:0005668D  4333 0001:0005669D  4336 0001:000566C2  4338 0001:000566D4
  4339 0001:000566E6  4342 0001:000566FA  4343 0001:00056700  4344 0001:0005670F
  4345 0001:00056715  4348 0001:0005673F  4351 0001:00056744  4352 0001:00056751
  4353 0001:0005676E  4355 0001:00056780  4357 0001:00056789  4358 0001:0005679D
  4360 0001:000567B2  4362 0001:000567BB  4363 0001:000567CF  4365 0001:000567E4
  4368 0001:00056806  4369 0001:00056811  4375 0001:00056818  4376 0001:00056827
  4377 0001:00056845  4378 0001:00056850  4380 0001:00056854  4381 0001:00056860
  4382 0001:0005688C  4384 0001:000568A5  4385 0001:000568C8  4386 0001:000568EB
  4387 0001:00056901  4389 0001:00056917  4390 0001:00056922  4393 0001:00056928
  4394 0001:00056935  4395 0001:0005693E  4396 0001:0005694C  4397 0001:00056956
  4400 0001:0005695C  4401 0001:00056969  4402 0001:00056972  4403 0001:00056980
  4404 0001:0005698A  4407 0001:00056990  4408 0001:0005699C  4410 0001:000569AC
  4412 0001:000569C7  4414 0001:000569D3  4415 0001:000569F3  4416 0001:000569FD
  4420 0001:000569FF  4422 0001:00056A0B  4424 0001:00056A41  4426 0001:00056A4B
  4429 0001:00056A4D  4430 0001:00056A58  4440 0001:00056A5C  4441 0001:00056A7E
  4442 0001:00056A93  4443 0001:00056AB4  4444 0001:00056ABE  4445 0001:00056AC8
  4446 0001:00056AD6  4447 0001:00056AE3  4449 0001:00056AF3  4450 0001:00056B01
  4452 0001:00056B1C  4454 0001:00056B2E  4457 0001:00056B5A  4459 0001:00056B66
  4460 0001:00056B83  4463 0001:00056BA2  4464 0001:00056BBC  4466 0001:00056BD6
  4467 0001:00056BE1  4468 0001:00056BEC  4469 0001:00056C0B  4471 0001:00056C25
  4473 0001:00056C38  4474 0001:00056C43  4475 0001:00056C64  4476 0001:00056C6D
  4478 0001:00056C73  4479 0001:00056C8F  4482 0001:00056CAD  4483 0001:00056CC7
  4485 0001:00056CE1  4486 0001:00056CEC  4487 0001:00056CF7  4488 0001:00056D16
  4490 0001:00056D30  4492 0001:00056D40  4494 0001:00056D4C  4495 0001:00056D69
  4498 0001:00056D88  4499 0001:00056DA2  4501 0001:00056DBC  4502 0001:00056DC7
  4503 0001:00056DD2  4505 0001:00056DF1  4506 0001:00056DFB  4509 0001:00056E0B
  4511 0001:00056E17  4512 0001:00056E3B  4516 0001:00056E4D  4517 0001:00056E6D
  4519 0001:00056E96  4521 0001:00056E9E  4525 0001:00056EC0  4528 0001:00056EE5
  4529 0001:00056EF3  4531 0001:00056F0E  4533 0001:00056F20  4534 0001:00056F2D
  4535 0001:00056F37  4536 0001:00056F43  4537 0001:00056F50  4538 0001:00056F5C
  4542 0001:00056F7B  4543 0001:00056F80  4544 0001:00056FA5  4545 0001:00056FB5
  4548 0001:00056FBB  4549 0001:00056FD8  4551 0001:00056FE3  4555 0001:00057000
  4557 0001:0005702F  4560 0001:00057038  4561 0001:00057044  4562 0001:00057060
  4565 0001:00057064  4566 0001:00057070  4567 0001:00057078  4570 0001:0005707C
  4571 0001:00057088  4572 0001:00057093  4574 0001:000570BB  4575 0001:000570D8
  4578 0001:000570DC  4579 0001:000570E8  4580 0001:000570F3  4585 0001:000570F8
  4586 0001:00057104  4587 0001:0005710D  4588 0001:00057116  4591 0001:00057129
  4592 0001:00057138  4593 0001:00057146  4595 0001:00057161  4598 0001:00057171
  4601 0001:00057178  4602 0001:00057185  4603 0001:00057198  4605 0001:000571A4
  4606 0001:000571AC  4611 0001:000571B4  4612 0001:000571BE  4613 0001:000571CA
  4615 0001:000571DC  4617 0001:000571EF  4618 0001:000571FB  4619 0001:00057207
  4620 0001:0005720D  4622 0001:00057213  4623 0001:00057217  4624 0001:00057226
  4625 0001:0005722C  4626 0001:00057245  4627 0001:00057255  4628 0001:00057267
  4630 0001:0005726F  4635 0001:00057274  4636 0001:0005727E  4638 0001:0005728A
  4639 0001:0005728E  4640 0001:000572A6  4639 0001:000572C0  4642 0001:000572C5
  4643 0001:000572C9  4644 0001:000572EE  4649 0001:000572F4  4650 0001:00057300
  4651 0001:0005730E  4652 0001:00057312  4654 0001:00057321  4655 0001:00057325
  4657 0001:00057334  4658 0001:00057341  4659 0001:0005734E  4662 0001:00057365
  4663 0001:00057370  4665 0001:00057382  4766 0001:0005738C  4767 0001:00057393
  4768 0001:0005739D  4771 0001:000573A0  4772 0001:000573A7  4773 0001:000573B1
  4774 0001:000573B9  4777 0001:000573BC  4778 0001:000573D8  4780 0001:000573E4
  4781 0001:000573F9  4782 0001:0005741A  4784 0001:0005743F  4787 0001:00057444
  4788 0001:0005744B  4789 0001:00057462  4798 0001:00057468  4799 0001:00057485
  4800 0001:0005748A  4802 0001:000574B7  4803 0001:000574D8  4804 0001:000574F2
  4805 0001:000574F7  4806 0001:00057501  4807 0001:0005750F  4808 0001:00057519
  4809 0001:00057521  4810 0001:00057529  4811 0001:00057540  4812 0001:0005754B
  4813 0001:00057558  4814 0001:00057564  4815 0001:0005756F  4816 0001:00057579
  4817 0001:00057587  4818 0001:0005758F  4819 0001:0005759D  4820 0001:000575B4
  4822 0001:000575BF  4823 0001:000575C9  4824 0001:000575E6  4825 0001:000575FA
  4826 0001:00057606  4827 0001:00057612  4828 0001:00057629  4830 0001:0005764E
  4833 0001:0005766B  4834 0001:00057678  4835 0001:00057688  4836 0001:00057694
  4837 0001:0005769C  4839 0001:000576AA  4840 0001:000576C0  4841 0001:000576D7
  4842 0001:000576E1  4843 0001:000576F0  4844 0001:000576F8  4847 0001:0005771A
  4849 0001:0005774C  4859 0001:00057754  4860 0001:0005775D  4861 0001:00057769
  4863 0001:00057781  4864 0001:0005778F  4865 0001:000577A1  4866 0001:000577A9
  4867 0001:000577BB  4868 0001:000577C8  4861 0001:000577CB  4869 0001:000577D0
  4871 0001:000577D4  4872 0001:000577DD  4874 0001:000577F2  4876 0001:000577FA
  4877 0001:00057806  4878 0001:00057827  4879 0001:0005783E  4877 0001:00057852
  4881 0001:00057857  4882 0001:00057861  4902 0001:00057868  4903 0001:0005786F
  4904 0001:00057878  4906 0001:00057888  4907 0001:00057890  4910 0001:00057894
  4911 0001:000578A1  4912 0001:000578AC  4913 0001:000578B5  4914 0001:000578C1
  4919 0001:000578C8  4920 0001:000578D2  4922 0001:000578FD  4928 0001:00057904
  4929 0001:0005790D  4930 0001:00057919  4932 0001:00057931  4933 0001:0005793F
  4936 0001:0005797C  4937 0001:00057980  4939 0001:00057982  4930 0001:00057985
  4940 0001:0005798A  4941 0001:00057991  4943 0001:00057998  4944 0001:000579A4
  4946 0001:000579B9  4948 0001:000579E9  4949 0001:000579F3  4954 0001:000579F8
  4955 0001:00057A02  4957 0001:00057A2D  4963 0001:00057A34  4964 0001:00057A3D
  4965 0001:00057A49  4967 0001:00057A61  4968 0001:00057A6F  4971 0001:00057AAC
  4972 0001:00057AB0  4974 0001:00057AB2  4965 0001:00057AB5  4975 0001:00057ABA
  4976 0001:00057AC1  4978 0001:00057AC8  4979 0001:00057AD4  4981 0001:00057AE9
  4983 0001:00057B19  4984 0001:00057B23  4991 0001:00057B28  4992 0001:00057B2E
  4993 0001:00057B3D  4994 0001:00057B5C  4996 0001:00057B7F  4997 0001:00057B83
  4998 0001:00057B85  4993 0001:00057B88  4999 0001:00057B8D  5000 0001:00057B94
  5002 0001:00057B98  5003 0001:00057BA6  5004 0001:00057BAA  5005 0001:00057BCC
  5007 0001:00057C1D  5010 0001:00057C24  5012 0001:00057C28  5013 0001:00057C4E
  5015 0001:00057C64  5016 0001:00057C6C  5019 0001:00057C74  5022 0001:00057C80
  5023 0001:00057C8C  5025 0001:00057CB4  5027 0001:00057CBF  5030 0001:00057CC4
  5031 0001:00057CCD  5032 0001:00057CDA  5033 0001:00057CE1  5041 0001:00057CE8
  5042 0001:00057CF1  5045 0001:00057D1B  5046 0001:00057D2E  5048 0001:00057D46
  5049 0001:00057D4C  5050 0001:00057D65  5055 0001:00057DAD  5056 0001:00057DC6
  5059 0001:00057DDD  5062 0001:00057DE4  5063 0001:00057DF0  5065 0001:00057DFE
  5066 0001:00057E0A  5068 0001:00057E12  5071 0001:00057E18  5072 0001:00057E24
  5074 0001:00057E32  5075 0001:00057E3E  5077 0001:00057E46  5080 0001:00057E4C
  5081 0001:00057E58  5083 0001:00057E66  5084 0001:00057E72  5086 0001:00057E7A
  5089 0001:00057E80  5090 0001:00057E8C  5092 0001:00057E9A  5093 0001:00057EA6
  5095 0001:00057EAE  5098 0001:00057EB4  5099 0001:00057EC0  5100 0001:00057ED2
  5101 0001:00057EEA  5102 0001:00057EF4  5161 0001:00057EF8  5162 0001:00057F14
  5163 0001:00057F26  5164 0001:00057F30  5165 0001:00057F3A  5166 0001:00057F44
  5167 0001:00057F69  5173 0001:00057F70  5174 0001:00057F93  5179 0001:00057F9E
  5180 0001:00057FB3  5182 0001:00057FCF  5183 0001:00057FE5  5185 0001:00057FF7
  5186 0001:00058003  5187 0001:00058005  5182 0001:00058008  5189 0001:0005800D
  5191 0001:00058018  5192 0001:00058026  5193 0001:00058030  5194 0001:00058039
  5195 0001:00058060  5198 0001:00058068  5199 0001:00058074  5200 0001:0005807F
  5201 0001:00058093  5206 0001:00058098  5208 0001:000580A2  5209 0001:000580BA
  5208 0001:000580E4  5210 0001:000580E9  5211 0001:000580F1  5215 0001:000580F8
  5216 0001:00058111  5217 0001:00058121  5220 0001:0005812C  5221 0001:00058138
  5222 0001:00058143  5223 0001:00058155  5224 0001:0005815F  5227 0001:00058164
  5228 0001:00058170  5234 0001:000581B4  5235 0001:000581CE  5237 0001:000581EF
  5240 0001:00058211  5241 0001:0005821C  5244 0001:00058220  5245 0001:0005822D
  5246 0001:00058238  5248 0001:00058241  5249 0001:00058257  5250 0001:00058268
  5252 0001:0005828B  5258 0001:00058290  5259 0001:000582AF  5260 0001:000582BA
  5261 0001:000582D2  5264 0001:000582E8  5265 0001:00058300  5267 0001:0005831F
  5268 0001:00058335  5270 0001:00058347  5271 0001:00058353  5272 0001:00058355
  5267 0001:00058358  5273 0001:0005835D  5276 0001:00058385  5279 0001:0005838C
  5280 0001:00058398  5281 0001:000583A3  5282 0001:000583B0  5287 0001:000583B4
  5288 0001:000583C0  5289 0001:000583CB  5290 0001:000583D4  5291 0001:000583EC
  5290 0001:00058405  5292 0001:0005840A  5297 0001:00058410  5298 0001:00058419
  5299 0001:0005842D  5302 0001:00058434  5303 0001:0005843D  5304 0001:00058448
  5305 0001:00058454  5308 0001:00058458  5309 0001:00058461  5310 0001:00058475
  5313 0001:0005847C  5314 0001:00058485  5315 0001:00058490  5316 0001:0005849C
  5321 0001:000584A0  5322 0001:000584AE  5323 0001:000584B5  5324 0001:000584C9
  5325 0001:000584D5  5330 0001:000584DC  5331 0001:000584EA  5332 0001:000584F1
  5333 0001:00058505  5334 0001:00058511  5372 0001:00058518  5373 0001:00058533
  5374 0001:00058540  5375 0001:00058551  5376 0001:00058562  5377 0001:0005856A
  5378 0001:00058577  5379 0001:00058589  5380 0001:0005859B  5381 0001:000585AD
  5382 0001:000585BF  5383 0001:000585D1  5384 0001:000585DB  5385 0001:000585EC
  5386 0001:000585F7  5387 0001:00058611  5388 0001:00058626  5389 0001:0005863B
  5390 0001:00058650  5391 0001:00058658  5392 0001:0005866E  5393 0001:00058684
  5394 0001:000586B5  5399 0001:000586BC  5400 0001:000586CD  5401 0001:000586DB
  5402 0001:000586E9  5403 0001:000586F7  5404 0001:00058702  5405 0001:0005870D
  5406 0001:00058718  5407 0001:00058723  5408 0001:0005872E  5409 0001:00058739
  5410 0001:00058742  5411 0001:0005875B  5410 0001:00058771  5412 0001:00058776
  5413 0001:00058781  5414 0001:00058789  5415 0001:00058795  5416 0001:000587A1
  5417 0001:000587BD  5420 0001:000587C4  5421 0001:000587CD  5422 0001:000587DE
  5425 0001:000587E4  5426 0001:000587ED  5427 0001:000587FE  5430 0001:00058804
  5431 0001:0005880D  5432 0001:0005881E  5435 0001:00058824  5436 0001:0005882D
  5437 0001:0005883E  5440 0001:00058844  5441 0001:0005884D  5442 0001:0005885E
  5445 0001:00058864  5446 0001:0005886D  5447 0001:0005887E  5450 0001:00058884
  5451 0001:00058890  5452 0001:000588A4  5455 0001:000588A8  5456 0001:000588B1
  5457 0001:000588BD  5459 0001:000588CD  5460 0001:000588DC  5463 0001:000588E0
  5464 0001:000588EC  5465 0001:00058900  5468 0001:00058904  5469 0001:0005890D
  5470 0001:0005891C  5473 0001:00058920  5474 0001:0005892C  5475 0001:00058940
  5478 0001:00058944  5479 0001:0005894D  5480 0001:0005895C  5483 0001:00058960
  5484 0001:00058968  5486 0001:00058976  5487 0001:00058982  5489 0001:000589A1
  5491 0001:000589AF  5492 0001:000589BB  5494 0001:000589DA  5497 0001:000589E0
  5498 0001:000589EC  5499 0001:000589FA  5501 0001:00058A0C  5502 0001:00058A1A
  5504 0001:00058A24  5507 0001:00058A28  5508 0001:00058A34  5509 0001:00058A42
  5510 0001:00058A50  5511 0001:00058A5A  5512 0001:00058A74  5513 0001:00058A84
  5516 0001:00058A88  5517 0001:00058A94  5518 0001:00058AA2  5521 0001:00058AA8
  5522 0001:00058AB4  5523 0001:00058AC2  5572 0001:00058AC8  5573 0001:00058AD1
  5574 0001:00058AE3  5576 0001:00058AEA  5583 0001:00058AFC  5584 0001:00058B06
  5585 0001:00058B0B  5587 0001:00058B2C  5574 0001:00058B2F  5588 0001:00058B35
  5594 0001:00058B3C  5595 0001:00058B45  5596 0001:00058B4E  5598 0001:00058B54
  5600 0001:00058B78  5601 0001:00058B84  5602 0001:00058B8C  5603 0001:00058B99
  5596 0001:00058B9F  5605 0001:00058BA5  5606 0001:00058BB4  5607 0001:00058BBF
  5608 0001:00058BCB  5645 0001:00058BD0  5646 0001:00058BDF  5647 0001:00058BEC
  5648 0001:00058BF7  5649 0001:00058C00  5650 0001:00058C09  5651 0001:00058C12
  5663 0001:00058C18  5664 0001:00058C3B  5666 0001:00058C48  5668 0001:00058C5A
  5669 0001:00058C65  5671 0001:00058C76  5673 0001:00058C8D  5675 0001:00058CA4
  5678 0001:00058CF1  5679 0001:00058CFF  5680 0001:00058D06  5683 0001:00058D27
  5684 0001:00058D58  5685 0001:00058D6A  5688 0001:00058D8D  5691 0001:00058D9E
  5671 0001:00058DA1  5692 0001:00058DAA  5693 0001:00058DB4  5695 0001:00058DC1
  5696 0001:00058DED  5699 0001:00058E38  5700 0001:00058E44  5701 0001:00058E4C
  5702 0001:00058E5A  5705 0001:00058E60  5706 0001:00058E6C  5707 0001:00058E7A
  5709 0001:00058E9F  5710 0001:00058EAB  5712 0001:00058EB7  5715 0001:00058EBC
  5716 0001:00058EC8  5717 0001:00058EDC  5720 0001:00058EE0  5721 0001:00058EE9
  5722 0001:00058EF8  5727 0001:00058EFC  5728 0001:00058F08  5729 0001:00058F0D
  5731 0001:00058F13  5732 0001:00058F1E  5733 0001:00058F37  5735 0001:00058F54
  5742 0001:00058F58  5743 0001:00058F66  5745 0001:00058F77  5746 0001:00058F82
  5750 0001:00058F89  5751 0001:00058F92  5752 0001:00058FA0  5755 0001:00058FBC
  5756 0001:00058FD8  5757 0001:00058FF5  5760 0001:00058FF7  5762 0001:00059009
  5763 0001:0005900F  5799 0001:00059014  5800 0001:00059020  5801 0001:00059024
  5802 0001:0005903B  5803 0001:00059049  5804 0001:0005905E  5805 0001:00059071
  5807 0001:0005908C  5808 0001:000590A3  5809 0001:000590AD  5811 0001:000590C3
  5812 0001:000590DF  5815 0001:000590FD  5816 0001:00059110  5818 0001:00059127
  5819 0001:0005913A  5821 0001:0005915A  5823 0001:00059178  5826 0001:0005917C
  5827 0001:00059183  5828 0001:0005918D  5831 0001:00059190  5832 0001:00059197
  5833 0001:000591A1  5834 0001:000591C2  5837 0001:000591C8  5838 0001:000591CF
  5839 0001:000591D9  5846 0001:000591DC  5847 0001:000591EB  5848 0001:000591EF
  5849 0001:00059204  5850 0001:00059216  5851 0001:00059236  5852 0001:00059248
  5854 0001:00059269  5859 0001:00059270  5862 0001:0005927D  5863 0001:00059291
  5864 0001:000592A0  5865 0001:000592A9  5866 0001:000592BE  5867 0001:000592CC
  5868 0001:000592D5  5870 0001:000592E7  5871 0001:000592F0  5872 0001:000592F9
  5876 0001:00059309  5877 0001:00059314  5879 0001:00059320  5880 0001:00059335
  5883 0001:00059343  5884 0001:0005934F  5886 0001:0005935D  5889 0001:0005936A
  5890 0001:00059376  5894 0001:00059382  5895 0001:0005939B  5897 0001:000593A7
  5898 0001:000593AD  5901 0001:000593B3  5903 0001:000593CD  5904 0001:000593FA
  5905 0001:0005940E  5906 0001:00059422  5907 0001:00059435  5910 0001:00059449
  5911 0001:0005945B  5914 0001:0005946D  5920 0001:00059474  5921 0001:0005947D
  5922 0001:00059488  5926 0001:000594D2  5927 0001:000594E3  5929 0001:00059502
  5930 0001:00059513  5934 0001:00059549  5935 0001:00059554  5937 0001:0005955B
  5936 0001:0005955E  5938 0001:00059590  5940 0001:000595A1  5927 0001:000595A4
  5941 0001:000595AD  5942 0001:000595C6  5941 0001:000595E4  5943 0001:000595E9
  5948 0001:000595F0  5949 0001:000595F6  5950 0001:000595FA  5951 0001:0005960E
  5952 0001:0005961F  5953 0001:0005964F  5950 0001:00059652  5954 0001:00059658
  5955 0001:0005965F  5957 0001:00059664  5958 0001:00059673  5960 0001:0005967E
  5961 0001:0005968D  5962 0001:0005969B  5963 0001:000596A4  5964 0001:000596AD
  5965 0001:000596B6  5966 0001:000596BF  5968 0001:000596D5  5971 0001:000596E5
  5976 0001:000596EC  5977 0001:000596F8  5978 0001:00059705  5981 0001:00059712
  5982 0001:0005971A  5983 0001:00059728  5984 0001:00059737  5986 0001:00059752
  5987 0001:0005975D  5990 0001:0005976D  6015 0001:00059774  6016 0001:0005977B
  6017 0001:00059786  6022 0001:0005978C  6023 0001:00059798  6024 0001:0005979E
  6025 0001:000597AA  6028 0001:000597B5  6029 0001:000597C6  6023 0001:000597C8
  6031 0001:000597CE  6032 0001:000597D6  6035 0001:000597DC  6036 0001:000597E5
  6037 0001:000597ED  6038 0001:00059808  6039 0001:0005981F  6042 0001:00059824
  6043 0001:0005982A  6044 0001:00059833  6045 0001:00059841  6047 0001:0005985A
  6049 0001:0005986F  6060 0001:00059878  6061 0001:0005987E  6064 0001:0005988A
  6066 0001:0005989E  6067 0001:000598A7  6068 0001:000598B3  6062 0001:000598BD
  6071 0001:000598D1  6078 0001:000598D8  6079 0001:000598DC  6080 0001:000598F6
  6081 0001:00059915  6086 0001:0005991C  6087 0001:00059920  6089 0001:0005992E
  6090 0001:00059937  6091 0001:00059951  6092 0001:0005995A  6093 0001:0005996C
  6094 0001:00059975  6096 0001:00059993  6100 0001:00059998  6101 0001:000599AC
  6102 0001:000599B3  6104 0001:000599BC  6105 0001:000599C7  6106 0001:000599D4
  6107 0001:000599E1  6108 0001:000599EC  6110 0001:000599F3  6115 0001:000599F4
  6116 0001:000599FA  6117 0001:00059A01  6118 0001:00059A14  6119 0001:00059A1E
  6120 0001:00059A25  6125 0001:00059A2C  6126 0001:00059A35  6127 0001:00059A3C
  6128 0001:00059A46  6129 0001:00059A55  6134 0001:00059A5C  6135 0001:00059A68
  6136 0001:00059A70  6137 0001:00059A7D  6138 0001:00059A8A  6139 0001:00059A97
  6217 0001:00059AAC  6218 0001:00059ACA  6219 0001:00059AD7  6220 0001:00059AE3
  6221 0001:00059AF4  6222 0001:00059B00  6223 0001:00059B11  6224 0001:00059B18
  6225 0001:00059B2D  6226 0001:00059B42  6227 0001:00059B4A  6228 0001:00059B55
  6229 0001:00059B5F  6230 0001:00059B69  6231 0001:00059B70  6232 0001:00059B7B
  6233 0001:00059B85  6234 0001:00059B8F  6235 0001:00059B99  6236 0001:00059BA3
  6238 0001:00059BB8  6240 0001:00059BDA  6241 0001:00059BF0  6242 0001:00059C09
  6243 0001:00059C1C  6244 0001:00059C2C  6245 0001:00059C41  6246 0001:00059C51
  6247 0001:00059C5D  6248 0001:00059C6A  6249 0001:00059C82  6250 0001:00059C94
  6251 0001:00059C9B  6252 0001:00059CA2  6253 0001:00059CA9  6254 0001:00059CB3
  6255 0001:00059CBE  6256 0001:00059CC6  6257 0001:00059CE9  6265 0001:00059CFC
  6266 0001:00059D0D  6267 0001:00059D15  6268 0001:00059D22  6269 0001:00059D2E
  6270 0001:00059D3A  6271 0001:00059D47  6272 0001:00059D53  6273 0001:00059D5F
  6274 0001:00059D6B  6275 0001:00059D7A  6276 0001:00059D84  6277 0001:00059D8C
  6278 0001:00059D96  6279 0001:00059DA4  6280 0001:00059DB5  6282 0001:00059DCA
  6283 0001:00059DE9  6285 0001:00059DF5  6290 0001:00059E09  6292 0001:00059E1D
  6293 0001:00059E2B  6294 0001:00059E39  6295 0001:00059E55  6301 0001:00059E5C
  6302 0001:00059E78  6314 0001:00059E96  6316 0001:00059EAA  6317 0001:00059EB4
  6319 0001:00059ECD  6320 0001:00059ED7  6321 0001:00059EE6  6323 0001:00059F07
  6329 0001:00059F62  6330 0001:00059F6F  6331 0001:00059F79  6332 0001:00059F8E
  6334 0001:00059F98  6335 0001:00059FB4  6337 0001:00059FCB  6338 0001:00059FDC
  6339 0001:00059FEC  6340 0001:00059FFC  6342 0001:0005A033  6345 0001:0005A038
  6346 0001:0005A044  6347 0001:0005A057  6348 0001:0005A06A  6349 0001:0005A081
  6351 0001:0005A08E  6352 0001:0005A098  6354 0001:0005A0A2  6355 0001:0005A0B9
  6356 0001:0005A0CC  6357 0001:0005A0D6  6367 0001:0005A0DC  6368 0001:0005A0E0
  6369 0001:0005A0E7  6370 0001:0005A0FD  6373 0001:0005A132  6376 0001:0005A147
  6377 0001:0005A14F  6379 0001:0005A157  6385 0001:0005A15C  6386 0001:0005A168
  6388 0001:0005A177  6390 0001:0005A187  6391 0001:0005A190  6392 0001:0005A196
  6393 0001:0005A1A4  6395 0001:0005A1B3  6396 0001:0005A1C1  6397 0001:0005A1D0
  6398 0001:0005A1D7  6399 0001:0005A1EC  6400 0001:0005A214  6398 0001:0005A217
  6403 0001:0005A21D  6405 0001:0005A226  6408 0001:0005A22C  6409 0001:0005A234
  6410 0001:0005A23D  6411 0001:0005A256  6412 0001:0005A268  6415 0001:0005A26C
  6416 0001:0005A274  6417 0001:0005A27D  6418 0001:0005A296  6419 0001:0005A2A8
  6422 0001:0005A2AC  6423 0001:0005A2B3  6424 0001:0005A2BD  6427 0001:0005A2C0
  6428 0001:0005A2C7  6429 0001:0005A2D1  6434 0001:0005A2D4  6435 0001:0005A2DD
  6437 0001:0005A2F4  6438 0001:0005A2FD  6440 0001:0005A309  6441 0001:0005A31E
  6442 0001:0005A344  6440 0001:0005A347  6443 0001:0005A34D  6446 0001:0005A35B
  6454 0001:0005A360  6455 0001:0005A369  6456 0001:0005A389  6459 0001:0005A390
  6460 0001:0005A399  6461 0001:0005A3B9  6470 0001:0005A3C0  6471 0001:0005A3CC
  6472 0001:0005A3D0  6475 0001:0005A3E5  6477 0001:0005A3EE  6478 0001:0005A3F8
  6480 0001:0005A3FD  6481 0001:0005A406  6483 0001:0005A410  6485 0001:0005A41D
  6488 0001:0005A42A  6491 0001:0005A430  6492 0001:0005A450  6493 0001:0005A45D
  6495 0001:0005A4AB  6508 0001:0005A4B0  6509 0001:0005A4B3  6511 0001:0005A4E8
  6517 0001:0005A4EC  6520 0001:0005A4F2  6521 0001:0005A508  6522 0001:0005A521
  6524 0001:0005A534  6526 0001:0005A538  6527 0001:0005A547  6528 0001:0005A555
  6529 0001:0005A55D  6530 0001:0005A579  6529 0001:0005A5A8  6531 0001:0005A5AD
  6533 0001:0005A5B8  6535 0001:0005A70C  6536 0001:0005A727  6537 0001:0005A734
  6539 0001:0005A741  6542 0001:0005A74D  6544 0001:0005A76A  6547 0001:0005A792
  6548 0001:0005A79B  6551 0001:0005A7A7  6554 0001:0005A7BA  6555 0001:0005A7CF
  6559 0001:0005A7DB  6560 0001:0005A7E2  6561 0001:0005A7F5  6563 0001:0005A7FE
  6564 0001:0005A806  6568 0001:0005A820  6569 0001:0005A828  6573 0001:0005A842
  6575 0001:0005A84B  6576 0001:0005A853  6578 0001:0005A85F  6579 0001:0005A86D
  6581 0001:0005A878  6584 0001:0005A884  6585 0001:0005A88B  6586 0001:0005A897
  6587 0001:0005A8AB  6590 0001:0005A8B8  6591 0001:0005A8E8  6593 0001:0005A904
  6595 0001:0005A926  6598 0001:0005A936  6600 0001:0005A94E  6602 0001:0005A95A
  6603 0001:0005A962  6604 0001:0005A979  6605 0001:0005A983  6610 0001:0005A99F
  6611 0001:0005A9AA  6615 0001:0005A9BA  6617 0001:0005A9C7  6619 0001:0005A9E8
  6621 0001:0005AA0A  6622 0001:0005AA17  6623 0001:0005AA20  6626 0001:0005AA5C
  6627 0001:0005AA63  6628 0001:0005AA6B  6629 0001:0005AA79  6630 0001:0005AA93
  6631 0001:0005AA9C  6632 0001:0005AAA3  6635 0001:0005AAB2  6637 0001:0005AADA
  6639 0001:0005AB02  6641 0001:0005AB27  6642 0001:0005AB31  6645 0001:0005AB49
  6647 0001:0005AB63  6648 0001:0005AB6C  6649 0001:0005AB84  6651 0001:0005AB9C
  6652 0001:0005ABA5  6654 0001:0005ABB6  6657 0001:0005ABC7  6658 0001:0005ABD9
  6659 0001:0005ABE4  6663 0001:0005ABED  6664 0001:0005ABF7  6667 0001:0005AC00
  6668 0001:0005AC0E  6670 0001:0005AC1A  6672 0001:0005AC23  6675 0001:0005AC39
  6677 0001:0005AC49  6680 0001:0005AC7C  6681 0001:0005AC85  6682 0001:0005AC96
  6683 0001:0005ACAE  6686 0001:0005ACB4  6687 0001:0005ACBC  6689 0001:0005ACD0
  6690 0001:0005ACD8  6691 0001:0005ACE4  6695 0001:0005AD17  6696 0001:0005AD51
  6698 0001:0005AD6B  6699 0001:0005AD7B  6701 0001:0005AD9A  6704 0001:0005ADA0
  6705 0001:0005ADA8  6707 0001:0005ADBC  6708 0001:0005ADC8  6710 0001:0005ADFB
  6711 0001:0005AE15  6712 0001:0005AE25  6714 0001:0005AE5F  6717 0001:0005AE83
  6718 0001:0005AE90  6720 0001:0005AE9B  6721 0001:0005AEA3  6722 0001:0005AEAE
  6723 0001:0005AEC1  6725 0001:0005AEE0  6730 0001:0005AEE4  6731 0001:0005AEED
  6733 0001:0005AEF6  6734 0001:0005AF05  6736 0001:0005AF30  6738 0001:0005AF39
  6743 0001:0005AF40  6744 0001:0005AF4F  6745 0001:0005AF5B  6747 0001:0005AF85
  6748 0001:0005AF96  6793 0001:0005AF9C  6794 0001:0005AFA8  6795 0001:0005AFAC
  6796 0001:0005AFB8  6797 0001:0005AFD7  6800 0001:0005AFDC  6801 0001:0005AFE8
  6802 0001:0005AFEC  6804 0001:0005B020  6805 0001:0005B042  6810 0001:0005B048
  6811 0001:0005B054  6813 0001:0005B058  6815 0001:0005B078  6816 0001:0005B080
  6818 0001:0005B08A  6819 0001:0005B092  6820 0001:0005B0AC  6827 0001:0005B0BC
  6826 0001:0005B0C8  6828 0001:0005B0DA  6830 0001:0005B0E8  6831 0001:0005B10F
  6833 0001:0005B115  6835 0001:0005B128  6836 0001:0005B14F  6839 0001:0005B156
  6842 0001:0005B15C  6843 0001:0005B168  6844 0001:0005B16C  6845 0001:0005B190
  6846 0001:0005B19B  6849 0001:0005B1A0  6850 0001:0005B1AE  6851 0001:0005B1B2
  6852 0001:0005B1D4  6854 0001:0005B21A  6859 0001:0005B220  6860 0001:0005B22D
  6861 0001:0005B231  6863 0001:0005B24A  6864 0001:0005B24E  6866 0001:0005B257
  6867 0001:0005B25B  6868 0001:0005B27D  6871 0001:0005B2BF  6872 0001:0005B2C8
  6876 0001:0005B2D3  6878 0001:0005B2E0  6890 0001:0005B2E8  6891 0001:0005B2F1
  6892 0001:0005B30B  6897 0001:0005B310  6898 0001:0005B319  6900 0001:0005B325
  6901 0001:0005B32E  6904 0001:0005B347  6905 0001:0005B355  6906 0001:0005B362
  6907 0001:0005B370  6909 0001:0005B381  6915 0001:0005B388  6916 0001:0005B391
  6918 0001:0005B39D  6919 0001:0005B3AA  6921 0001:0005B3C3  6923 0001:0005B3DF
  6924 0001:0005B3F3  6927 0001:0005B408  6928 0001:0005B415  6929 0001:0005B426
  6931 0001:0005B428  6921 0001:0005B42B  6932 0001:0005B430  6935 0001:0005B438
  6936 0001:0005B440  6937 0001:0005B454  6942 0001:0005B458  6943 0001:0005B46A
  6944 0001:0005B473  6945 0001:0005B47B  6946 0001:0005B489  6948 0001:0005B4A6
  6949 0001:0005B4AD  6951 0001:0005B4B7  6953 0001:0005B4D2  6954 0001:0005B4DA
  6956 0001:0005B4E3  6959 0001:0005B4EC  6960 0001:0005B4F6  6961 0001:0005B500
  6962 0001:0005B50E  6963 0001:0005B518  6965 0001:0005B525  6966 0001:0005B536
  6967 0001:0005B545  6969 0001:0005B552  6970 0001:0005B55B  6971 0001:0005B56A
  6972 0001:0005B574  6974 0001:0005B581  6975 0001:0005B58F  6977 0001:0005B5A6
  6979 0001:0005B5B6  6982 0001:0005B5CF  6984 0001:0005B5E1  6987 0001:0005B5E8
  6988 0001:0005B5EF  6989 0001:0005B5FF  6992 0001:0005B604  6993 0001:0005B611
  6994 0001:0005B62B  6996 0001:0005B63F  6997 0001:0005B653  6998 0001:0005B660
  7000 0001:0005B67B  7002 0001:0005B68C  7003 0001:0005B69D  7013 0001:0005B6A4
  7014 0001:0005B6B3  7015 0001:0005B6BB  7016 0001:0005B6CD  7017 0001:0005B6E2
  7019 0001:0005B6EA  7020 0001:0005B6F1  7021 0001:0005B702  7022 0001:0005B712
  7027 0001:0005B748  7028 0001:0005B752  7029 0001:0005B75A  7030 0001:0005B76D
  7031 0001:0005B77B  7033 0001:0005B7A3  7034 0001:0005B7AB  7038 0001:0005B7E1
  7039 0001:0005B7E9  7040 0001:0005B7F2  7042 0001:0005B805  7047 0001:0005B80C
  7048 0001:0005B834  7049 0001:0005B842  7050 0001:0005B87C  7051 0001:0005B8D3
  7058 0001:0005B8E8  7059 0001:0005B8F9  7060 0001:0005B8FD  7061 0001:0005B901
  7064 0001:0005B90C  7065 0001:0005B91F  7066 0001:0005B93E  7067 0001:0005B94B
  7069 0001:0005B968  7071 0001:0005B96E  7072 0001:0005B97B  7073 0001:0005B99E
  7076 0001:0005B9A2  7077 0001:0005B9B6  7079 0001:0005B9D4  7080 0001:0005B9DF
  7081 0001:0005B9EF  7084 0001:0005BA14  7086 0001:0005BA1D  7087 0001:0005BA26
  7088 0001:0005BA3D  7090 0001:0005BA6B  7091 0001:0005BA77  7092 0001:0005BA94
  7095 0001:0005BA9C  7096 0001:0005BABC  7097 0001:0005BAC0  7098 0001:0005BACC
  7099 0001:0005BAEA  7100 0001:0005BB0E  7103 0001:0005BB14  7104 0001:0005BB34
  7105 0001:0005BB38  7106 0001:0005BB44  7107 0001:0005BB62  7108 0001:0005BB86
  7111 0001:0005BB8C  7112 0001:0005BB9B  7113 0001:0005BBB0  7124 0001:0005BBB4
  7125 0001:0005BBC0  7126 0001:0005BBCA  7129 0001:0005BBD0  7130 0001:0005BBDC
  7132 0001:0005BBEA  7133 0001:0005BBF6  7135 0001:0005BC02  7136 0001:0005BC18
  7139 0001:0005BC2E  7140 0001:0005BC3C  7143 0001:0005BC47  7158 0001:0005BC4C
  7159 0001:0005BC55  7160 0001:0005BC6F  7161 0001:0005BC7F  7163 0001:0005BCAF
  7159 0001:0005BCBD  7164 0001:0005BCC2  7170 0001:0005BCC8  7171 0001:0005BCD1
  7172 0001:0005BCDA  7173 0001:0005BCE7  7174 0001:0005BCEF  7176 0001:0005BCFA
  7178 0001:0005BD1A  7179 0001:0005BD2E  7180 0001:0005BD37  7182 0001:0005BD57
  7184 0001:0005BD6E  7190 0001:0005BD74  7191 0001:0005BD99  7192 0001:0005BDA4
  7193 0001:0005BDB9  7194 0001:0005BDC1  7195 0001:0005BDE4  7196 0001:0005BDE8
  7197 0001:0005BDF6  7198 0001:0005BE18  7200 0001:0005BE35  7203 0001:0005BE45
  7208 0001:0005BE5F  7209 0001:0005BE63  7210 0001:0005BE90  7215 0001:0005BE98
  7216 0001:0005BEA5  7217 0001:0005BEE1  7220 0001:0005BEE8  7221 0001:0005BEF4
  7223 0001:0005BEFE  7224 0001:0005BF1A  7227 0001:0005BF33  7228 0001:0005BF53
  7229 0001:0005BF5F  7232 0001:0005BF64  7233 0001:0005BF72  7235 0001:0005BF86
  7236 0001:0005BF94  7237 0001:0005BFA1  7240 0001:0005BFB5  7242 0001:0005BFC7
  7243 0001:0005BFD2  7244 0001:0005BFE0  7246 0001:0005BFF9  7250 0001:0005C009
  7262 0001:0005C010  7264 0001:0005C017  7266 0001:0005C03E  7267 0001:0005C065
  7269 0001:0005C06D  7274 0001:0005C070  7275 0001:0005C079  7277 0001:0005C086
  7279 0001:0005C0A0  7280 0001:0005C0B0  7283 0001:0005C0ED  7284 0001:0005C0F6
  7286 0001:0005C0F8  7277 0001:0005C0FB  7287 0001:0005C100  7289 0001:0005C109
  7292 0001:0005C110  7293 0001:0005C119  7294 0001:0005C11D  7295 0001:0005C126
  7297 0001:0005C136  7298 0001:0005C146  7303 0001:0005C14C  7304 0001:0005C15B
  7305 0001:0005C163  7306 0001:0005C17F  7307 0001:0005C18B  7308 0001:0005C1A0
  7311 0001:0005C1A4  7312 0001:0005C1AB  7314 0001:0005C1B8  7315 0001:0005C1CA
  7317 0001:0005C1D6  7325 0001:0005C1DC  7326 0001:0005C1EB  7327 0001:0005C219
  7328 0001:0005C22B  7331 0001:0005C238  7334 0001:0005C279  7335 0001:0005C282
  7336 0001:0005C288  7337 0001:0005C296  7338 0001:0005C29F  7340 0001:0005C2B5
  7342 0001:0005C2C1  7343 0001:0005C2CA  7344 0001:0005C2D3  7345 0001:0005C2DC
  7349 0001:0005C2E9  7350 0001:0005C2F1  7351 0001:0005C2FA  7352 0001:0005C303
  7356 0001:0005C310  7361 0001:0005C314  7362 0001:0005C31D  7363 0001:0005C325
  7365 0001:0005C334  7368 0001:0005C33E  7369 0001:0005C347  7372 0001:0005C352
  7375 0001:0005C358  7376 0001:0005C35F  7378 0001:0005C395  7379 0001:0005C3AB
  7382 0001:0005C3B0  7383 0001:0005C3B7  7385 0001:0005C3C0  7386 0001:0005C3C8
  7387 0001:0005C3D0  7388 0001:0005C3D7  7389 0001:0005C3DC  7391 0001:0005C3E4
  7413 0001:0005C3E8  7414 0001:0005C3EB  7415 0001:0005C3EC  7416 0001:0005C3EE
  7417 0001:0005C3F0  7418 0001:0005C3F2  7419 0001:0005C3F3  7420 0001:0005C3F5
  7421 0001:0005C3F7  7422 0001:0005C3F9  7424 0001:0005C3FC  7426 0001:0005C402
  7427 0001:0005C410  7428 0001:0005C427  7429 0001:0005C435  7430 0001:0005C443
  7431 0001:0005C451  7432 0001:0005C45F  7433 0001:0005C468  7437 0001:0005C48F
  7439 0001:0005C495  7440 0001:0005C4B7  7441 0001:0005C4C3  7444 0001:0005C4CF
  7447 0001:0005C4E4  7448 0001:0005C4FC  7450 0001:0005C511  7452 0001:0005C51B
  7455 0001:0005C52E  7458 0001:0005C551  7459 0001:0005C560  7461 0001:0005C57A
  7464 0001:0005C580  7465 0001:0005C587  7466 0001:0005C595  7468 0001:0005C5BA
  7469 0001:0005C5CB  7471 0001:0005C5E5  7478 0001:0005C5E8  7479 0001:0005C604
  7480 0001:0005C609  7481 0001:0005C60F  7484 0001:0005C61B  7486 0001:0005C623
  7485 0001:0005C62E  7487 0001:0005C63F  7488 0001:0005C650  7489 0001:0005C66D
  7490 0001:0005C675  7491 0001:0005C67B  7492 0001:0005C686  7482 0001:0005C691
  7494 0001:0005C6B9  7496 0001:0005C6C0  7497 0001:0005C700  7498 0001:0005C707
  7501 0001:0005C74C  7502 0001:0005C755  7503 0001:0005C761  7504 0001:0005C76B
  7505 0001:0005C778  7506 0001:0005C781  7507 0001:0005C79F  7508 0001:0005C7AD
  7509 0001:0005C7B2  7510 0001:0005C7B7  7511 0001:0005C7C3  7512 0001:0005C7D6
  7514 0001:0005C7FA  7515 0001:0005C810  7517 0001:0005C827  7518 0001:0005C84D
  7519 0001:0005C87D  7520 0001:0005C882  7521 0001:0005C88B  7522 0001:0005C893
  7523 0001:0005C898  7524 0001:0005C8B4  7525 0001:0005C8C7  7526 0001:0005C8E0
  7527 0001:0005C8FB  7529 0001:0005C912  7531 0001:0005C91C  7533 0001:0005C933
  7535 0001:0005C952  7536 0001:0005C963  7539 0001:0005C979  7540 0001:0005C989
  7541 0001:0005C98F  7547 0001:0005C995  7548 0001:0005C9BE  7551 0001:0005C9E7
  7552 0001:0005C9F8  7553 0001:0005CA13  7554 0001:0005CA18  7555 0001:0005CA1E
  7556 0001:0005CA2D  7557 0001:0005CA3A  7560 0001:0005CA3C  7561 0001:0005CA42
  7562 0001:0005CA51  7563 0001:0005CA8C  7568 0001:0005CA94  7569 0001:0005CAA0
  7570 0001:0005CAAB  7571 0001:0005CABD  7573 0001:0005CAD0  7574 0001:0005CADE
  7594 0001:0005CAE4  7595 0001:0005CAF3  7596 0001:0005CAFE  7600 0001:0005CB4C
  7602 0001:0005CB76  7603 0001:0005CB8C  7606 0001:0005CB90  7607 0001:0005CB9D
  7608 0001:0005CBA1  7609 0001:0005CBC6  7612 0001:0005CBCC  7613 0001:0005CBD9
  7614 0001:0005CBDD  7615 0001:0005CC02  7622 0001:0005CC08  7623 0001:0005CC0C
  7624 0001:0005CC19  7625 0001:0005CC1F  7626 0001:0005CC32  7629 0001:0005CC60
  7630 0001:0005CC6C  7631 0001:0005CC7E  7634 0001:0005CC84  7635 0001:0005CC8B
  7636 0001:0005CC9C  7639 0001:0005CCA0  7640 0001:0005CCA7  7641 0001:0005CCB3
  7649 0001:0005CCC8  7650 0001:0005CCEF  7651 0001:0005CD03  7653 0001:0005CD22
  7643 0001:0005CD24  7644 0001:0005CD37  7645 0001:0005CD3C  7646 0001:0005CD4B
  7648 0001:0005CD55

Line numbers for PPSDK(PPSDK.pas) segment .text

    23 0001:0005CD68    26 0001:0005CD70    29 0001:0005CD78    44 0001:0005CD80
    47 0001:0005CD88    51 0001:0005CD90    57 0001:0005CDC8    57 0001:0005CDCF

Line numbers for WinSock(WinSock.pas) segment .text

  1127 0001:0005CDD0  1164 0001:0005CE08  1164 0001:0005CE0F

Line numbers for superobject(superobject.pas) segment .text

   750 0001:0005D4D0   898 0001:0005D9BC   899 0001:0005D9CB   900 0001:0005D9D1
   901 0001:0005D9D7   902 0001:0005D9DC   904 0001:0005D9E4   905 0001:0005D9EE
   907 0001:0005D9F8   909 0001:0005DA09   910 0001:0005DA16   913 0001:0005DA18
   914 0001:0005DA1C   915 0001:0005DA20   902 0001:0005DA23   917 0001:0005DA2B
   918 0001:0005DA33   924 0001:0005DA38   925 0001:0005DA44   926 0001:0005DA4A
   929 0001:0005DA50   930 0001:0005DA5A   932 0001:0005DA64   934 0001:0005DA75
   935 0001:0005DA82   938 0001:0005DA84   939 0001:0005DA88   927 0001:0005DA8C
   941 0001:0005DA91   946 0001:0005DA98   947 0001:0005DAA1   948 0001:0005DAA6
   950 0001:0005DAAC   951 0001:0005DAB4   952 0001:0005DAC1   954 0001:0005DAD4
   960 0001:0005DAD8   961 0001:0005DAF4   962 0001:0005DB11   964 0001:0005DB1B
   966 0001:0005DB2A   967 0001:0005DB3A   969 0001:0005DB40   970 0001:0005DB48
   965 0001:0005DB4A   973 0001:0005DB70   978 0001:0005DB78   979 0001:0005DB94
   980 0001:0005DBAD   982 0001:0005DBB7   984 0001:0005DBC6   985 0001:0005DBD6
   987 0001:0005DBDC   988 0001:0005DBE4   983 0001:0005DBE6   991 0001:0005DC0C
  1992 0001:0005DC14  1993 0001:0005DC20  1994 0001:0005DC48  2094 0001:0005DC50
  2095 0001:0005DC5C  2096 0001:0005DC62  2097 0001:0005DC73  2098 0001:0005DC7E
  2101 0001:0005DC84  2102 0001:0005DC8D  2103 0001:0005DC93  2104 0001:0005DCA0
  2105 0001:0005DCA7  2110 0001:0005DCAC  2111 0001:0005DCCB  2113 0001:0005DCD9
  2114 0001:0005DCF8  2115 0001:0005DD03  2116 0001:0005DD11  2118 0001:0005DD17
  2119 0001:0005DD25  2120 0001:0005DD3E  2122 0001:0005DD44  2124 0001:0005DD4A
  2125 0001:0005DD6E  2130 0001:0005DD74  2131 0001:0005DD90  2132 0001:0005DD9B
  2133 0001:0005DDA9  2135 0001:0005DDAF  2136 0001:0005DDBD  2137 0001:0005DDD6
  2139 0001:0005DDDC  2140 0001:0005DE00  2143 0001:0005DE04  2144 0001:0005DE0B
  2145 0001:0005DE16  2146 0001:0005DE21  2582 0001:0005DE24  2583 0001:0005DE3F
  2584 0001:0005DE4D  2585 0001:0005DE57  2586 0001:0005DE68  2587 0001:0005DE83
  2588 0001:0005DEA6  2591 0001:0005DEAC  2592 0001:0005DEBD  2593 0001:0005DEC6
  2594 0001:0005DEDF  2625 0001:0005DEE4  2626 0001:0005DEFF  2631 0001:0005DF09
  2632 0001:0005DF10  2633 0001:0005DF18  2634 0001:0005DF21  2635 0001:0005DF35
  2636 0001:0005DF49  2637 0001:0005DF5D  2639 0001:0005DF6A  2641 0001:0005DF8D
  2644 0001:0005DF94  2645 0001:0005DFB0  2646 0001:0005DFBC  2647 0001:0005DFE0
  2650 0001:0005DFE8  2651 0001:0005E001  2652 0001:0005E00D  2653 0001:0005E037
  2656 0001:0005E040  2657 0001:0005E059  2658 0001:0005E065  2659 0001:0005E08F
  2662 0001:0005E098  2663 0001:0005E0B1  2664 0001:0005E0BD  2665 0001:0005E0E7
  2668 0001:0005E0F0  2672 0001:0005E101  2673 0001:0005E111  2674 0001:0005E11E
  2676 0001:0005E129  2677 0001:0005E145  2691 0001:0005E14C  2692 0001:0005E159
  2694 0001:0005E15F  2695 0001:0005E164  2697 0001:0005E169  2699 0001:0005E173
  2701 0001:0005E17F  2702 0001:0005E18D  2705 0001:0005E1B9  2706 0001:0005E1C3
  2708 0001:0005E1DB  2709 0001:0005E1FC  2710 0001:0005E21D  2711 0001:0005E23E
  2712 0001:0005E25C  2713 0001:0005E27A  2714 0001:0005E298  2715 0001:0005E2B6
  2716 0001:0005E2D2  2717 0001:0005E2D5  2720 0001:0005E2E0  2722 0001:0005E2EC
  2723 0001:0005E2F6  2724 0001:0005E30E  2725 0001:0005E314  2726 0001:0005E31A
  2727 0001:0005E330  2728 0001:0005E348  2729 0001:0005E35E  2730 0001:0005E376
  2731 0001:0005E388  2732 0001:0005E38B  2734 0001:0005E396  2736 0001:0005E3A8
  2737 0001:0005E3B2  2738 0001:0005E3CA  2739 0001:0005E3D0  2740 0001:0005E3D6
  2741 0001:0005E3DC  2742 0001:0005E3E2  2743 0001:0005E3F7  2744 0001:0005E410
  2745 0001:0005E422  2746 0001:0005E425  2748 0001:0005E42D  2699 0001:0005E430
  2751 0001:0005E43C  2752 0001:0005E446  2753 0001:0005E45E  2754 0001:0005E466
  2766 0001:0005E46C  2767 0001:0005E479  2769 0001:0005E47F  2770 0001:0005E484
  2772 0001:0005E489  2774 0001:0005E493  2776 0001:0005E49F  2777 0001:0005E4AD
  2780 0001:0005E4CC  2781 0001:0005E4D6  2782 0001:0005E4EE  2783 0001:0005E503
  2784 0001:0005E506  2788 0001:0005E511  2789 0001:0005E51B  2790 0001:0005E533
  2791 0001:0005E548  2792 0001:0005E54B  2796 0001:0005E553  2797 0001:0005E55D
  2798 0001:0005E575  2799 0001:0005E58A  2800 0001:0005E58D  2803 0001:0005E595
  2774 0001:0005E598  2806 0001:0005E5A4  2807 0001:0005E5AE  2808 0001:0005E5C6
  2809 0001:0005E5CE  2813 0001:0005E5D4  2814 0001:0005E5DF  2815 0001:0005E5E9
  2819 0001:0005E5EF  2823 0001:0005E604  2824 0001:0005E617  2823 0001:0005E62F
  2826 0001:0005E634  2835 0001:0005E648  2837 0001:0005E691  2839 0001:0005E69A
  2840 0001:0005E6AF  2843 0001:0005E6B4  2844 0001:0005E6BB  2846 0001:0005E6C9
  2848 0001:0005E700  2850 0001:0005E710  2851 0001:0005E715  2852 0001:0005E727
  2853 0001:0005E738  2856 0001:0005E752  2859 0001:0005E76A  2861 0001:0005E780
  2862 0001:0005E786  2863 0001:0005E798  2864 0001:0005E7A9  2865 0001:0005E7BB
  2866 0001:0005E7C1  2867 0001:0005E7DC  2868 0001:0005E7F5  2869 0001:0005E7FB
  2870 0001:0005E80F  2871 0001:0005E821  2872 0001:0005E827  2873 0001:0005E83B
  2874 0001:0005E851  2879 0001:0005E854  2880 0001:0005E864  2881 0001:0005E86C
  2882 0001:0005E87E  2884 0001:0005E898  2887 0001:0005E8B2  2888 0001:0005E8BB
  2889 0001:0005E8D5  2893 0001:0005E8EF  2894 0001:0005E911  2897 0001:0005E93C
  2900 0001:0005E96D  2904 0001:0005E99E  2905 0001:0005E9B0  2906 0001:0005E9B6
  2907 0001:0005E9D7  2908 0001:0005E9F6  2909 0001:0005EA08  2912 0001:0005EA12
  2914 0001:0005EA22  2915 0001:0005EA34  2916 0001:0005EA45  2917 0001:0005EA4A
  2921 0001:0005EA51  2923 0001:0005EA62  2926 0001:0005EA70  2928 0001:0005EA82
  2929 0001:0005EA88  2930 0001:0005EA9A  2931 0001:0005EAA0  2932 0001:0005EAB4
  2933 0001:0005EACA  2938 0001:0005EACD  2918 0001:0005EAD0  2940 0001:0005EAE2
  2941 0001:0005EAF4  2943 0001:0005EB0B  2945 0001:0005EB22  2947 0001:0005EB39
  2950 0001:0005EB4B  2952 0001:0005EBA0  2955 0001:0005EBA8  2956 0001:0005EBB4
  2957 0001:0005EBC4  2960 0001:0005EBC8  2961 0001:0005EBD1  2962 0001:0005EC08
  2963 0001:0005EC13  2964 0001:0005EC28  2965 0001:0005EC3D  2966 0001:0005EC52
  2967 0001:0005EC65  2969 0001:0005EC6B  2971 0001:0005EC72  2977 0001:0005EC7C
  2978 0001:0005EC98  2979 0001:0005ECCF  2980 0001:0005ECE3  2981 0001:0005ECF6
  2982 0001:0005ED0F  2985 0001:0005ED21  2986 0001:0005ED40  2987 0001:0005ED46
  2988 0001:0005ED54  2991 0001:0005ED64  2993 0001:0005ED95  2999 0001:0005EDA0
  3000 0001:0005EDBC  3001 0001:0005EDF3  3002 0001:0005EE04  3003 0001:0005EE16
  3004 0001:0005EE22  3007 0001:0005EE37  3008 0001:0005EE54  3009 0001:0005EE5A
  3010 0001:0005EE68  3013 0001:0005EE72  3015 0001:0005EE9A  3021 0001:0005EEA4
  3022 0001:0005EEC0  3023 0001:0005EEF7  3024 0001:0005EF0C  3025 0001:0005EF1D
  3026 0001:0005EF2F  3029 0001:0005EF4A  3030 0001:0005EF67  3031 0001:0005EF6D
  3032 0001:0005EF7C  3035 0001:0005EF86  3037 0001:0005EFAE  3040 0001:0005EFB8
  3041 0001:0005EFC4  3042 0001:0005EFCD  3043 0001:0005EFDD  3044 0001:0005EFED
  3047 0001:0005EFF4  3048 0001:0005EFFD  3049 0001:0005F019  3052 0001:0005F020
  3053 0001:0005F027  3054 0001:0005F033  3057 0001:0005F038  3058 0001:0005F03F
  3059 0001:0005F048  3060 0001:0005F05E  3063 0001:0005F07C  3064 0001:0005F085
  3065 0001:0005F08E  3066 0001:0005F099  3067 0001:0005F0A1  3070 0001:0005F0A8
  3071 0001:0005F0B1  3072 0001:0005F0BA  3073 0001:0005F0C5  3074 0001:0005F0CD
  3079 0001:0005F0D4  3080 0001:0005F0E4  3081 0001:0005F0F3  3082 0001:0005F101
  3084 0001:0005F119  3085 0001:0005F121  3087 0001:0005F128  3088 0001:0005F131
  3089 0001:0005F141  3091 0001:0005F156  3093 0001:0005F166  3100 0001:0005F170
  3101 0001:0005F193  3102 0001:0005F1A2  3103 0001:0005F1CA  3104 0001:0005F1E9
  3105 0001:0005F1F3  3106 0001:0005F1FE  3107 0001:0005F223  3182 0001:0005F22C
  3183 0001:0005F234  3184 0001:0005F23B  3185 0001:0005F245  3186 0001:0005F252
  3188 0001:0005F258  3188 0001:0005F27D  3204 0001:0005F284  3205 0001:0005F28B
  3206 0001:0005F297  3207 0001:0005F2B7  3208 0001:0005F2D1  3210 0001:0005F2EB
  3212 0001:0005F2F5  3213 0001:0005F300  3216 0001:0005F304  3217 0001:0005F330
  3218 0001:0005F335  3219 0001:0005F33D  3220 0001:0005F345  3222 0001:0005F358
  3223 0001:0005F360  3226 0001:0005F367  3228 0001:0005F372  3230 0001:0005F38C
  3231 0001:0005F398  3232 0001:0005F39F  3235 0001:0005F3A4  3237 0001:0005F3AE
  3240 0001:0005F3BD  3241 0001:0005F3C6  3243 0001:0005F3D3  3245 0001:0005F3DF
  3249 0001:0005F3E8  3252 0001:0005F47E  3253 0001:0005F4A4  3255 0001:0005F4AB
  3256 0001:0005F4B6  3257 0001:0005F4C8  3259 0001:0005F4D3  3260 0001:0005F4DE
  3265 0001:0005F4E3  3269 0001:0005F56F  3270 0001:0005F575  3271 0001:0005F580
  3275 0001:0005F590  3276 0001:0005F596  3277 0001:0005F5A1  3278 0001:0005F5A9
  3279 0001:0005F5B3  3284 0001:0005F5B8  3285 0001:0005F5C1  3288 0001:0005F5CD
  3289 0001:0005F5D3  3290 0001:0005F5E1  3293 0001:0005F5E6  3294 0001:0005F5EC
  3295 0001:0005F5F7  3296 0001:0005F5FF  3297 0001:0005F609  3301 0001:0005F60E
  3302 0001:0005F614  3303 0001:0005F61B  3307 0001:0005F642  3308 0001:0005F648
  3309 0001:0005F64F  3314 0001:0005F676  3316 0001:0005F695  3317 0001:0005F6A3
  3324 0001:0005F6AE  3325 0001:0005F6B4  3326 0001:0005F6BF  3327 0001:0005F6C7
  3334 0001:0005F6CC  3335 0001:0005F6D2  3336 0001:0005F6DD  3337 0001:0005F6E5
  3340 0001:0005F6EA  3341 0001:0005F6F0  3342 0001:0005F6FB  3347 0001:0005F700
  3348 0001:0005F70D  3349 0001:0005F71B  3350 0001:0005F729  3351 0001:0005F72F
  3352 0001:0005F742  3357 0001:0005F747  3358 0001:0005F759  3360 0001:0005F785
  3361 0001:0005F792  3362 0001:0005F7B9  3364 0001:0005F7C1  3365 0001:0005F7E3
  3366 0001:0005F7EA  3367 0001:0005F7F0  3371 0001:0005F7F5  3372 0001:0005F7FB
  3373 0001:0005F810  3374 0001:0005F819  3376 0001:0005F81E  3381 0001:0005F829
  3383 0001:0005F830  3385 0001:0005F838  3387 0001:0005F83F  3390 0001:0005F847
  3391 0001:0005F84E  3393 0001:0005F853  3398 0001:0005F86A  3399 0001:0005F871
  3400 0001:0005F877  3405 0001:0005F88E  3406 0001:0005F895  3407 0001:0005F8A0
  3412 0001:0005F8B7  3413 0001:0005F8C9  3414 0001:0005F8D0  3415 0001:0005F8DB
  3420 0001:0005F8E6  3422 0001:0005F8F3  3423 0001:0005F924  3424 0001:0005F92B
  3426 0001:0005F936  3428 0001:0005F93D  3429 0001:0005F944  3432 0001:0005F94F
  3438 0001:0005F966  3440 0001:0005F975  3441 0001:0005F997  3443 0001:0005F9C8
  3445 0001:0005F9D9  3446 0001:0005F9E0  3448 0001:0005F9E5  3449 0001:0005F9F0
  3450 0001:0005F9F6  3455 0001:0005F9FB  3457 0001:0005FA0A  3458 0001:0005FA2C
  3460 0001:0005FA5D  3462 0001:0005FA6E  3463 0001:0005FA75  3465 0001:0005FA7A
  3466 0001:0005FA85  3467 0001:0005FA8B  3472 0001:0005FA90  3474 0001:0005FAB3
  3475 0001:0005FABE  3476 0001:0005FAE0  3477 0001:0005FAE6  3480 0001:0005FAEB
  3481 0001:0005FAF2  3487 0001:0005FAF7  3489 0001:0005FB01  3491 0001:0005FB0C
  3493 0001:0005FB15  3494 0001:0005FB1C  3496 0001:0005FB21  3497 0001:0005FB24
  3498 0001:0005FB2A  3499 0001:0005FB30  3500 0001:0005FB3E  3501 0001:0005FB51
  3507 0001:0005FB56  3508 0001:0005FB6C  3511 0001:0005FB7C  3512 0001:0005FB87
  3513 0001:0005FB8E  3517 0001:0005FB99  3518 0001:0005FBAD  3519 0001:0005FBD3
  3520 0001:0005FBD6  3521 0001:0005FBE1  3522 0001:0005FBE8  3525 0001:0005FBF3
  3526 0001:0005FBFA  3532 0001:0005FBFF  3534 0001:0005FC09  3536 0001:0005FC14
  3538 0001:0005FC1D  3539 0001:0005FC24  3541 0001:0005FC29  3542 0001:0005FC2C
  3543 0001:0005FC32  3544 0001:0005FC38  3545 0001:0005FC46  3546 0001:0005FC59
  3552 0001:0005FC5E  3553 0001:0005FC61  3554 0001:0005FC6F  3555 0001:0005FC7A
  3556 0001:0005FC81  3557 0001:0005FC87  3559 0001:0005FC92  3560 0001:0005FC99
  3566 0001:0005FC9E  3568 0001:0005FCA8  3570 0001:0005FCBE  3572 0001:0005FCC4
  3573 0001:0005FCCF  3574 0001:0005FD03  3575 0001:0005FD0A  3576 0001:0005FD10
  3579 0001:0005FD15  3580 0001:0005FD1C  3583 0001:0005FD21  3585 0001:0005FD28
  3586 0001:0005FD2F  3588 0001:0005FD3A  3591 0001:0005FD51  3593 0001:0005FD76
  3594 0001:0005FD87  3595 0001:0005FD90  3596 0001:0005FDA0  3598 0001:0005FDB1
  3600 0001:0005FDD5  3603 0001:0005FDF4  3604 0001:0005FDFA  3605 0001:0005FE0A
  3609 0001:0005FE49  3610 0001:0005FE4F  3611 0001:0005FE5F  3615 0001:0005FE9E
  3616 0001:0005FEA4  3617 0001:0005FEB4  3620 0001:0005FEF3  3621 0001:0005FEFF
  3622 0001:0005FF39  3624 0001:0005FF45  3625 0001:0005FF71  3627 0001:0005FF84
  3629 0001:0005FF90  3631 0001:0005FFCC  3633 0001:0005FFDB  3634 0001:0005FFFE
  3636 0001:0006002D  3637 0001:00060073  3638 0001:00060079  3642 0001:0006007E
  3644 0001:0006008B  3646 0001:000600B8  3647 0001:000600BF  3648 0001:000600CA
  3650 0001:000600CF  3651 0001:000600E3  3653 0001:000600EE  3654 0001:0006011B
  3656 0001:0006013A  3658 0001:00060149  3659 0001:0006016B  3661 0001:0006018C
  3663 0001:00060199  3664 0001:000601A0  3668 0001:000601A5  3670 0001:000601B4
  3671 0001:000601D6  3673 0001:000601F1  3675 0001:000601FA  3676 0001:00060201
  3678 0001:00060206  3680 0001:00060211  3682 0001:0006021C  3684 0001:00060228
  3685 0001:00060241  3687 0001:00060251  3689 0001:0006025D  3691 0001:0006028C
  3692 0001:000602B9  3693 0001:000602BF  3697 0001:000602C4  3700 0001:000602E7
  3702 0001:000602ED  3703 0001:0006030F  3705 0001:0006032D  3709 0001:00060370
  3711 0001:00060376  3712 0001:00060398  3714 0001:000603B3  3715 0001:000603F1
  3719 0001:000603FC  3720 0001:00060402  3721 0001:00060442  3723 0001:0006044D
  3726 0001:00060458  3728 0001:00060464  3729 0001:0006047A  3731 0001:0006048A
  3732 0001:00060496  3733 0001:000604D4  3734 0001:000604DA  3740 0001:000604DF
  3743 0001:000604FE  3744 0001:00060509  3745 0001:0006051A  3746 0001:0006052F
  3750 0001:0006053F  3751 0001:0006054A  3752 0001:0006055B  3753 0001:00060570
  3754 0001:00060576  3758 0001:00060586  3759 0001:00060591  3760 0001:000605A2
  3761 0001:000605B7  3762 0001:000605BD  3765 0001:000605CD  3767 0001:000605D9
  3768 0001:000605E4  3769 0001:000605F5  3770 0001:0006060A  3771 0001:00060615
  3772 0001:0006061B  3775 0001:00060620  3776 0001:00060627  3777 0001:00060632
  3783 0001:00060637  3788 0001:0006064E  3795 0001:00060692  3796 0001:000606B0
  3797 0001:000606CE  3798 0001:000606EC  3799 0001:0006070A  3800 0001:00060726
  3804 0001:00060736  3805 0001:0006073F  3806 0001:00060747  3810 0001:00060752
  3811 0001:0006075B  3812 0001:00060763  3815 0001:0006076E  3816 0001:00060780
  3821 0001:00060790  3823 0001:000607AD  3824 0001:000607D5  3825 0001:000607DB
  3827 0001:000607E8  3828 0001:000607FD  3832 0001:0006080D  3833 0001:00060814
  3838 0001:00060819  3840 0001:00060836  3841 0001:0006085E  3842 0001:00060864
  3844 0001:00060871  3845 0001:00060886  3849 0001:00060896  3850 0001:0006089D
  3855 0001:000608A2  3856 0001:000608B4  3858 0001:000608E0  3859 0001:000608ED
  3860 0001:00060914  3862 0001:0006091F  3863 0001:00060941  3864 0001:00060948
  3865 0001:0006094E  3868 0001:00060953  3870 0001:0006097F  3871 0001:0006098C
  3872 0001:000609B3  3874 0001:000609BB  3875 0001:000609DD  3876 0001:000609E4
  3877 0001:000609EA  3881 0001:000609EF  3882 0001:000609F5  3883 0001:00060A0A
  3884 0001:00060A13  3886 0001:00060A18  3891 0001:00060A23  3893 0001:00060A4D
  3894 0001:00060A5F  3895 0001:00060A6B  3897 0001:00060A8F  3898 0001:00060A99
  3902 0001:00060AA6  3903 0001:00060AB0  3908 0001:00060ABF  3910 0001:00060AD9
  3911 0001:00060ADF  3912 0001:00060AEC  3918 0001:00060AFB  3920 0001:00060B08
  3921 0001:00060B30  3923 0001:00060B42  3925 0001:00060B4E  3926 0001:00060B64
  3928 0001:00060B77  3929 0001:00060B83  3930 0001:00060BB2  3932 0001:00060BE1
  3935 0001:00060C0C  3937 0001:00060C19  3939 0001:00060C26  3940 0001:00060C34
  3941 0001:00060C41  3943 0001:00060C57  3944 0001:00060C64  3945 0001:00060C68
  3941 0001:00060C6B  3946 0001:00060C70  3947 0001:00060C78  3948 0001:00060CA0
  3949 0001:00060CB5  3950 0001:00060CCF  3951 0001:00060CE9  3952 0001:00060D00
  3954 0001:00060D15  3957 0001:00060D3F  3958 0001:00060D65  3962 0001:00060D8D
  3963 0001:00060D94  3965 0001:00060D99  3966 0001:00060DA0  3967 0001:00060DA6
  3973 0001:00060DAB  3975 0001:00060DB2  3976 0001:00060DB9  3979 0001:00060DC4
  3981 0001:00060DCD  3982 0001:00060DD4  3984 0001:00060DD9  3985 0001:00060DDF
  3986 0001:00060DE5  3987 0001:00060DF3  3988 0001:00060E06  3994 0001:00060E0B
  3995 0001:00060E21  3996 0001:00060E28  3997 0001:00060E2E  4002 0001:00060E33
  4004 0001:00060E3A  4005 0001:00060E41  4007 0001:00060E4C  4009 0001:00060E53
  4010 0001:00060E5A  4013 0001:00060E65  4014 0001:00060E6C  4020 0001:00060E71
  4022 0001:00060E78  4023 0001:00060E7F  4025 0001:00060E8A  4027 0001:00060E9D
  4028 0001:00060EA8  4029 0001:00060EB3  4031 0001:00060EBE  4033 0001:00060EE1
  4034 0001:00060EE7  4035 0001:00060EF2  4038 0001:00060EF7  4039 0001:00060EFE
  4045 0001:00060F03  4047 0001:00060F10  4048 0001:00060F24  4049 0001:00060F2B
  4051 0001:00060F36  4053 0001:00060F3D  4054 0001:00060F44  4057 0001:00060F4F
  4063 0001:00060F66  4065 0001:00060F79  4066 0001:00060F8D  4067 0001:00060F94
  4068 0001:00060F9A  4070 0001:00060F9F  4072 0001:00060FA6  4073 0001:00060FAD
  4075 0001:00060FB8  4080 0001:00060FCF  4082 0001:00060FD6  4083 0001:00060FDD
  4086 0001:00060FE8  4087 0001:00060FEF  4093 0001:00060FF4  4095 0001:00060FFD
  4096 0001:00061004  4098 0001:00061009  4099 0001:0006100F  4100 0001:00061015
  4101 0001:00061023  4102 0001:00061036  4107 0001:0006103B  4108 0001:00061057
  4109 0001:00061062  4110 0001:00061069  4111 0001:0006106F  4116 0001:00061074
  4118 0001:0006107B  4119 0001:00061082  4121 0001:0006108A  4123 0001:00061091
  4124 0001:00061098  4127 0001:000610A0  4128 0001:000610A7  4132 0001:000610A9
  4133 0001:000610AD  4134 0001:000610B3  4136 0001:000610BE  4138 0001:000610CF
  4141 0001:000610D6  4144 0001:000610E0  4146 0001:00061109  4147 0001:0006111A
  4150 0001:0006112B  4152 0001:0006113B  4153 0001:00061237  4156 0001:00061268
  4157 0001:0006128B  4158 0001:000612DB  4161 0001:000612E4  4162 0001:00061307
  4163 0001:0006136A  4166 0001:00061374  4167 0001:00061393  4168 0001:000613F9
  4171 0001:00061404  4172 0001:00061423  4173 0001:00061489  4176 0001:00061494
  4177 0001:000614B3  4178 0001:00061519  4181 0001:00061524  4182 0001:00061547
  4183 0001:000615AA  4186 0001:000615B4  4187 0001:000615B8  4188 0001:000615CA
  4190 0001:000615D1  4191 0001:000615DB  4196 0001:000615E0  4197 0001:000615F0
  4198 0001:000615F6  4199 0001:0006160A  4201 0001:0006161C  4203 0001:00061634
  4204 0001:0006163C  4205 0001:00061644  4206 0001:00061649  4208 0001:0006164B
  4209 0001:00061655  4210 0001:00061660  4215 0001:00061668  4216 0001:00061678
  4217 0001:00061687  4219 0001:0006169F  4220 0001:000616A7  4221 0001:000616AC
  4223 0001:000616AE  4224 0001:000616B7  4225 0001:000616C2  4230 0001:000616C8
  4231 0001:000616D8  4232 0001:000616EA  4234 0001:00061702  4235 0001:0006170A
  4236 0001:0006170F  4238 0001:00061711  4239 0001:0006171A  4240 0001:00061725
  4243 0001:0006172C  4244 0001:00061748  4245 0001:00061754  4246 0001:0006177D
  4249 0001:00061784  4250 0001:00061790  4251 0001:0006179D  4252 0001:000617A4
  4253 0001:000617B2  4254 0001:000617ED  4255 0001:000617F6  4256 0001:00061803
  4257 0001:00061810  4258 0001:00061823  4259 0001:00061833  4260 0001:00061843
  4262 0001:00061850  4266 0001:00061865  4268 0001:00061874  4271 0001:00061878
  4272 0001:00061884  4273 0001:0006188D  4274 0001:00061894  4275 0001:000618A2
  4276 0001:000618B2  4277 0001:000618C2  4280 0001:000618DD  4282 0001:000618EC
  4285 0001:000618F0  4286 0001:000618FF  4287 0001:00061930  4288 0001:00061938
  4289 0001:00061957  4292 0001:00061960  4293 0001:00061986  4294 0001:0006198C
  4295 0001:000619D3  4296 0001:00061A2E  4299 0001:00061A38  4300 0001:00061A47
  4301 0001:00061A78  4308 0001:00061A80  4309 0001:00061AB3  4310 0001:00061AEE
  4311 0001:00061B16  4312 0001:00061B41  4313 0001:00061B6C  4314 0001:00061B97
  4316 0001:00061BBF  4320 0001:00061BE7  4321 0001:00061C06  4322 0001:00061C1C
  4324 0001:00061C2C  4325 0001:00061C48  4326 0001:00061C54  4330 0001:00061C61
  4331 0001:00061C80  4332 0001:00061C8B  4333 0001:00061C9B  4334 0001:00061CB1
  4333 0001:00061CDB  4337 0001:00061CE2  4339 0001:00061D20  4347 0001:00061D24
  4348 0001:00061D61  4349 0001:00061D77  4350 0001:00061DB2  4351 0001:00061DC5
  4352 0001:00061DDC  4353 0001:00061DF3  4354 0001:00061E0C  4356 0001:00061E2D
  4360 0001:00061E43  4361 0001:00061E56  4363 0001:00061E5F  4364 0001:00061E70
  4365 0001:00061E92  4366 0001:00061EA4  4367 0001:00061EAA  4368 0001:00061EBA
  4369 0001:00061EC0  4370 0001:00061EDE  4372 0001:00061EEB  4373 0001:00061EFB
  4377 0001:00061F08  4378 0001:00061F16  4379 0001:00061F1F  4381 0001:00061F39
  4382 0001:00061F47  4383 0001:00061F55  4384 0001:00061F77  4385 0001:00061F89
  4386 0001:00061F8F  4387 0001:00061F9F  4388 0001:00061FA5  4389 0001:00061FC3
  4390 0001:00061FD0  4379 0001:00061FD3  4393 0001:0006202D  4396 0001:00062034
  4397 0001:00062053  4398 0001:000620A5  4401 0001:000620B0  4402 0001:000620B9
  4403 0001:000620C4  4404 0001:000620D1  4407 0001:000620D8  4408 0001:000620E7
  4409 0001:0006211A  4414 0001:00062124  4415 0001:00062151  4416 0001:00062159
  4417 0001:00062164  4419 0001:0006216A  4421 0001:0006217A  4422 0001:00062182
  4423 0001:000621B6  4424 0001:000621BA  4426 0001:000621C0  4427 0001:000621CC
  4428 0001:000621D9  4425 0001:000621DD  4429 0001:000621DF  4430 0001:00062221
  4431 0001:00062225  4433 0001:00062230  4435 0001:00062239  4436 0001:00062241
  4437 0001:00062275  4439 0001:00062277  4418 0001:0006227B  4440 0001:000622A2
  4443 0001:000622AC  4444 0001:000622BB  4445 0001:000622EC  4450 0001:000622F4
  4451 0001:00062313  4452 0001:00062344  4453 0001:0006234A  4454 0001:0006235A
  4455 0001:0006237F  4460 0001:00062388  4461 0001:000623A7  4462 0001:000623B5
  4463 0001:000623BB  4464 0001:000623C8  4465 0001:000623EC  4470 0001:000623F0
  4471 0001:0006240F  4472 0001:0006241D  4473 0001:00062423  4474 0001:00062434
  4475 0001:0006245C  4480 0001:00062460  4481 0001:0006247F  4482 0001:0006248D
  4483 0001:00062493  4484 0001:000624A4  4485 0001:000624CC  4490 0001:000624D0
  4491 0001:000624EF  4492 0001:000624FD  4493 0001:00062503  4494 0001:00062516
  4495 0001:00062547  4498 0001:0006254C  4499 0001:00062555  4500 0001:00062561
  4503 0001:00062568  4504 0001:00062571  4505 0001:0006257D  4510 0001:00062584
  4511 0001:000625A7  4512 0001:000625B5  4513 0001:000625BB  4514 0001:000625CB
  4515 0001:000625F0  4520 0001:000625F8  4521 0001:00062607  4522 0001:0006261E
  4523 0001:0006262C  4525 0001:0006264E  4527 0001:00062661  4530 0001:00062668
  4531 0001:0006268E  4532 0001:00062724  4546 0001:00062730  4547 0001:00062764
  4548 0001:0006277D  4549 0001:00062783  4551 0001:00062793  4552 0001:000627A3
  4554 0001:000627B7  4555 0001:000627E6  4556 0001:000627EC  4557 0001:0006280C
  4559 0001:00062816  4561 0001:00062858  4567 0001:00062878  4568 0001:000628A3
  4569 0001:000628B8  4571 0001:000628BE  4572 0001:000628ED  4573 0001:000628F3
  4574 0001:0006290E  4576 0001:00062914  4577 0001:00062950  4583 0001:00062968
  4584 0001:0006299E  4585 0001:000629AE  4586 0001:000629BC  4588 0001:000629DB
  4591 0001:000629F5  4592 0001:00062A05  4594 0001:00062A13  4596 0001:00062A22
  4597 0001:00062A30  4598 0001:00062A3D  4599 0001:00062A49  4604 0001:00062A53
  4605 0001:00062A63  4606 0001:00062A71  4609 0001:00062ABC  4615 0001:00062B00
  4616 0001:00062B34  4617 0001:00062B44  4619 0001:00062B52  4620 0001:00062B73
  4622 0001:00062B79  4623 0001:00062B84  4627 0001:00062B89  4628 0001:00062B99
  4630 0001:00062BA7  4631 0001:00062BD6  4632 0001:00062BDC  4633 0001:00062BFC
  4635 0001:00062C06  4636 0001:00062C4B  4643 0001:00062C7C  4644 0001:00062CB0
  4645 0001:00062CB4  4646 0001:00062CC4  4648 0001:00062CD6  4649 0001:00062CF2
  4650 0001:00062D00  4651 0001:00062D08  4652 0001:00062D13  4654 0001:00062D19
  4656 0001:00062D39  4657 0001:00062D3D  4658 0001:00062D46  4660 0001:00062D74
  4661 0001:00062D7C  4652 0001:00062D87  4665 0001:00062D9A  4669 0001:00062DAA
  4670 0001:00062DBA  4672 0001:00062DC8  4673 0001:00062DF7  4674 0001:00062DFD
  4676 0001:00062E5E  4681 0001:00062E98  4682 0001:00062EC6  4683 0001:00062ED9
  4684 0001:00062EE7  4685 0001:00062EF4  4687 0001:00062EFC  4688 0001:00062F02
  4689 0001:00062F0B  4691 0001:00062F59  4698 0001:00062F60  4699 0001:00062F99
  4700 0001:00062FA0  4701 0001:00062FB0  4703 0001:00062FC2  4704 0001:00062FDE
  4705 0001:00062FEC  4706 0001:00062FF4  4707 0001:00062FFF  4709 0001:00063005
  4710 0001:00063025  4711 0001:00063041  4712 0001:00063049  4707 0001:00063054
  4716 0001:00063067  4720 0001:00063077  4721 0001:00063087  4723 0001:00063095
  4724 0001:000630C4  4725 0001:000630CA  4727 0001:00063125  4733 0001:00063158
  4734 0001:0006319C  4735 0001:000631A0  4736 0001:000631B5  4738 0001:000631C5
  4739 0001:000631E7  4741 0001:00063228  4742 0001:0006322C  4743 0001:0006322E
  4738 0001:00063231  4744 0001:00063238  4746 0001:0006323E  4747 0001:00063242
  4748 0001:0006324B  4749 0001:0006325D  4752 0001:0006325F  4753 0001:0006326E
  4754 0001:000632D1  4759 0001:000632E4  4760 0001:00063312  4761 0001:00063316
  4762 0001:0006332B  4765 0001:00063343  4766 0001:0006335B  4768 0001:00063385
  4769 0001:00063389  4770 0001:00063392  4772 0001:000633A5  4773 0001:000633BD
  4775 0001:000633E7  4776 0001:000633EB  4777 0001:000633F4  4779 0001:00063407
  4780 0001:0006341F  4782 0001:00063449  4783 0001:0006344D  4784 0001:00063456
  4786 0001:00063469  4787 0001:00063481  4789 0001:000634AB  4790 0001:000634AF
  4791 0001:000634B8  4796 0001:000634CD  4797 0001:000634D1  4798 0001:000634DA
  4800 0001:0006351F  4805 0001:0006356C  4806 0001:000635A2  4807 0001:000635A6
  4808 0001:000635BB  4811 0001:000635D3  4812 0001:000635EB  4814 0001:00063603
  4815 0001:00063607  4816 0001:00063610  4818 0001:00063623  4819 0001:0006363B
  4821 0001:00063653  4822 0001:00063657  4823 0001:00063660  4825 0001:00063673
  4826 0001:0006368B  4828 0001:000636A4  4829 0001:000636A8  4830 0001:000636B1
  4832 0001:000636C4  4833 0001:000636DC  4835 0001:000636F4  4836 0001:000636F8
  4837 0001:00063701  4842 0001:00063716  4843 0001:0006371A  4844 0001:00063723
  4846 0001:00063773  4857 0001:000637BC  4858 0001:000637FF  4859 0001:00063803
  4861 0001:00063809  4863 0001:00063825  4864 0001:0006382E  4865 0001:00063841
  4868 0001:0006384A  4870 0001:00063896  4873 0001:000638A2  4874 0001:000638DB
  4877 0001:00063906  4878 0001:0006390F  4879 0001:00063922  4882 0001:0006392B
  4885 0001:00063937  4888 0001:00063962  4889 0001:0006396B  4890 0001:0006397E
  4893 0001:00063987  4896 0001:00063993  4899 0001:000639BE  4900 0001:000639C7
  4901 0001:000639DA  4904 0001:000639E3  4907 0001:000639F1  4910 0001:00063A1C
  4911 0001:00063A25  4912 0001:00063A38  4915 0001:00063A41  4919 0001:00063A59
  4920 0001:00063A75  4921 0001:00063A83  4922 0001:00063A8B  4923 0001:00063A96
  4925 0001:00063AA0  4926 0001:00063AB6  4927 0001:00063AC4  4929 0001:00063B07
  4930 0001:00063B10  4931 0001:00063B3E  4933 0001:00063B42  4934 0001:00063B4A
  4923 0001:00063B55  4937 0001:00063B6C  4941 0001:00063B7C  4945 0001:00063B9A
  4946 0001:00063B9E  4947 0001:00063BAB  4950 0001:00063BC3  4953 0001:00063BD3
  4954 0001:00063BE8  4955 0001:00063BF2  4958 0001:00063C0A  4959 0001:00063C28
  4958 0001:00063C8F  4960 0001:00063C94  4963 0001:00063CB0  4964 0001:00063CCF
  4965 0001:00063CDD  4967 0001:00063CFF  4968 0001:00063D23  4970 0001:00063D2F
  4971 0001:00063D4C  4973 0001:00063D5B  4974 0001:00063D5F  4975 0001:00063D68
  4978 0001:00063DAE  4965 0001:00063DB1  4980 0001:00063DC7  4985 0001:00063DD7
  4987 0001:00063DEC  4988 0001:00063E0B  4989 0001:00063E19  4990 0001:00063E29
  4991 0001:00063E45  4992 0001:00063E53  4993 0001:00063E5B  4994 0001:00063E66
  4996 0001:00063E70  4998 0001:00063E97  4999 0001:00063EB6  5000 0001:00063EC4
  5002 0001:00063EE6  5003 0001:00063EFC  5005 0001:00063F06  5006 0001:00063F2D
  5007 0001:00063F3D  5008 0001:00063F5A  5010 0001:00063F69  5011 0001:00063F6D
  5012 0001:00063F76  5015 0001:00063FC2  5000 0001:00063FC5  5017 0001:00063FDB
  5020 0001:00063FEB  5021 0001:00063FF3  4994 0001:00063FFE  5024 0001:00064015
  5027 0001:00064032  5035 0001:00064042  5036 0001:00064046  5037 0001:0006404F
  5039 0001:00064062  5043 0001:00064098  5044 0001:0006409C  5045 0001:000640A9
  5048 0001:000640C1  5052 0001:000640CF  5055 0001:000640FA  5056 0001:00064103
  5057 0001:00064116  5060 0001:0006411F  5066 0001:00064131  5067 0001:0006416A
  5070 0001:00064195  5071 0001:0006419E  5072 0001:000641B1  5075 0001:000641BA
  5082 0001:000641CB  5083 0001:0006420A  5086 0001:00064232  5087 0001:0006423B
  5088 0001:0006424E  5092 0001:00064254  5093 0001:0006425D  5094 0001:00064270
  5096 0001:00064274  5098 0001:0006438D  5102 0001:000643F4  5103 0001:00064420
  5104 0001:00064424  5105 0001:00064443  5106 0001:00064462  5107 0001:00064470
  5108 0001:00064481  5109 0001:00064492  5110 0001:000644A3  5111 0001:000644B4
  5112 0001:000644C5  5113 0001:000644D6  5114 0001:000644E7  5115 0001:000644F8
  5116 0001:00064509  5118 0001:0006451A  5119 0001:0006452C  5120 0001:0006454A
  5121 0001:0006456E  5123 0001:00064590  5124 0001:00064596  5125 0001:000645A0
  5126 0001:000645A7  5119 0001:000645AA  5129 0001:000645AF  5130 0001:000645BD
  5132 0001:000645C9  5133 0001:000645CF  5134 0001:000645D9  5137 0001:000645E0
  5140 0001:00064606  5141 0001:0006460E  5143 0001:0006465C  5146 0001:000646F8
  5147 0001:000646FC  5148 0001:0006470E  5151 0001:00064714  5152 0001:00064718
  5153 0001:00064727  5154 0001:0006472D  5155 0001:0006473A  5158 0001:00064740
  5159 0001:0006475F  5160 0001:000647B5  5164 0001:000647C0  5165 0001:000647C4
  5166 0001:000647DA  5167 0001:000647EC  5168 0001:000647F3  5171 0001:000647F8
  5172 0001:000647FC  5173 0001:00064810  5174 0001:00064824  5175 0001:0006482B
  5177 0001:00064834  5178 0001:00064857  5180 0001:00064892  5181 0001:000648CD
  5182 0001:000648F5  5183 0001:00064927  5184 0001:00064965  5185 0001:00064996
  5187 0001:000649D8  5190 0001:000649E1  5191 0001:00064A1C  5192 0001:00064A49
  5193 0001:00064A70  5194 0001:00064AA5  5195 0001:00064AD5  5197 0001:00064B17
  5200 0001:00064B20  5201 0001:00064B5B  5202 0001:00064B96  5203 0001:00064BCB
  5204 0001:00064BFA  5205 0001:00064C38  5207 0001:00064C7A  5210 0001:00064C83
  5211 0001:00064CBE  5212 0001:00064CEF  5213 0001:00064D18  5214 0001:00064D4D
  5215 0001:00064D7D  5217 0001:00064DBC  5220 0001:00064DC2  5225 0001:00064DD3
  5227 0001:00064E12  5230 0001:00064E18  5232 0001:00064E4E  5236 0001:00064E58
  5237 0001:00064E61  5238 0001:00064E6A  5239 0001:00064E75  5240 0001:00064E7D
  5245 0001:00064E84  5246 0001:00064EA0  5247 0001:00064EAC  5248 0001:00064ED0
  5255 0001:00064ED8  5256 0001:00064EF7  5257 0001:00064F28  5258 0001:00064F3A
  5259 0001:00064F4A  5260 0001:00064F6F  5265 0001:00064F78  5266 0001:00064F9B
  5267 0001:00064FFE  5272 0001:00065008  5273 0001:00065017  5274 0001:0006504A
  5279 0001:00065054  5280 0001:00065077  5281 0001:000650EF  5285 0001:00065100
  5286 0001:00065109  5287 0001:00065115  5290 0001:0006511C  5291 0001:00065128
  5292 0001:00065131  5295 0001:00065138  5296 0001:00065144  5297 0001:0006514D
  5302 0001:00065154  5303 0001:00065160  5304 0001:00065169  5305 0001:0006517A
  5308 0001:00065180  5309 0001:00065190  5311 0001:000651A1  5312 0001:000651B5
  5313 0001:000651C6  5314 0001:000651CC  5316 0001:000651D7  5318 0001:00065203
  5321 0001:00065214  5343 0001:0006521C  5344 0001:00065228  5345 0001:0006523E
  5347 0001:0006524D  5348 0001:00065253  5349 0001:0006526A  5350 0001:0006527B
  5344 0001:0006527E  5351 0001:00065283  5352 0001:0006528B  5357 0001:00065290
  5358 0001:0006529D  5360 0001:000652AA  5361 0001:000652AF  5364 0001:000652B6
  5363 0001:000652B9  5365 0001:000652D3  5367 0001:000652DE  5369 0001:000652E6
  5368 0001:000652E9  5371 0001:00065303  5373 0001:00065306  5374 0001:0006530E
  5376 0001:00065337  5377 0001:00065341  5379 0001:00065348  5380 0001:00065357
  5381 0001:00065376  5382 0001:0006537F  5383 0001:00065385  5384 0001:0006539B
  5383 0001:000653B5  5386 0001:000653BA  5389 0001:000653C0  5390 0001:000653D8
  5391 0001:000653E2  5392 0001:000653EC  5393 0001:000653F4  5394 0001:00065408
  5395 0001:00065439  5398 0001:00065440  5399 0001:00065451  5400 0001:0006545B
  5401 0001:00065466  5402 0001:00065482  5407 0001:00065488  5408 0001:00065494
  5410 0001:0006549F  5411 0001:000654AC  5412 0001:000654B9  5413 0001:000654C0
  5414 0001:000654D1  5415 0001:000654F3  5416 0001:000654FC  5419 0001:00065500
  5420 0001:0006550F  5421 0001:0006551A  5422 0001:00065524  5423 0001:00065538
  5466 0001:0006553C  5467 0001:0006554B  5468 0001:00065556  5469 0001:0006556A
  5470 0001:0006557F  5543 0001:00065584  5543 0001:000655A9  5544 0001:000655B0
  5545 0001:000655BF  5546 0001:000655C5  5548 0001:000655CF  5550 0001:000655E0
  5551 0001:00065601  5554 0001:00065614  5555 0001:00065624  5556 0001:0006563C
  5557 0001:00065654  5559 0001:00065672  5561 0001:0006568E  5562 0001:00065697
  5564 0001:000656AC  5567 0001:000656B0  5568 0001:000656BD  5569 0001:000656D7
  5572 0001:000656DC  5573 0001:000656F4  5574 0001:000656FE  5575 0001:00065708
  5576 0001:00065710  5577 0001:0006573E  5580 0001:00065744  5581 0001:00065755
  5582 0001:00065763  5583 0001:0006576C  5584 0001:00065785  5587 0001:0006578C
  5588 0001:00065798  5589 0001:000657AC  5592 0001:000657B0  5593 0001:000657B7
  5594 0001:000657C2  5595 0001:000657CA  5598 0001:000657D0  5601 0001:000657D9
  5602 0001:000657DF  5599 0001:000657F1  5604 0001:0006582B  5609 0001:00065830
  5610 0001:0006583D  5611 0001:00065857  5614 0001:0006585C  5615 0001:00065877
  5616 0001:00065881  5617 0001:000658A5  5620 0001:000658AC  5621 0001:000658B3
  5622 0001:000658C2  5631 0001:000658C8  5632 0001:000658DB  5633 0001:000658E1
  5635 0001:000658FA  5636 0001:00065903  5637 0001:00065910  5638 0001:00065919
  5639 0001:00065927  5640 0001:0006593A  5639 0001:0006594F  5641 0001:00065954
  5643 0001:00065975  5644 0001:00065980  5647 0001:00065993  5652 0001:00065998
  5653 0001:000659A8  5654 0001:000659C1  5659 0001:000659C8  5660 0001:000659D7
  5661 0001:000659E0  5662 0001:000659EC  5665 0001:000659F0  5666 0001:000659FC
  5667 0001:00065A0A  5668 0001:00065A16  5671 0001:00065A1C  5672 0001:00065A34
  5673 0001:00065A3E  5674 0001:00065A61  5677 0001:00065A68  5678 0001:00065A6F
  5679 0001:00065A77  5688 0001:00065A7C  5689 0001:00065A8E  5693 0001:00065A94
  5696 0001:00065AB2  5697 0001:00065ABB  5698 0001:00065AC8  5699 0001:00065AD1
  5700 0001:00065ADF  5701 0001:00065AF2  5700 0001:00065B07  5705 0001:00065B0C
  5708 0001:00065B32  5709 0001:00065B3D  5712 0001:00065B4D  5713 0001:00065B59
  5716 0001:00065B60  5717 0001:00065B6D  5718 0001:00065B87  5721 0001:00065B8C
  5722 0001:00065BA7  5723 0001:00065BB1  5724 0001:00065BBA  5725 0001:00065BDD
  5728 0001:00065BE4  5729 0001:00065BEB  5730 0001:00065BF3  5735 0001:00065BF8
  5736 0001:00065C10  5737 0001:00065C22  5738 0001:00065C2F  5739 0001:00065C3A
  5740 0001:00065C5D  5743 0001:00065C64  5744 0001:00065C75  5745 0001:00065C7D
  5746 0001:00065C88  5747 0001:00065CA4  5752 0001:00065CA8  5753 0001:00065CB1
  5754 0001:00065CBF  5753 0001:00065CCD  5755 0001:00065CD3  5756 0001:00065CDB
  5757 0001:00065CE2  5760 0001:00065CE8  5761 0001:00065CF4  5762 0001:00065D02
  5763 0001:00065D10  5764 0001:00065D22  5765 0001:00065D34  5766 0001:00065D46
  5767 0001:00065D58  5768 0001:00065D6A  5773 0001:00065D70  5774 0001:00065D88
  5775 0001:00065D90  5776 0001:00065DB3  5779 0001:00065DB8  5780 0001:00065DC9
  5781 0001:00065DD3  5782 0001:00065DEF  5793 0001:00065DF4  5794 0001:00065E00
  5796 0001:00065E0D  5797 0001:00065E16  5799 0001:00065E23  5800 0001:00065E29
  5801 0001:00065E32  5802 0001:00065E3E  5803 0001:00065E4A  5804 0001:00065E53
  5805 0001:00065E5C  5806 0001:00065E65  5808 0001:00065E6B  5810 0001:00065E71
  5811 0001:00065E7B  5814 0001:00065E85  5815 0001:00065E8F  5817 0001:00065E97
  5820 0001:00065EA4  5821 0001:00065EAC  5825 0001:00065EB9  5826 0001:00065EC5
  5827 0001:00065ECE  5829 0001:00065ED7  5830 0001:00065EE1  5833 0001:00065EED
  5834 0001:00065EF5  5836 0001:00065EFD  5842 0001:00065F08  5843 0001:00065F11
  5845 0001:00065F1E  5846 0001:00065F24  5847 0001:00065F2D  5848 0001:00065F39
  5849 0001:00065F45  5850 0001:00065F4E  5852 0001:00065F57  5853 0001:00065F60
  5855 0001:00065F66  5857 0001:00065F6C  5858 0001:00065F76  5861 0001:00065F80
  5862 0001:00065F8A  5864 0001:00065F92  5867 0001:00065F9C  5868 0001:00065FA4
  5872 0001:00065FAE  5873 0001:00065FBA  5874 0001:00065FC3  5876 0001:00065FCC
  5877 0001:00065FD6  5880 0001:00065FE2  5881 0001:00065FEA  5883 0001:00065FF2
  5886 0001:00065FF8  5887 0001:00066001  5897 0001:00066008  5898 0001:00066015
  5899 0001:0006601B  5900 0001:00066023  5901 0001:0006602B  5902 0001:00066033
  5904 0001:0006603B  5905 0001:00066044  5908 0001:00066052  5909 0001:00066057
  5910 0001:0006605C  5911 0001:00066061  5912 0001:00066066  5913 0001:0006606F
  5915 0001:00066074  5917 0001:0006607D  5918 0001:00066083  5919 0001:00066089
  5921 0001:0006608F  5923 0001:0006609D  5924 0001:000660B4  5925 0001:000660CB
  5927 0001:000660D2  5928 0001:000660E3  5930 0001:000660E9  5932 0001:000660EF
  5933 0001:000660F8  5934 0001:00066104  5935 0001:0006610D  5936 0001:00066119
  5937 0001:0006611F  5939 0001:00066124  5940 0001:0006612A  5942 0001:00066130
  5943 0001:00066139  5946 0001:00066147  5947 0001:00066150  5949 0001:0006615C
  5950 0001:0006615F  5952 0001:00066169  5953 0001:0006616F  5954 0001:0006617A
  5956 0001:00066183  5958 0001:00066189  5959 0001:0006618F  5962 0001:0006619A
  5963 0001:000661A8  5964 0001:000661B1  5965 0001:000661B8  5966 0001:000661BB
  5967 0001:000661C4  5968 0001:000661CA  5969 0001:000661CF  5970 0001:000661D2
  5971 0001:000661D8  5972 0001:000661E3  5973 0001:000661EC  5975 0001:000661F8
  5976 0001:00066201  5980 0001:00066206  5981 0001:0006620C  5983 0001:00066214
  5984 0001:00066222  5985 0001:0006622B  5986 0001:00066232  5987 0001:00066235
  5989 0001:0006623B  5990 0001:00066245  5993 0001:00066250  5994 0001:0006625A
  5981 0001:00066263  5998 0001:0006626B  6000 0001:00066271  6001 0001:0006627F
  6002 0001:00066285  6005 0001:00066290  6006 0001:00066297  6007 0001:000662A5
  6008 0001:000662AE  6009 0001:000662B5  6010 0001:000662BB  6011 0001:000662C6
  6015 0001:000662CF  6016 0001:000662D8  6023 0001:000662E4  6024 0001:00066307
  6026 0001:00066317  6027 0001:0006631C  6029 0001:00066325  6030 0001:0006632B
  6031 0001:00066334  6032 0001:0006633A  6033 0001:00066343  6035 0001:00066348
  6037 0001:00066352  6038 0001:00066366  6039 0001:0006637A  6041 0001:0006637F
  6042 0001:00066385  6043 0001:000663A8  6045 0001:000663AE  6047 0001:000663B4
  6048 0001:000663BA  6050 0001:000663BC  6053 0001:000663C6  6054 0001:000663CC
  6055 0001:000663D9  6056 0001:000663DF  6057 0001:000663E5  6058 0001:000663F0
  6035 0001:000663F9  6060 0001:00066403  6061 0001:00066429  6070 0001:00066430
  6071 0001:00066440  6072 0001:00066450  6073 0001:00066455  6075 0001:0006645D
  6076 0001:00066462  6077 0001:0006646B  6080 0001:00066470  6082 0001:0006647A
  6083 0001:0006648E  6084 0001:000664A2  6086 0001:000664A7  6087 0001:000664AD
  6088 0001:000664BE  6090 0001:000664C4  6091 0001:000664CA  6093 0001:000664D0
  6094 0001:000664D9  6097 0001:000664E7  6098 0001:000664F0  6100 0001:000664FC
  6101 0001:000664FF  6078 0001:00066505  6103 0001:0006650A  6104 0001:00066510
  6105 0001:00066516  6107 0001:0006651C  6109 0001:00066525  6110 0001:0006652E
  6111 0001:0006653A  6114 0001:00066543  6115 0001:0006654C  6116 0001:00066558
  6118 0001:0006655F  6120 0001:00066562  6122 0001:00066568  6124 0001:0006656B
  6125 0001:00066571  6126 0001:00066577  6128 0001:0006657D  6129 0001:00066586
  6132 0001:00066594  6133 0001:0006659D  6135 0001:000665A9  6136 0001:000665AC
  6138 0001:000665B2  6139 0001:000665BA  6140 0001:000665C4  6142 0001:000665CA
  6143 0001:000665D0  6144 0001:000665DB  6147 0001:000665E4  6148 0001:000665EA
  6149 0001:000665F5  6150 0001:000665FB  6151 0001:00066606  6153 0001:0006660F
  6154 0001:00066617  6155 0001:0006661F  6157 0001:00066625  6159 0001:0006662D
  6160 0001:00066639  6161 0001:00066645  6162 0001:00066651  6163 0001:00066657
  6166 0001:00066662  6167 0001:00066669  6168 0001:00066677  6169 0001:00066682
  6173 0001:0006668B  6175 0001:00066695  6176 0001:0006669E  6177 0001:000666A3
  6178 0001:000666A8  6180 0001:000666B0  6182 0001:000666BE  6183 0001:000666C7
  6186 0001:000666D2  6187 0001:000666DB  6189 0001:000666E4  6190 0001:000666E7
  6191 0001:000666ED  6178 0001:000666F3  6194 0001:000666FB  6195 0001:00066702
  6198 0001:00066708  6200 0001:0006670E  6201 0001:00066717  6202 0001:0006671D
  6203 0001:00066722  6204 0001:00066725  6206 0001:00066731  6207 0001:0006673F
  6209 0001:0006674A  6210 0001:00066753  6212 0001:00066760  6214 0001:00066766
  6215 0001:0006676C  6216 0001:00066772  6217 0001:00066775  6218 0001:00066783
  6219 0001:0006678C  6220 0001:00066793  6222 0001:00066799  6223 0001:000667A2
  6226 0001:000667B0  6227 0001:000667B9  6196 0001:000667C2  6230 0001:000667C7
  6232 0001:000667D0  6234 0001:000667D6  6235 0001:000667E1  6236 0001:000667ED
  6238 0001:000667F3  6245 0001:000667FC  6246 0001:0006681E  6247 0001:00066827
  6248 0001:00066836  6250 0001:0006683C  6252 0001:00066845  6253 0001:0006684E
  6254 0001:00066857  6255 0001:00066864  6256 0001:0006686A  6260 0001:00066885
  6261 0001:0006688E  6262 0001:0006689A  6264 0001:000668A3  6248 0001:000668A9
  6266 0001:000668AF  6267 0001:000668C5  6266 0001:000668E1  6268 0001:000668E6
  6269 0001:00066916  6274 0001:0006691C  6275 0001:00066929  6276 0001:00066932
  6278 0001:00066938  6280 0001:00066941  6281 0001:0006694A  6285 0001:00066959
  6286 0001:00066962  6287 0001:0006696E  6289 0001:00066977  6276 0001:0006697D
  6291 0001:00066983  6292 0001:0006698B  6293 0001:00066993  6296 0001:00066998
  6297 0001:000669A7  6298 0001:000669C7  6301 0001:000669CC  6302 0001:000669DB
  6303 0001:000669FE  6313 0001:00066A04  6314 0001:00066A1F  6315 0001:00066A29
  6316 0001:00066A4D  6375 0001:00066A54  6376 0001:00066A5D  6377 0001:00066A69
  6378 0001:00066A73  6379 0001:00066A7F  6381 0001:00066A85  6382 0001:00066A8E
  6383 0001:00066A9E  6384 0001:00066AA4  6379 0001:00066AAD  6386 0001:00066AB3
  6413 0001:00066ABC  6414 0001:00066AC5  6416 0001:00066ACE  6417 0001:00066AD3
  6419 0001:00066AD5  6420 0001:00066ADE  6421 0001:00066AEC  6422 0001:00066AFF
  6427 0001:00066B04  6428 0001:00066B0D  6430 0001:00066B1A  6431 0001:00066B23
  6432 0001:00066B34  6434 0001:00066B47  6436 0001:00066B4D  6438 0001:00066B56
  6439 0001:00066B60  6441 0001:00066B62  6442 0001:00066B68  6445 0001:00066B7E
  6446 0001:00066B90  6447 0001:00066BA0  6450 0001:00066BA6  6451 0001:00066BAF
  6453 0001:00066BB5  6454 0001:00066BC7  6455 0001:00066BD7  6448 0001:00066BDD
  6459 0001:00066BDF  6498 0001:00066BE4  6499 0001:00066BF3  6500 0001:00066BFB
  6503 0001:00066C00  6504 0001:00066C09  6505 0001:00066C1E  6510 0001:00066C24
  6511 0001:00066C3F  6512 0001:00066C4D  6513 0001:00066C56  6514 0001:00066C84
  6517 0001:00066C8C  6518 0001:00066C98  6519 0001:00066CA6  6525 0001:00066CAC
  6526 0001:00066CB8  6527 0001:00066CBD  6528 0001:00066CD3  6527 0001:00066CF5
  6529 0001:00066CFA  6530 0001:00066D03  6533 0001:00066D08  6534 0001:00066D14
  6535 0001:00066D22  6582 0001:00066D28  6583 0001:00066D4B  6585 0001:00066D54
  6586 0001:00066D72  6588 0001:00066D7C  6589 0001:00066DA7  6607 0001:00066DAC
  6608 0001:00066DBC  6609 0001:00066DD0  6610 0001:00066DD6  6611 0001:00066DE3
  6612 0001:00066DEB  6617 0001:00066DF4  6618 0001:00066E03  6619 0001:00066E23
  6620 0001:00066E2C  6621 0001:00066E38  7501 0001:00066E6C  7501 0001:00066E73

Line numbers for PPDemo_Unt(PPDemo_Unt.pas) segment .text

    37 0001:00067058    38 0001:0006705B    39 0001:0006706E    40 0001:0006708B
    41 0001:000670A8    42 0001:000670C5    44 0001:000670E0    54 0001:00067144
    55 0001:00067162    56 0001:0006716D    57 0001:00067183    58 0001:000671AC
    60 0001:000671BF    61 0001:00067200    62 0001:00067229    63 0001:00067252
    69 0001:0006727B    71 0001:00067293    73 0001:000672A2    74 0001:000672E3
    78 0001:0006737C    84 0001:00067474    96 0001:000674B3   108 0001:000674B8
   116 0001:000674FC   117 0001:00067509   118 0001:00067516   119 0001:00067523
   120 0001:00067530   121 0001:0006753D   122 0001:00067545   123 0001:00067550
   124 0001:00067558   125 0001:00067571   126 0001:0006759A   127 0001:000675B3
   128 0001:000675BA   129 0001:000675C1   130 0001:000675C6   131 0001:000675CB
   132 0001:000675D2   134 0001:000675D7   135 0001:000675E4   136 0001:000675FF
   137 0001:00067611   138 0001:00067623   139 0001:0006763E   140 0001:00067659
   141 0001:00067674   142 0001:0006768F   143 0001:000676AA   144 0001:000676C5
   145 0001:000676E0   146 0001:00067701   147 0001:00067714   148 0001:00067727
   149 0001:0006773A   150 0001:0006774D   151 0001:00067760   152 0001:00067773
   154 0001:00067792   155 0001:000677A7   156 0001:000677AD   158 0001:000677FC
   160 0001:000678B0   171 0001:00067B80   173 0001:00067BA8   177 0001:00067BC2
   179 0001:00067BCD   183 0001:00067BD8   184 0001:00067BEA   185 0001:00067BF0
   187 0001:00067C0B   190 0001:00067C24   191 0001:00067C2B   192 0001:00067C3C
   193 0001:00067C42   195 0001:00067C5D   204 0001:00067C76   205 0001:00067C9C
   206 0001:00067CA2   208 0001:00067CD5   211 0001:00067CEE   212 0001:00067CF6
   213 0001:00067CFD   214 0001:00067D05   215 0001:00067D0D   216 0001:00067D15
   217 0001:00067D31   218 0001:00067D37   220 0001:00067D52   221 0001:00067D95
   224 0001:00067F14   225 0001:00067F20   226 0001:00067F25   229 0001:00067F2C
   230 0001:00067F38   231 0001:00067F43   233 0001:00067F78   233 0001:00067F7F

Line numbers for D7_PP(Z:\Developer\4pyun\4pyun-api\4pyun-api-c\4pyun-api-delphi\D7_PP.dpr) segment .text

    10 0001:000681A0    11 0001:000681B0    12 0001:000681BC    13 0001:000681D4
    14 0001:000681E0

Bound resource files

c:\program files (x86)\borland\delphi7\Lib\Buttons.res
c:\program files (x86)\borland\delphi7\Lib\ExtDlgs.res
c:\program files (x86)\borland\delphi7\Lib\Controls.res
PPDemo_Unt.dfm
D7_PP.res
D7_PP.drf


Program entry point at 0001:000681A0
